
bin/promicro/Arduino Keyboard Mouse.elf:     file format elf32-avr

Sections:
Idx Name          Size      VMA       LMA       File off  Algn
  0 .data         00000124  00800100  00006d80  00006e14  2**0
                  CONTENTS, ALLOC, LOAD, DATA
  1 .text         00006d80  00000000  00000000  00000094  2**1
                  CONTENTS, ALLOC, LOAD, READONLY, CODE
  2 .bss          000004b0  00800224  00800224  00006f38  2**0
                  ALLOC
  3 .comment      00000011  00000000  00000000  00006f38  2**0
                  CONTENTS, READONLY

Disassembly of section .text:

00000000 <.text>:
       0:	0c 94 a0 03 	jmp	0x740	;  0x740
       4:	0c 94 cf 1e 	jmp	0x3d9e	;  0x3d9e
       8:	0c 94 f6 1e 	jmp	0x3dec	;  0x3dec
       c:	0c 94 1d 1f 	jmp	0x3e3a	;  0x3e3a
      10:	0c 94 44 1f 	jmp	0x3e88	;  0x3e88
      14:	0c 94 c8 03 	jmp	0x790	;  0x790
      18:	0c 94 c8 03 	jmp	0x790	;  0x790
      1c:	0c 94 6b 1f 	jmp	0x3ed6	;  0x3ed6
      20:	0c 94 c8 03 	jmp	0x790	;  0x790
      24:	0c 94 ff 23 	jmp	0x47fe	;  0x47fe
      28:	0c 94 d1 1b 	jmp	0x37a2	;  0x37a2
      2c:	0c 94 67 1d 	jmp	0x3ace	;  0x3ace
      30:	0c 94 c8 03 	jmp	0x790	;  0x790
      34:	0c 94 c8 03 	jmp	0x790	;  0x790
      38:	0c 94 c8 03 	jmp	0x790	;  0x790
      3c:	0c 94 c8 03 	jmp	0x790	;  0x790
      40:	0c 94 c8 03 	jmp	0x790	;  0x790
      44:	0c 94 c8 03 	jmp	0x790	;  0x790
      48:	0c 94 c8 03 	jmp	0x790	;  0x790
      4c:	0c 94 c8 03 	jmp	0x790	;  0x790
      50:	0c 94 f8 0f 	jmp	0x1ff0	;  0x1ff0
      54:	0c 94 c8 03 	jmp	0x790	;  0x790
      58:	0c 94 c8 03 	jmp	0x790	;  0x790
      5c:	0c 94 92 1f 	jmp	0x3f24	;  0x3f24
      60:	0c 94 c8 03 	jmp	0x790	;  0x790
      64:	0c 94 28 16 	jmp	0x2c50	;  0x2c50
      68:	0c 94 5a 16 	jmp	0x2cb4	;  0x2cb4
      6c:	0c 94 c8 03 	jmp	0x790	;  0x790
      70:	0c 94 c8 03 	jmp	0x790	;  0x790
      74:	0c 94 c8 03 	jmp	0x790	;  0x790
      78:	0c 94 c8 03 	jmp	0x790	;  0x790
      7c:	0c 94 c8 03 	jmp	0x790	;  0x790
      80:	0c 94 c8 03 	jmp	0x790	;  0x790
      84:	0c 94 c8 03 	jmp	0x790	;  0x790
      88:	0c 94 c8 03 	jmp	0x790	;  0x790
      8c:	0c 94 c8 03 	jmp	0x790	;  0x790
      90:	0c 94 11 27 	jmp	0x4e22	;  0x4e22
      94:	0c 94 c8 03 	jmp	0x790	;  0x790
      98:	0c 94 27 0e 	jmp	0x1c4e	;  0x1c4e
      9c:	0c 94 c8 03 	jmp	0x790	;  0x790
      a0:	0c 94 c8 03 	jmp	0x790	;  0x790
      a4:	0c 94 c8 03 	jmp	0x790	;  0x790
      a8:	0c 94 c8 03 	jmp	0x790	;  0x790
      ac:	b6 20       	and	r11, r6
      ae:	b9 20       	and	r11, r9
      b0:	a8 20       	and	r10, r8
      b2:	ac 20       	and	r10, r12
      b4:	b2 20       	and	r11, r2
      b6:	da 20       	and	r13, r10
      b8:	da 20       	and	r13, r10
      ba:	da 20       	and	r13, r10
      bc:	bd 20       	and	r11, r13
      be:	c1 20       	and	r12, r1
      c0:	c5 20       	and	r12, r5
      c2:	cb 20       	and	r12, r11
      c4:	cf 20       	and	r12, r15
      c6:	da 20       	and	r13, r10
      c8:	d5 20       	and	r13, r5
      ca:	05 01       	movw	r0, r10
      cc:	09 02       	muls	r16, r25
      ce:	a1 01       	movw	r20, r2
      d0:	85 01       	movw	r16, r10
      d2:	05 09       	sbc	r16, r5
      d4:	19 01       	movw	r2, r18
      d6:	29 08       	sbc	r2, r9
      d8:	15 00       	.word	0x0015	; ????
      da:	25 01       	movw	r4, r10
      dc:	95 08       	sbc	r9, r5
      de:	75 01       	movw	r14, r10
      e0:	81 02       	muls	r24, r17
      e2:	05 01       	movw	r0, r10
      e4:	09 30       	cpi	r16, 0x09	; 9
      e6:	09 31       	cpi	r16, 0x19	; 25
      e8:	09 38       	cpi	r16, 0x89	; 137
      ea:	15 81       	ldd	r17, Z+5	; 0x05
      ec:	25 7f       	andi	r18, 0xF5	; 245
      ee:	75 08       	sbc	r7, r5
      f0:	95 03       	fmuls	r17, r21
      f2:	81 06       	cpc	r8, r17
      f4:	c0 05       	cpc	r28, r0
      f6:	01 09       	sbc	r16, r1
      f8:	06 a1       	ldd	r16, Z+38	; 0x26
      fa:	01 05       	cpc	r16, r1
      fc:	07 19       	sub	r16, r7
      fe:	e0 29       	or	r30, r0
     100:	e7 15       	cp	r30, r7
     102:	00 25       	eor	r16, r0
     104:	01 75       	andi	r16, 0x51	; 81
     106:	01 95       	neg	r16
     108:	08 81       	ld	r16, Y
     10a:	02 05       	cpc	r16, r2
     10c:	0c 95 01 75 	jmp	0x40ea02	;  0x40ea02
     110:	08 15       	cp	r16, r8
     112:	00 26       	eor	r0, r16
     114:	ff 00       	.word	0x00ff	; ????
     116:	19 00       	.word	0x0019	; ????
     118:	29 ff       	.word	0xff29	; ????
     11a:	81 00       	.word	0x0081	; ????
     11c:	05 08       	sbc	r0, r5
     11e:	19 01       	movw	r2, r18
     120:	29 08       	sbc	r2, r9
     122:	95 08       	sbc	r9, r5
     124:	75 01       	movw	r14, r10
     126:	91 02       	muls	r25, r17
     128:	05 07       	cpc	r16, r21
     12a:	95 06       	cpc	r9, r21
     12c:	75 08       	sbc	r7, r5
     12e:	15 00       	.word	0x0015	; ????
     130:	26 e7       	ldi	r18, 0x76	; 118
     132:	00 19       	sub	r16, r0
     134:	00 29       	or	r16, r0
     136:	e7 81       	ldd	r30, Z+7	; 0x07
     138:	00 c0       	rjmp	.+0      	;  0x13a
	...
     142:	2a 2b       	or	r18, r26
     144:	28 00       	.word	0x0028	; ????
	...
     15a:	2c 9e       	mul	r2, r28
     15c:	b4 a0       	ldd	r11, Z+36	; 0x24
     15e:	a1 a2       	std	Z+33, r10	; 0x21
     160:	a4 34       	cpi	r26, 0x44	; 68
     162:	a6 a7       	std	Z+46, r26	; 0x2e
     164:	a5 ae       	std	Z+61, r10	; 0x3d
     166:	36 2d       	mov	r19, r6
     168:	37 38       	cpi	r19, 0x87	; 135
     16a:	27 1e       	adc	r2, r23
     16c:	1f 20       	and	r1, r15
     16e:	21 22       	and	r2, r17
     170:	23 24       	eor	r2, r3
     172:	25 26       	eor	r2, r21
     174:	b3 33       	cpi	r27, 0x33	; 51
     176:	b6 2e       	mov	r11, r22
     178:	b7 b8       	out	0x07, r11	; 7
     17a:	9f 84       	ldd	r9, Y+15	; 0x0f
     17c:	85 86       	std	Z+13, r8	; 0x0d
     17e:	87 88       	ldd	r8, Z+23	; 0x17
     180:	89 8a       	std	Y+17, r8	; 0x11
     182:	8b 8c       	ldd	r8, Y+27	; 0x1b
     184:	8d 8e       	std	Y+29, r8	; 0x1d
     186:	8f 90       	pop	r8
     188:	91 92       	st	Z+, r9
     18a:	93 94       	inc	r9
     18c:	95 96       	adiw	r26, 0x25	; 37
     18e:	97 98       	cbi	0x12, 7	; 18
     190:	99 9a       	sbi	0x13, 1	; 19
     192:	9b 9c       	mul	r9, r11
     194:	9d 2f       	mov	r25, r29
     196:	31 30       	cpi	r19, 0x01	; 1
     198:	a3 ad       	ldd	r26, Z+59	; 0x3b
     19a:	35 04       	cpc	r3, r5
     19c:	05 06       	cpc	r0, r21
     19e:	07 08       	sbc	r0, r7
     1a0:	09 0a       	sbc	r0, r25
     1a2:	0b 0c       	add	r0, r11
     1a4:	0d 0e       	add	r0, r29
     1a6:	0f 10       	cpse	r0, r15
     1a8:	11 12       	cpse	r1, r17
     1aa:	13 14       	cp	r1, r3
     1ac:	15 16       	cp	r1, r21
     1ae:	17 18       	sub	r1, r7
     1b0:	19 1a       	sub	r1, r25
     1b2:	1b 1c       	adc	r1, r11
     1b4:	1d af       	std	Y+61, r17	; 0x3d
     1b6:	b1 b0       	in	r11, 0x01	; 1
     1b8:	b5 00       	.word	0x00b5	; ????
     1ba:	50 41       	sbci	r21, 0x10	; 16
     1bc:	20 50       	subi	r18, 0x00	; 0
     1be:	6f 77       	andi	r22, 0x7F	; 127
     1c0:	65 72       	andi	r22, 0x25	; 37
     1c2:	09 20       	and	r0, r9
     1c4:	3d 20       	and	r3, r13
     1c6:	25 53       	subi	r18, 0x35	; 53
     1c8:	0d 0a       	sbc	r0, r29
     1ca:	00 43       	sbci	r16, 0x30	; 48
     1cc:	52 43       	sbci	r21, 0x32	; 50
     1ce:	20 4c       	sbci	r18, 0xC0	; 192
     1d0:	65 6e       	ori	r22, 0xE5	; 229
     1d2:	67 74       	andi	r22, 0x47	; 71
     1d4:	68 09       	sbc	r22, r8
     1d6:	20 3d       	cpi	r18, 0xD0	; 208
     1d8:	20 25       	eor	r18, r0
     1da:	53 0d       	add	r21, r3
     1dc:	0a 00       	.word	0x000a	; ????
     1de:	4d 6f       	ori	r20, 0xFD	; 253
     1e0:	64 65       	ori	r22, 0x54	; 84
     1e2:	6c 09       	sbc	r22, r12
     1e4:	09 20       	and	r0, r9
     1e6:	3d 20       	and	r3, r13
     1e8:	25 53       	subi	r18, 0x35	; 53
     1ea:	0d 0a       	sbc	r0, r29
     1ec:	00 44       	sbci	r16, 0x40	; 64
     1ee:	61 74       	andi	r22, 0x41	; 65
     1f0:	61 20       	and	r6, r1
     1f2:	52 61       	ori	r21, 0x12	; 18
     1f4:	74 65       	ori	r23, 0x54	; 84
     1f6:	09 20       	and	r0, r9
     1f8:	3d 20       	and	r3, r13
     1fa:	25 53       	subi	r18, 0x35	; 53
     1fc:	0d 0a       	sbc	r0, r29
     1fe:	00 44       	sbci	r16, 0x40	; 64
     200:	59 4e       	sbci	r21, 0xE9	; 233
     202:	50 44       	sbci	r21, 0x40	; 64
     204:	2f 46       	sbci	r18, 0x6F	; 111
     206:	45 41       	sbci	r20, 0x15	; 21
     208:	54 55       	subi	r21, 0x54	; 84
     20a:	52 45       	sbci	r21, 0x52	; 82
     20c:	00 43       	sbci	r16, 0x30	; 48
     20e:	4f 4e       	sbci	r20, 0xEF	; 239
     210:	46 49       	sbci	r20, 0x96	; 150
     212:	47 09       	sbc	r20, r7
     214:	00 52       	subi	r16, 0x20	; 32
     216:	46 5f       	subi	r20, 0xF6	; 246
     218:	53 45       	sbci	r21, 0x53	; 83
     21a:	54 55       	subi	r21, 0x54	; 84
     21c:	50 00       	.word	0x0050	; ????
     21e:	52 46       	sbci	r21, 0x62	; 98
     220:	5f 43       	sbci	r21, 0x3F	; 63
     222:	48 09       	sbc	r20, r8
     224:	00 45       	sbci	r16, 0x50	; 80
     226:	4e 5f       	subi	r20, 0xFE	; 254
     228:	52 58       	subi	r21, 0x82	; 130
     22a:	41 44       	sbci	r20, 0x41	; 65
     22c:	44 52       	subi	r20, 0x24	; 36
     22e:	00 45       	sbci	r16, 0x50	; 80
     230:	4e 5f       	subi	r20, 0xFE	; 254
     232:	41 41       	sbci	r20, 0x11	; 17
     234:	09 00       	.word	0x0009	; ????
     236:	52 58       	subi	r21, 0x82	; 130
     238:	5f 50       	subi	r21, 0x0F	; 15
     23a:	57 5f       	subi	r21, 0xF7	; 247
     23c:	50 30       	cpi	r21, 0x00	; 0
     23e:	2d 36       	cpi	r18, 0x6D	; 109
     240:	00 54       	subi	r16, 0x40	; 64
     242:	58 5f       	subi	r21, 0xF8	; 248
     244:	41 44       	sbci	r20, 0x41	; 65
     246:	44 52       	subi	r20, 0x24	; 36
     248:	09 00       	.word	0x0009	; ????
     24a:	52 58       	subi	r21, 0x82	; 130
     24c:	5f 41       	sbci	r21, 0x1F	; 31
     24e:	44 44       	sbci	r20, 0x44	; 68
     250:	52 5f       	subi	r21, 0xF2	; 242
     252:	50 32       	cpi	r21, 0x20	; 32
     254:	2d 35       	cpi	r18, 0x5D	; 93
     256:	00 52       	subi	r16, 0x20	; 32
     258:	58 5f       	subi	r21, 0xF8	; 248
     25a:	41 44       	sbci	r20, 0x41	; 65
     25c:	44 52       	subi	r20, 0x24	; 36
     25e:	5f 50       	subi	r21, 0x0F	; 15
     260:	30 2d       	mov	r19, r0
     262:	31 00       	.word	0x0031	; ????
     264:	0d 0a       	sbc	r0, r29
     266:	00 25       	eor	r16, r0
     268:	30 32       	cpi	r19, 0x20	; 32
     26a:	78 00       	.word	0x0078	; ????
     26c:	20 30       	cpi	r18, 0x00	; 0
     26e:	78 00       	.word	0x0078	; ????
     270:	25 53       	subi	r18, 0x35	; 53
     272:	09 20       	and	r0, r9
     274:	3d 00       	.word	0x003d	; ????
     276:	0d 0a       	sbc	r0, r29
     278:	00 20       	and	r0, r0
     27a:	30 78       	andi	r19, 0x80	; 128
     27c:	25 30       	cpi	r18, 0x05	; 5
     27e:	32 78       	andi	r19, 0x82	; 130
     280:	00 25       	eor	r16, r0
     282:	53 09       	sbc	r21, r3
     284:	20 3d       	cpi	r18, 0xD0	; 208
     286:	00 53       	subi	r16, 0x30	; 48
     288:	54 41       	sbci	r21, 0x14	; 20
     28a:	54 55       	subi	r21, 0x54	; 84
     28c:	53 09       	sbc	r21, r3
     28e:	09 20       	and	r0, r9
     290:	3d 20       	and	r3, r13
     292:	30 78       	andi	r19, 0x80	; 128
     294:	25 30       	cpi	r18, 0x05	; 5
     296:	32 78       	andi	r19, 0x82	; 130
     298:	20 52       	subi	r18, 0x20	; 32
     29a:	58 5f       	subi	r21, 0xF8	; 248
     29c:	44 52       	subi	r20, 0x24	; 36
     29e:	3d 25       	eor	r19, r13
     2a0:	78 20       	and	r7, r8
     2a2:	54 58       	subi	r21, 0x84	; 132
     2a4:	5f 44       	sbci	r21, 0x4F	; 79
     2a6:	53 3d       	cpi	r21, 0xD3	; 211
     2a8:	25 78       	andi	r18, 0x85	; 133
     2aa:	20 4d       	sbci	r18, 0xD0	; 208
     2ac:	41 58       	subi	r20, 0x81	; 129
     2ae:	5f 52       	subi	r21, 0x2F	; 47
     2b0:	54 3d       	cpi	r21, 0xD4	; 212
     2b2:	25 78       	andi	r18, 0x85	; 133
     2b4:	20 52       	subi	r18, 0x20	; 32
     2b6:	58 5f       	subi	r21, 0xF8	; 248
     2b8:	50 5f       	subi	r21, 0xF0	; 240
     2ba:	4e 4f       	sbci	r20, 0xFE	; 254
     2bc:	3d 25       	eor	r19, r13
     2be:	78 20       	and	r7, r8
     2c0:	54 58       	subi	r21, 0x84	; 132
     2c2:	5f 46       	sbci	r21, 0x6F	; 111
     2c4:	55 4c       	sbci	r21, 0xC5	; 197
     2c6:	4c 3d       	cpi	r20, 0xDC	; 220
     2c8:	25 78       	andi	r18, 0x85	; 133
     2ca:	0d 0a       	sbc	r0, r29
     2cc:	00 11       	cpse	r16, r0
     2ce:	12 13       	cpse	r17, r18
     2d0:	14 15       	cp	r17, r4
     2d2:	16 0a       	sbc	r1, r22
     2d4:	0b 0c       	add	r0, r11
     2d6:	0d 0e       	add	r0, r29
     2d8:	0f 00       	.word	0x000f	; ????
     2da:	01 02       	muls	r16, r17
     2dc:	03 04       	cpc	r0, r3
     2de:	05 fd       	sbrc	r16, 5
     2e0:	02 f6       	brpl	.-128    	;  0x262
     2e2:	02 ee       	ldi	r16, 0xE2	; 226
     2e4:	02 e7       	ldi	r16, 0x72	; 114
     2e6:	02 50       	subi	r16, 0x02	; 2
     2e8:	41 5f       	subi	r20, 0xF1	; 241
     2ea:	4d 41       	sbci	r20, 0x1D	; 29
     2ec:	58 00       	.word	0x0058	; ????
     2ee:	50 41       	sbci	r21, 0x10	; 16
     2f0:	5f 48       	sbci	r21, 0x8F	; 143
     2f2:	49 47       	sbci	r20, 0x79	; 121
     2f4:	48 00       	.word	0x0048	; ????
     2f6:	50 41       	sbci	r21, 0x10	; 16
     2f8:	5f 4c       	sbci	r21, 0xCF	; 207
     2fa:	4f 57       	subi	r20, 0x7F	; 127
     2fc:	00 50       	subi	r16, 0x00	; 0
     2fe:	41 5f       	subi	r20, 0xF1	; 241
     300:	4d 49       	sbci	r20, 0x9D	; 157
     302:	4e 00       	.word	0x004e	; ????
     304:	19 03       	fmul	r17, r17
     306:	12 03       	mulsu	r17, r18
     308:	0a 03       	fmul	r16, r18
     30a:	31 36       	cpi	r19, 0x61	; 97
     30c:	20 62       	ori	r18, 0x20	; 32
     30e:	69 74       	andi	r22, 0x49	; 73
     310:	73 00       	.word	0x0073	; ????
     312:	38 20       	and	r3, r8
     314:	62 69       	ori	r22, 0x92	; 146
     316:	74 73       	andi	r23, 0x34	; 52
     318:	00 44       	sbci	r16, 0x40	; 64
     31a:	69 73       	andi	r22, 0x39	; 57
     31c:	61 62       	ori	r22, 0x21	; 33
     31e:	6c 65       	ori	r22, 0x5C	; 92
     320:	64 00       	.word	0x0064	; ????
     322:	30 03       	mulsu	r19, r16
     324:	26 03       	mulsu	r18, r22
     326:	6e 52       	subi	r22, 0x2E	; 46
     328:	46 32       	cpi	r20, 0x26	; 38
     32a:	34 4c       	sbci	r19, 0xC4	; 196
     32c:	30 31       	cpi	r19, 0x10	; 16
     32e:	2b 00       	.word	0x002b	; ????
     330:	6e 52       	subi	r22, 0x2E	; 46
     332:	46 32       	cpi	r20, 0x26	; 38
     334:	34 4c       	sbci	r19, 0xC4	; 196
     336:	30 31       	cpi	r19, 0x10	; 16
     338:	00 4d       	sbci	r16, 0xD0	; 208
     33a:	03 47       	sbci	r16, 0x73	; 115
     33c:	03 3f       	cpi	r16, 0xF3	; 243
     33e:	03 32       	cpi	r16, 0x23	; 35
     340:	35 30       	cpi	r19, 0x05	; 5
     342:	4b 42       	sbci	r20, 0x2B	; 43
     344:	50 53       	subi	r21, 0x30	; 48
     346:	00 32       	cpi	r16, 0x20	; 32
     348:	4d 42       	sbci	r20, 0x2D	; 45
     34a:	50 53       	subi	r21, 0x30	; 48
     34c:	00 31       	cpi	r16, 0x10	; 16
     34e:	4d 42       	sbci	r20, 0x2D	; 45
     350:	50 53       	subi	r21, 0x30	; 48
     352:	00 2d       	mov	r16, r0
     354:	46 41       	sbci	r20, 0x16	; 22
     356:	49 4c       	sbci	r20, 0xC9	; 201
     358:	2d 00       	.word	0x002d	; ????
     35a:	08 0b       	sbc	r16, r24
     35c:	00 02       	muls	r16, r16
     35e:	02 02       	muls	r16, r18
     360:	01 00       	.word	0x0001	; ????
     362:	09 04       	cpc	r0, r9
     364:	00 00       	nop
     366:	01 02       	muls	r16, r17
     368:	02 00       	.word	0x0002	; ????
     36a:	00 05       	cpc	r16, r0
     36c:	24 00       	.word	0x0024	; ????
     36e:	10 01       	movw	r2, r0
     370:	05 24       	eor	r0, r5
     372:	01 01       	movw	r0, r2
     374:	01 04       	cpc	r0, r1
     376:	24 02       	muls	r18, r20
     378:	06 05       	cpc	r16, r6
     37a:	24 06       	cpc	r2, r20
     37c:	00 01       	movw	r0, r0
     37e:	07 05       	cpc	r16, r7
     380:	81 03       	fmuls	r16, r17
     382:	10 00       	.word	0x0010	; ????
     384:	40 09       	sbc	r20, r0
     386:	04 01       	movw	r0, r8
     388:	00 02       	muls	r16, r16
     38a:	0a 00       	.word	0x000a	; ????
     38c:	00 00       	nop
     38e:	07 05       	cpc	r16, r7
     390:	02 02       	muls	r16, r18
     392:	40 00       	.word	0x0040	; ????
     394:	00 07       	cpc	r16, r16
     396:	05 83       	std	Z+5, r16	; 0x05
     398:	02 40       	sbci	r16, 0x02	; 2
     39a:	00 00       	nop
     39c:	12 01       	movw	r2, r4
     39e:	00 02       	muls	r16, r16
     3a0:	ef 02       	muls	r30, r31
     3a2:	01 40       	sbci	r16, 0x01	; 1
     3a4:	4f 1b       	sub	r20, r31
     3a6:	06 92       	lac	Z, r0
     3a8:	00 01       	movw	r0, r0
     3aa:	01 02       	muls	r16, r17
     3ac:	03 01       	movw	r0, r6
     3ae:	12 01       	movw	r2, r4
     3b0:	00 02       	muls	r16, r16
     3b2:	00 00       	nop
     3b4:	00 40       	sbci	r16, 0x00	; 0
     3b6:	4f 1b       	sub	r20, r31
     3b8:	06 92       	lac	Z, r0
     3ba:	00 01       	movw	r0, r0
     3bc:	01 02       	muls	r16, r17
     3be:	03 01       	movw	r0, r6
     3c0:	53 70       	andi	r21, 0x03	; 3
     3c2:	61 72       	andi	r22, 0x21	; 33
     3c4:	6b 46       	sbci	r22, 0x6B	; 107
     3c6:	75 6e       	ori	r23, 0xE5	; 229
     3c8:	00 55       	subi	r16, 0x50	; 80
     3ca:	53 42       	sbci	r21, 0x23	; 35
     3cc:	20 49       	sbci	r18, 0x90	; 144
     3ce:	4f 20       	and	r4, r15
     3d0:	42 6f       	ori	r20, 0xF2	; 242
     3d2:	61 72       	andi	r22, 0x21	; 33
     3d4:	64 00       	.word	0x0064	; ????
     3d6:	04 03       	mulsu	r16, r20
     3d8:	09 04       	cpc	r0, r9
     3da:	00 00       	nop
     3dc:	00 02       	muls	r16, r16
     3de:	00 09       	sbc	r16, r0
     3e0:	0f 00       	.word	0x000f	; ????
     3e2:	00 03       	mulsu	r16, r16
     3e4:	04 01       	movw	r0, r8
     3e6:	00 0c       	add	r0, r0
	...
     3f8:	04 08       	sbc	r0, r4
     3fa:	02 01       	movw	r0, r4
     3fc:	10 40       	sbci	r17, 0x00	; 0
     3fe:	80 40       	sbci	r24, 0x00	; 0
     400:	10 20       	and	r1, r0
     402:	40 80       	ld	r4, Z
     404:	40 80       	ld	r4, Z
     406:	08 02       	muls	r16, r24
     408:	04 01       	movw	r0, r8
     40a:	80 40       	sbci	r24, 0x00	; 0
     40c:	20 10       	cpse	r2, r0
     40e:	02 01       	movw	r0, r4
     410:	10 80       	ld	r1, Z
     412:	10 20       	and	r1, r0
     414:	40 40       	sbci	r20, 0x00	; 0
     416:	20 04       	cpc	r2, r0
     418:	04 04       	cpc	r0, r4
     41a:	04 04       	cpc	r0, r4
     41c:	03 04       	cpc	r0, r3
     41e:	05 02       	muls	r16, r21
     420:	02 02       	muls	r16, r18
     422:	02 04       	cpc	r0, r2
     424:	03 02       	muls	r16, r19
     426:	02 02       	muls	r16, r18
     428:	02 06       	cpc	r0, r18
     42a:	06 06       	cpc	r0, r22
     42c:	06 06       	cpc	r0, r22
     42e:	06 04       	cpc	r0, r6
     430:	04 02       	muls	r16, r20
     432:	02 02       	muls	r16, r18
     434:	04 04       	cpc	r0, r4
     436:	00 00       	nop
     438:	00 00       	nop
     43a:	23 00       	.word	0x0023	; ????
     43c:	26 00       	.word	0x0026	; ????
     43e:	29 00       	.word	0x0029	; ????
     440:	2c 00       	.word	0x002c	; ????
     442:	2f 00       	.word	0x002f	; ????
     444:	00 00       	nop
     446:	00 00       	nop
     448:	25 00       	.word	0x0025	; ????
     44a:	28 00       	.word	0x0028	; ????
     44c:	2b 00       	.word	0x002b	; ????
     44e:	2e 00       	.word	0x002e	; ????
     450:	31 00       	.word	0x0031	; ????
     452:	00 00       	nop
     454:	00 00       	nop
     456:	24 00       	.word	0x0024	; ????
     458:	27 00       	.word	0x0027	; ????
     45a:	2a 00       	.word	0x002a	; ????
     45c:	2d 00       	.word	0x002d	; ????
     45e:	30 00       	.word	0x0030	; ????
     460:	20 52       	subi	r18, 0x20	; 32
     462:	65 6c       	ori	r22, 0xC5	; 197
     464:	65 61       	ori	r22, 0x15	; 21
     466:	73 65       	ori	r23, 0x53	; 83
     468:	64 00       	.word	0x0064	; ????
     46a:	43 6c       	ori	r20, 0xC3	; 195
     46c:	69 63       	ori	r22, 0x39	; 57
     46e:	6b 20       	and	r6, r11
     470:	72 69       	ori	r23, 0x92	; 146
     472:	67 68       	ori	r22, 0x87	; 135
     474:	74 00       	.word	0x0074	; ????
     476:	43 6c       	ori	r20, 0xC3	; 195
     478:	69 63       	ori	r22, 0x39	; 57
     47a:	6b 20       	and	r6, r11
     47c:	6c 65       	ori	r22, 0x5C	; 92
     47e:	66 74       	andi	r22, 0x46	; 70
     480:	00 4d       	sbci	r16, 0xD0	; 208
     482:	6f 75       	andi	r22, 0x5F	; 95
     484:	73 65       	ori	r23, 0x53	; 83
     486:	20 72       	andi	r18, 0x20	; 32
     488:	69 67       	ori	r22, 0x79	; 121
     48a:	68 74       	andi	r22, 0x48	; 72
     48c:	00 4d       	sbci	r16, 0xD0	; 208
     48e:	6f 75       	andi	r22, 0x5F	; 95
     490:	73 65       	ori	r23, 0x53	; 83
     492:	20 6c       	ori	r18, 0xC0	; 192
     494:	65 66       	ori	r22, 0x65	; 101
     496:	74 00       	.word	0x0074	; ????
     498:	4d 6f       	ori	r20, 0xFD	; 253
     49a:	75 73       	andi	r23, 0x35	; 53
     49c:	65 20       	and	r6, r5
     49e:	64 6f       	ori	r22, 0xF4	; 244
     4a0:	77 6e       	ori	r23, 0xE7	; 231
     4a2:	00 4d       	sbci	r16, 0xD0	; 208
     4a4:	6f 75       	andi	r22, 0x5F	; 95
     4a6:	73 65       	ori	r23, 0x53	; 83
     4a8:	20 75       	andi	r18, 0x50	; 80
     4aa:	70 00       	.word	0x0070	; ????
     4ac:	20 50       	subi	r18, 0x00	; 0
     4ae:	72 65       	ori	r23, 0x52	; 82
     4b0:	73 73       	andi	r23, 0x33	; 51
     4b2:	65 64       	ori	r22, 0x45	; 69
     4b4:	00 20       	and	r0, r0
     4b6:	72 65       	ori	r23, 0x52	; 82
     4b8:	63 65       	ori	r22, 0x53	; 83
     4ba:	69 76       	andi	r22, 0x69	; 105
     4bc:	65 64       	ori	r22, 0x45	; 69
     4be:	00 41       	sbci	r16, 0x10	; 16
     4c0:	3a 3a       	cpi	r19, 0xAA	; 170
     4c2:	20 00       	.word	0x0020	; ????
     4c4:	41 3a       	cpi	r20, 0xA1	; 161
     4c6:	20 4b       	sbci	r18, 0xB0	; 176
     4c8:	65 79       	andi	r22, 0x95	; 149
     4ca:	3a 20       	and	r3, r10
     4cc:	00 4e       	sbci	r16, 0xE0	; 224
     4ce:	6f 20       	and	r6, r15
     4d0:	72 61       	ori	r23, 0x12	; 18
     4d2:	64 69       	ori	r22, 0x94	; 148
     4d4:	6f 20       	and	r6, r15
     4d6:	6c 69       	ori	r22, 0x9C	; 156
     4d8:	6e 6b       	ori	r22, 0xBE	; 190
     4da:	2e 00       	.word	0x002e	; ????
     4dc:	65 6e       	ori	r22, 0xE5	; 229
     4de:	61 62       	ori	r22, 0x21	; 33
     4e0:	6c 65       	ori	r22, 0x5C	; 92
     4e2:	64 00       	.word	0x0064	; ????
     4e4:	4d 6f       	ori	r20, 0xFD	; 253
     4e6:	75 73       	andi	r23, 0x35	; 53
     4e8:	65 20       	and	r6, r5
     4ea:	6d 6f       	ori	r22, 0xFD	; 253
     4ec:	64 65       	ori	r22, 0x54	; 84
     4ee:	00 65       	ori	r16, 0x50	; 80
     4f0:	6e 61       	ori	r22, 0x1E	; 30
     4f2:	62 6c       	ori	r22, 0xC2	; 194
     4f4:	65 64       	ori	r22, 0x45	; 69
     4f6:	00 4b       	sbci	r16, 0xB0	; 176
     4f8:	65 79       	andi	r22, 0x95	; 149
     4fa:	62 6f       	ori	r22, 0xF2	; 242
     4fc:	61 72       	andi	r22, 0x21	; 33
     4fe:	64 20       	and	r6, r4
     500:	6d 6f       	ori	r22, 0xFD	; 253
     502:	64 65       	ori	r22, 0x54	; 84
     504:	00 43       	sbci	r16, 0x30	; 48
     506:	54 52       	subi	r21, 0x24	; 36
     508:	4c 2b       	or	r20, r28
     50a:	41 4c       	sbci	r20, 0xC1	; 193
     50c:	54 2b       	or	r21, r20
     50e:	44 45       	sbci	r20, 0x54	; 84
     510:	4c 45       	sbci	r20, 0x5C	; 92
     512:	54 45       	sbci	r21, 0x54	; 84
     514:	00 53       	subi	r16, 0x30	; 48
     516:	65 6e       	ori	r22, 0xE5	; 229
     518:	74 00       	.word	0x0074	; ????
     51a:	53 65       	ori	r21, 0x53	; 83
     51c:	6e 64       	ori	r22, 0x4E	; 78
     51e:	69 6e       	ori	r22, 0xE9	; 233
     520:	67 20       	and	r6, r7
     522:	66 61       	ori	r22, 0x16	; 22
     524:	69 6c       	ori	r22, 0xC9	; 201
     526:	65 64       	ori	r22, 0x45	; 69
     528:	2e 00       	.word	0x002e	; ????
     52a:	47 6f       	ori	r20, 0xF7	; 247
     52c:	74 20       	and	r7, r4
     52e:	72 65       	ori	r23, 0x52	; 82
     530:	73 70       	andi	r23, 0x03	; 3
     532:	6f 6e       	ori	r22, 0xEF	; 239
     534:	73 65       	ori	r23, 0x53	; 83
     536:	3a 20       	and	r3, r10
     538:	00 46       	sbci	r16, 0x60	; 96
     53a:	61 69       	ori	r22, 0x91	; 145
     53c:	6c 65       	ori	r22, 0x5C	; 92
     53e:	64 2c       	mov	r6, r4
     540:	20 72       	andi	r18, 0x20	; 32
     542:	65 73       	andi	r22, 0x35	; 53
     544:	70 6f       	ori	r23, 0xF0	; 240
     546:	6e 73       	andi	r22, 0x3E	; 62
     548:	65 20       	and	r6, r5
     54a:	74 69       	ori	r23, 0x94	; 148
     54c:	6d 65       	ori	r22, 0x5D	; 93
     54e:	64 20       	and	r6, r4
     550:	6f 75       	andi	r22, 0x5F	; 95
     552:	74 2e       	mov	r7, r20
     554:	00 53       	subi	r16, 0x30	; 48
     556:	65 6e       	ori	r22, 0xE5	; 229
     558:	74 20       	and	r7, r4
     55a:	64 61       	ori	r22, 0x14	; 20
     55c:	74 61       	ori	r23, 0x14	; 20
     55e:	20 6d       	ori	r18, 0xD0	; 208
     560:	61 79       	andi	r22, 0x91	; 145
     562:	62 65       	ori	r22, 0x52	; 82
     564:	00 53       	subi	r16, 0x30	; 48
     566:	65 6e       	ori	r22, 0xE5	; 229
     568:	64 69       	ori	r22, 0x94	; 148
     56a:	6e 67       	ori	r22, 0x7E	; 126
     56c:	20 64       	ori	r18, 0x40	; 64
     56e:	61 74       	andi	r22, 0x41	; 65
     570:	61 00       	.word	0x0061	; ????
     572:	53 79       	andi	r21, 0x93	; 147
     574:	73 74       	andi	r23, 0x43	; 67
     576:	65 6d       	ori	r22, 0xD5	; 213
     578:	20 72       	andi	r18, 0x20	; 32
     57a:	65 61       	ori	r22, 0x15	; 21
     57c:	64 79       	andi	r22, 0x94	; 148
     57e:	21 21       	and	r18, r1
     580:	00 3a       	cpi	r16, 0xA0	; 160
     582:	00 6f       	ori	r16, 0xF0	; 240
     584:	72 20       	and	r7, r2
     586:	77 61       	ori	r23, 0x17	; 23
     588:	69 74       	andi	r22, 0x49	; 73
     58a:	20 74       	andi	r18, 0x40	; 64
     58c:	65 6e       	ori	r22, 0xE5	; 229
     58e:	20 73       	andi	r18, 0x30	; 48
     590:	65 63       	ori	r22, 0x35	; 53
     592:	6f 6e       	ori	r22, 0xEF	; 239
     594:	64 73       	andi	r22, 0x34	; 52
     596:	00 50       	subi	r16, 0x00	; 0
     598:	72 65       	ori	r23, 0x52	; 82
     59a:	73 73       	andi	r23, 0x33	; 51
     59c:	20 61       	ori	r18, 0x10	; 16
     59e:	20 6b       	ori	r18, 0xB0	; 176
     5a0:	65 79       	andi	r22, 0x95	; 149
     5a2:	20 74       	andi	r18, 0x40	; 64
     5a4:	6f 20       	and	r6, r15
     5a6:	62 65       	ori	r22, 0x52	; 82
     5a8:	67 69       	ori	r22, 0x97	; 151
     5aa:	6e 00       	.word	0x006e	; ????
     5ac:	45 6e       	ori	r20, 0xE5	; 229
     5ae:	63 72       	andi	r22, 0x23	; 35
     5b0:	79 70       	andi	r23, 0x09	; 9
     5b2:	74 65       	ori	r23, 0x54	; 84
     5b4:	64 20       	and	r6, r4
     5b6:	64 61       	ori	r22, 0x14	; 20
     5b8:	74 61       	ori	r23, 0x14	; 20
     5ba:	3a 00       	.word	0x003a	; ????
     5bc:	45 6e       	ori	r20, 0xE5	; 229
     5be:	63 72       	andi	r22, 0x23	; 35
     5c0:	79 70       	andi	r23, 0x09	; 9
     5c2:	74 65       	ori	r23, 0x54	; 84
     5c4:	64 20       	and	r6, r4
     5c6:	6c 65       	ori	r22, 0x5C	; 92
     5c8:	6e 67       	ori	r22, 0x7E	; 126
     5ca:	74 68       	ori	r23, 0x84	; 132
     5cc:	3a 00       	.word	0x003a	; ????
     5ce:	52 61       	ori	r21, 0x12	; 18
     5d0:	74 65       	ori	r23, 0x54	; 84
     5d2:	20 69       	ori	r18, 0x90	; 144
     5d4:	73 3a       	cpi	r23, 0xA3	; 163
     5d6:	20 00       	.word	0x0020	; ????
     5d8:	50 6f       	ori	r21, 0xF0	; 240
     5da:	77 65       	ori	r23, 0x57	; 87
     5dc:	72 20       	and	r7, r2
     5de:	69 73       	andi	r22, 0x39	; 57
     5e0:	3a 20       	and	r3, r10
     5e2:	00 43       	sbci	r16, 0x30	; 48
     5e4:	68 61       	ori	r22, 0x18	; 24
     5e6:	6e 6e       	ori	r22, 0xEE	; 238
     5e8:	65 6c       	ori	r22, 0xC5	; 197
     5ea:	20 69       	ori	r18, 0x90	; 144
     5ec:	73 3a       	cpi	r23, 0xA3	; 163
     5ee:	20 00       	.word	0x0020	; ????
     5f0:	43 68       	ori	r20, 0x83	; 131
     5f2:	65 63       	ori	r22, 0x35	; 53
     5f4:	6b 69       	ori	r22, 0x9B	; 155
     5f6:	6e 67       	ori	r22, 0x7E	; 126
     5f8:	20 74       	andi	r18, 0x40	; 64
     5fa:	68 65       	ori	r22, 0x58	; 88
     5fc:	20 72       	andi	r18, 0x20	; 32
     5fe:	61 64       	ori	r22, 0x41	; 65
     600:	69 6f       	ori	r22, 0xF9	; 249
     602:	00 53       	subi	r16, 0x30	; 48
     604:	65 74       	andi	r22, 0x45	; 69
     606:	75 70       	andi	r23, 0x05	; 5
     608:	20 69       	ori	r18, 0x90	; 144
     60a:	73 3a       	cpi	r23, 0xA3	; 163
     60c:	20 00       	.word	0x0020	; ????
     60e:	2a 2a       	or	r2, r26
     610:	52 61       	ori	r21, 0x12	; 18
     612:	64 69       	ori	r22, 0x94	; 148
     614:	6f 20       	and	r6, r15
     616:	63 68       	ori	r22, 0x83	; 131
     618:	65 63       	ori	r22, 0x35	; 53
     61a:	6b 21       	and	r22, r11
     61c:	2a 2a       	or	r2, r26
     61e:	00 43       	sbci	r16, 0x30	; 48
     620:	72 79       	andi	r23, 0x92	; 146
     622:	70 74       	andi	r23, 0x40	; 64
     624:	20 50       	subi	r18, 0x00	; 0
     626:	61 73       	andi	r22, 0x31	; 49
     628:	73 77       	andi	r23, 0x73	; 115
     62a:	6f 72       	andi	r22, 0x2F	; 47
     62c:	64 00       	.word	0x0064	; ????
     62e:	00 01       	movw	r0, r0
     630:	32 46       	sbci	r19, 0x62	; 98
     632:	47 64       	ori	r20, 0x47	; 71
     634:	28 07       	cpc	r18, r24
     636:	08 09       	sbc	r16, r8
     638:	0a 0b       	sbc	r16, r26
     63a:	0c 0d       	add	r16, r12
     63c:	0e 0f       	add	r16, r30
     63e:	10 11       	cpse	r17, r0
     640:	12 13       	cpse	r17, r18
     642:	14 15       	cp	r17, r4
     644:	16 17       	cp	r17, r22
     646:	18 19       	sub	r17, r8
     648:	1a 1b       	sub	r17, r26
     64a:	1c 1d       	adc	r17, r12
     64c:	1e 1f       	adc	r17, r30
     64e:	2c 21       	and	r18, r12
     650:	22 23       	and	r18, r18
     652:	24 25       	eor	r18, r4
     654:	26 34       	cpi	r18, 0x46	; 70
     656:	28 29       	or	r18, r8
     658:	2a 2b       	or	r18, r26
     65a:	36 2d       	mov	r19, r6
     65c:	37 38       	cpi	r19, 0x87	; 135
     65e:	27 1e       	adc	r2, r23
     660:	1f 20       	and	r1, r15
     662:	21 22       	and	r2, r17
     664:	23 24       	eor	r2, r3
     666:	25 26       	eor	r2, r21
     668:	3a 33       	cpi	r19, 0x3A	; 58
     66a:	3c 2e       	mov	r3, r28
     66c:	3e 3f       	cpi	r19, 0xFE	; 254
     66e:	40 41       	sbci	r20, 0x10	; 16
     670:	42 43       	sbci	r20, 0x32	; 50
     672:	44 45       	sbci	r20, 0x54	; 84
     674:	46 47       	sbci	r20, 0x76	; 118
     676:	48 49       	sbci	r20, 0x98	; 152
     678:	4a 4b       	sbci	r20, 0xBA	; 186
     67a:	4c 4d       	sbci	r20, 0xDC	; 220
     67c:	4e 4f       	sbci	r20, 0xFE	; 254
     67e:	50 51       	subi	r21, 0x10	; 16
     680:	52 53       	subi	r21, 0x32	; 50
     682:	54 55       	subi	r21, 0x54	; 84
     684:	56 57       	subi	r21, 0x76	; 118
     686:	58 59       	subi	r21, 0x98	; 152
     688:	5a 2f       	mov	r21, r26
     68a:	31 30       	cpi	r19, 0x01	; 1
     68c:	5e 5f       	subi	r21, 0xFE	; 254
     68e:	35 04       	cpc	r3, r5
     690:	05 06       	cpc	r0, r21
     692:	07 08       	sbc	r0, r7
     694:	09 0a       	sbc	r0, r25
     696:	0b 0c       	add	r0, r11
     698:	0d 0e       	add	r0, r29
     69a:	0f 10       	cpse	r0, r15
     69c:	11 12       	cpse	r1, r17
     69e:	13 14       	cp	r1, r3
     6a0:	15 16       	cp	r1, r21
     6a2:	17 18       	sub	r1, r7
     6a4:	19 1a       	sub	r1, r25
     6a6:	1b 1c       	adc	r1, r11
     6a8:	1d 7b       	andi	r17, 0xBD	; 189
     6aa:	7c 7d       	andi	r23, 0xDC	; 220
     6ac:	7e 7f       	andi	r23, 0xFE	; 254
     6ae:	e0 e1       	ldi	r30, 0x10	; 16
     6b0:	e2 e3       	ldi	r30, 0x32	; 50
     6b2:	e4 e5       	ldi	r30, 0x54	; 84
     6b4:	e6 e7       	ldi	r30, 0x76	; 118
     6b6:	88 89       	ldd	r24, Y+16	; 0x10
     6b8:	8a 8b       	std	Y+18, r24	; 0x12
     6ba:	8c 8d       	ldd	r24, Y+28	; 0x1c
     6bc:	8e 8f       	std	Y+30, r24	; 0x1e
     6be:	90 91 92 93 	lds	r25, 0x9392
     6c2:	94 95       	.word	0x9594	; ????
     6c4:	96 97       	sbiw	r26, 0x26	; 38
     6c6:	98 99       	sbic	0x13, 0	; 19
     6c8:	9a 9b       	sbis	0x13, 2	; 19
     6ca:	9c 9d       	mul	r25, r12
     6cc:	9e 9f       	mul	r25, r30
     6ce:	a0 a1       	ldd	r26, Z+32	; 0x20
     6d0:	a2 a3       	std	Z+34, r26	; 0x22
     6d2:	a4 a5       	ldd	r26, Z+44	; 0x2c
     6d4:	a6 a7       	std	Z+46, r26	; 0x2e
     6d6:	a8 a9       	ldd	r26, Y+48	; 0x30
     6d8:	aa ab       	std	Y+50, r26	; 0x32
     6da:	ac ad       	ldd	r26, Y+60	; 0x3c
     6dc:	ae af       	std	Y+62, r26	; 0x3e
     6de:	28 29       	or	r18, r8
     6e0:	2a 2b       	or	r18, r26
     6e2:	b4 b5       	in	r27, 0x24	; 36
     6e4:	b6 b7       	in	r27, 0x36	; 54
     6e6:	b8 b9       	out	0x08, r27	; 8
     6e8:	ba bb       	out	0x1a, r27	; 26
     6ea:	bc bd       	out	0x2c, r27	; 44
     6ec:	be bf       	out	0x3e, r27	; 62
     6ee:	c0 39       	cpi	r28, 0x90	; 144
     6f0:	3a 3b       	cpi	r19, 0xBA	; 186
     6f2:	3c 3d       	cpi	r19, 0xDC	; 220
     6f4:	3e 3f       	cpi	r19, 0xFE	; 254
     6f6:	40 41       	sbci	r20, 0x10	; 16
     6f8:	42 43       	sbci	r20, 0x32	; 50
     6fa:	44 45       	sbci	r20, 0x54	; 84
     6fc:	ce cf       	rjmp	.-100    	;  0x69a
     6fe:	d0 d1       	rcall	.+928    	;  0xaa0
     700:	4a 4b       	sbci	r20, 0xBA	; 186
     702:	4c 4d       	sbci	r20, 0xDC	; 220
     704:	4e 4f       	sbci	r20, 0xFE	; 254
     706:	50 51       	subi	r21, 0x10	; 16
     708:	52 db       	rcall	.-2396   	;  0xfffffdae
     70a:	dc dd       	rcall	.-1096   	;  0x2c4
     70c:	de df       	rcall	.-68     	;  0x6ca
     70e:	e0 e1       	ldi	r30, 0x10	; 16
     710:	e2 e3       	ldi	r30, 0x32	; 50
     712:	e4 e5       	ldi	r30, 0x54	; 84
     714:	e6 e7       	ldi	r30, 0x76	; 118
     716:	e8 e9       	ldi	r30, 0x98	; 152
     718:	ea eb       	ldi	r30, 0xBA	; 186
     71a:	ec ed       	ldi	r30, 0xDC	; 220
     71c:	ee ef       	ldi	r30, 0xFE	; 254
     71e:	f0 f1       	brcs	.+124    	;  0x79c
     720:	f2 f3       	brmi	.-4      	;  0x71e
     722:	f4 f5       	brge	.+124    	;  0x7a0
     724:	f6 f7       	brtc	.-4      	;  0x722
     726:	f8 f9       	.word	0xf9f8	; ????
     728:	fa fb       	.word	0xfbfa	; ????
     72a:	fc fd       	.word	0xfdfc	; ????
     72c:	fe ff       	.word	0xfffe	; ????
     72e:	fe 03       	fmulsu	r23, r22
     730:	ae 05       	cpc	r26, r14
     732:	5d 14       	cp	r5, r13
     734:	4d 15       	cp	r20, r13
     736:	8a 16       	cp	r8, r26
     738:	43 18       	sub	r4, r3
     73a:	3e 28       	or	r3, r14
     73c:	b3 2a       	or	r11, r19
     73e:	e3 2a       	or	r14, r19
     740:	11 24       	eor	r1, r1
     742:	1f be       	out	0x3f, r1	; 63
     744:	cf ef       	ldi	r28, 0xFF	; 255
     746:	da e0       	ldi	r29, 0x0A	; 10
     748:	de bf       	out	0x3e, r29	; 62
     74a:	cd bf       	out	0x3d, r28	; 61
     74c:	12 e0       	ldi	r17, 0x02	; 2
     74e:	a0 e0       	ldi	r26, 0x00	; 0
     750:	b1 e0       	ldi	r27, 0x01	; 1
     752:	e0 e8       	ldi	r30, 0x80	; 128
     754:	fd e6       	ldi	r31, 0x6D	; 109
     756:	02 c0       	rjmp	.+4      	;  0x75c
     758:	05 90       	lpm	r0, Z+
     75a:	0d 92       	st	X+, r0
     75c:	a4 32       	cpi	r26, 0x24	; 36
     75e:	b1 07       	cpc	r27, r17
     760:	d9 f7       	brne	.-10     	;  0x758
     762:	16 e0       	ldi	r17, 0x06	; 6
     764:	a4 e2       	ldi	r26, 0x24	; 36
     766:	b2 e0       	ldi	r27, 0x02	; 2
     768:	01 c0       	rjmp	.+2      	;  0x76c
     76a:	1d 92       	st	X+, r1
     76c:	a4 3d       	cpi	r26, 0xD4	; 212
     76e:	b1 07       	cpc	r27, r17
     770:	e1 f7       	brne	.-8      	;  0x76a
     772:	13 e0       	ldi	r17, 0x03	; 3
     774:	cf e9       	ldi	r28, 0x9F	; 159
     776:	d3 e0       	ldi	r29, 0x03	; 3
     778:	04 c0       	rjmp	.+8      	;  0x782
     77a:	21 97       	sbiw	r28, 0x01	; 1
     77c:	fe 01       	movw	r30, r28
     77e:	0e 94 fb 30 	call	0x61f6	;  0x61f6
     782:	c7 39       	cpi	r28, 0x97	; 151
     784:	d1 07       	cpc	r29, r17
     786:	c9 f7       	brne	.-14     	;  0x77a
     788:	0e 94 4f 18 	call	0x309e	;  0x309e
     78c:	0c 94 b3 36 	jmp	0x6d66	;  0x6d66
     790:	0c 94 00 00 	jmp	0	;  0x0
     794:	0f 93       	push	r16
     796:	1f 93       	push	r17
     798:	cf 93       	push	r28
     79a:	df 93       	push	r29
     79c:	eb 01       	movw	r28, r22
     79e:	8a 01       	movw	r16, r20
     7a0:	0e 94 f3 17 	call	0x2fe6	;  0x2fe6
     7a4:	98 01       	movw	r18, r16
     7a6:	ae 01       	movw	r20, r28
     7a8:	61 e0       	ldi	r22, 0x01	; 1
     7aa:	df 91       	pop	r29
     7ac:	cf 91       	pop	r28
     7ae:	1f 91       	pop	r17
     7b0:	0f 91       	pop	r16
     7b2:	0c 94 9f 17 	jmp	0x2f3e	;  0x2f3e
     7b6:	fc 01       	movw	r30, r24
     7b8:	12 82       	std	Z+2, r1	; 0x02
     7ba:	28 e3       	ldi	r18, 0x38	; 56
     7bc:	31 e0       	ldi	r19, 0x01	; 1
     7be:	31 83       	std	Z+1, r19	; 0x01
     7c0:	20 83       	st	Z, r18
     7c2:	80 91 2d 02 	lds	r24, 0x022D
     7c6:	81 11       	cpse	r24, r1
     7c8:	13 c0       	rjmp	.+38     	;  0x7f0
     7ca:	10 92 25 02 	sts	0x0225, r1
     7ce:	10 92 24 02 	sts	0x0224, r1
     7d2:	8a ec       	ldi	r24, 0xCA	; 202
     7d4:	90 e0       	ldi	r25, 0x00	; 0
     7d6:	90 93 27 02 	sts	0x0227, r25
     7da:	80 93 26 02 	sts	0x0226, r24
     7de:	8b e2       	ldi	r24, 0x2B	; 43
     7e0:	90 e0       	ldi	r25, 0x00	; 0
     7e2:	90 93 29 02 	sts	0x0229, r25
     7e6:	80 93 28 02 	sts	0x0228, r24
     7ea:	81 e0       	ldi	r24, 0x01	; 1
     7ec:	80 93 2d 02 	sts	0x022D, r24
     7f0:	0e 94 f3 17 	call	0x2fe6	;  0x2fe6
     7f4:	64 e2       	ldi	r22, 0x24	; 36
     7f6:	72 e0       	ldi	r23, 0x02	; 2
     7f8:	0c 94 82 17 	jmp	0x2f04	;  0x2f04
     7fc:	8a e2       	ldi	r24, 0x2A	; 42
     7fe:	92 e0       	ldi	r25, 0x02	; 2
     800:	0c 94 db 03 	jmp	0x7b6	;  0x7b6
     804:	fc 01       	movw	r30, r24
     806:	82 81       	ldd	r24, Z+2	; 0x02
     808:	8f 5b       	subi	r24, 0xBF	; 191
     80a:	fb 01       	movw	r30, r22
     80c:	80 83       	st	Z, r24
     80e:	81 e0       	ldi	r24, 0x01	; 1
     810:	08 95       	ret
     812:	fc 01       	movw	r30, r24
     814:	34 96       	adiw	r30, 0x04	; 4
     816:	9c 01       	movw	r18, r24
     818:	24 5f       	subi	r18, 0xF4	; 244
     81a:	3f 4f       	sbci	r19, 0xFF	; 255
     81c:	80 e0       	ldi	r24, 0x00	; 0
     81e:	90 e0       	ldi	r25, 0x00	; 0
     820:	40 81       	ld	r20, Z
     822:	41 11       	cpse	r20, r1
     824:	01 96       	adiw	r24, 0x01	; 1
     826:	11 92       	st	Z+, r1
     828:	e2 17       	cp	r30, r18
     82a:	f3 07       	cpc	r31, r19
     82c:	c9 f7       	brne	.-14     	;  0x820
     82e:	08 95       	ret
     830:	cf 93       	push	r28
     832:	df 93       	push	r29
     834:	cd b7       	in	r28, 0x3d	; 61
     836:	de b7       	in	r29, 0x3e	; 62
     838:	69 97       	sbiw	r28, 0x19	; 25
     83a:	0f b6       	in	r0, 0x3f	; 63
     83c:	f8 94       	cli
     83e:	de bf       	out	0x3e, r29	; 62
     840:	0f be       	out	0x3f, r0	; 63
     842:	cd bf       	out	0x3d, r28	; 61
     844:	fc 01       	movw	r30, r24
     846:	db 01       	movw	r26, r22
     848:	9c 91       	ld	r25, X
     84a:	9f 5f       	subi	r25, 0xFF	; 255
     84c:	9c 93       	st	X, r25
     84e:	be 01       	movw	r22, r28
     850:	6f 5f       	subi	r22, 0xFF	; 255
     852:	7f 4f       	sbci	r23, 0xFF	; 255
     854:	89 e1       	ldi	r24, 0x19	; 25
     856:	db 01       	movw	r26, r22
     858:	1d 92       	st	X+, r1
     85a:	8a 95       	dec	r24
     85c:	e9 f7       	brne	.-6      	;  0x858
     85e:	29 e0       	ldi	r18, 0x09	; 9
     860:	29 83       	std	Y+1, r18	; 0x01
     862:	84 e0       	ldi	r24, 0x04	; 4
     864:	8a 83       	std	Y+2, r24	; 0x02
     866:	91 e0       	ldi	r25, 0x01	; 1
     868:	9d 83       	std	Y+5, r25	; 0x05
     86a:	83 e0       	ldi	r24, 0x03	; 3
     86c:	8e 83       	std	Y+6, r24	; 0x06
     86e:	9f 83       	std	Y+7, r25	; 0x07
     870:	98 87       	std	Y+8, r25	; 0x08
     872:	2a 87       	std	Y+10, r18	; 0x0a
     874:	21 e2       	ldi	r18, 0x21	; 33
     876:	2b 87       	std	Y+11, r18	; 0x0b
     878:	9c 87       	std	Y+12, r25	; 0x0c
     87a:	9d 87       	std	Y+13, r25	; 0x0d
     87c:	9f 87       	std	Y+15, r25	; 0x0f
     87e:	22 e2       	ldi	r18, 0x22	; 34
     880:	28 8b       	std	Y+16, r18	; 0x10
     882:	25 e4       	ldi	r18, 0x45	; 69
     884:	29 8b       	std	Y+17, r18	; 0x11
     886:	27 e0       	ldi	r18, 0x07	; 7
     888:	2b 8b       	std	Y+19, r18	; 0x13
     88a:	25 e0       	ldi	r18, 0x05	; 5
     88c:	2c 8b       	std	Y+20, r18	; 0x14
     88e:	8e 8b       	std	Y+22, r24	; 0x16
     890:	20 e4       	ldi	r18, 0x40	; 64
     892:	30 e0       	ldi	r19, 0x00	; 0
     894:	38 8f       	std	Y+24, r19	; 0x18
     896:	2f 8b       	std	Y+23, r18	; 0x17
     898:	99 8f       	std	Y+25, r25	; 0x19
     89a:	82 81       	ldd	r24, Z+2	; 0x02
     89c:	8b 83       	std	Y+3, r24	; 0x03
     89e:	83 81       	ldd	r24, Z+3	; 0x03
     8a0:	80 68       	ori	r24, 0x80	; 128
     8a2:	8d 8b       	std	Y+21, r24	; 0x15
     8a4:	49 e1       	ldi	r20, 0x19	; 25
     8a6:	50 e0       	ldi	r21, 0x00	; 0
     8a8:	80 e0       	ldi	r24, 0x00	; 0
     8aa:	0e 94 6d 1b 	call	0x36da	;  0x36da
     8ae:	69 96       	adiw	r28, 0x19	; 25
     8b0:	0f b6       	in	r0, 0x3f	; 63
     8b2:	f8 94       	cli
     8b4:	de bf       	out	0x3e, r29	; 62
     8b6:	0f be       	out	0x3f, r0	; 63
     8b8:	cd bf       	out	0x3d, r28	; 61
     8ba:	df 91       	pop	r29
     8bc:	cf 91       	pop	r28
     8be:	08 95       	ret
     8c0:	bc 01       	movw	r22, r24
     8c2:	62 5f       	subi	r22, 0xF2	; 242
     8c4:	7f 4f       	sbci	r23, 0xFF	; 255
     8c6:	fc 01       	movw	r30, r24
     8c8:	83 81       	ldd	r24, Z+3	; 0x03
     8ca:	48 e0       	ldi	r20, 0x08	; 8
     8cc:	50 e0       	ldi	r21, 0x00	; 0
     8ce:	80 64       	ori	r24, 0x40	; 64
     8d0:	0c 94 d5 1a 	jmp	0x35aa	;  0x35aa
     8d4:	0a 97       	sbiw	r24, 0x0a	; 10
     8d6:	0c 94 60 04 	jmp	0x8c0	;  0x8c0
     8da:	fc 01       	movw	r30, r24
     8dc:	20 e2       	ldi	r18, 0x20	; 32
     8de:	26 0f       	add	r18, r22
     8e0:	28 30       	cpi	r18, 0x08	; 8
     8e2:	f0 f0       	brcs	.+60     	;  0x920
     8e4:	dc 01       	movw	r26, r24
     8e6:	16 96       	adiw	r26, 0x06	; 6
     8e8:	20 e0       	ldi	r18, 0x00	; 0
     8ea:	30 e0       	ldi	r19, 0x00	; 0
     8ec:	8d 91       	ld	r24, X+
     8ee:	44 23       	and	r20, r20
     8f0:	49 f0       	breq	.+18     	;  0x904
     8f2:	86 13       	cpse	r24, r22
     8f4:	04 c0       	rjmp	.+8      	;  0x8fe
     8f6:	e2 0f       	add	r30, r18
     8f8:	f3 1f       	adc	r31, r19
     8fa:	66 83       	std	Z+6, r22	; 0x06
     8fc:	26 c0       	rjmp	.+76     	;  0x94a
     8fe:	81 11       	cpse	r24, r1
     900:	07 c0       	rjmp	.+14     	;  0x910
     902:	f9 cf       	rjmp	.-14     	;  0x8f6
     904:	86 13       	cpse	r24, r22
     906:	04 c0       	rjmp	.+8      	;  0x910
     908:	e2 0f       	add	r30, r18
     90a:	f3 1f       	adc	r31, r19
     90c:	16 82       	std	Z+6, r1	; 0x06
     90e:	1d c0       	rjmp	.+58     	;  0x94a
     910:	2f 5f       	subi	r18, 0xFF	; 255
     912:	3f 4f       	sbci	r19, 0xFF	; 255
     914:	26 30       	cpi	r18, 0x06	; 6
     916:	31 05       	cpc	r19, r1
     918:	49 f7       	brne	.-46     	;  0x8ec
     91a:	80 e0       	ldi	r24, 0x00	; 0
     91c:	90 e0       	ldi	r25, 0x00	; 0
     91e:	08 95       	ret
     920:	34 81       	ldd	r19, Z+4	; 0x04
     922:	44 23       	and	r20, r20
     924:	49 f0       	breq	.+18     	;  0x938
     926:	81 e0       	ldi	r24, 0x01	; 1
     928:	90 e0       	ldi	r25, 0x00	; 0
     92a:	01 c0       	rjmp	.+2      	;  0x92e
     92c:	88 0f       	add	r24, r24
     92e:	2a 95       	dec	r18
     930:	ea f7       	brpl	.-6      	;  0x92c
     932:	83 2b       	or	r24, r19
     934:	84 83       	std	Z+4, r24	; 0x04
     936:	09 c0       	rjmp	.+18     	;  0x94a
     938:	41 e0       	ldi	r20, 0x01	; 1
     93a:	50 e0       	ldi	r21, 0x00	; 0
     93c:	01 c0       	rjmp	.+2      	;  0x940
     93e:	44 0f       	add	r20, r20
     940:	2a 95       	dec	r18
     942:	ea f7       	brpl	.-6      	;  0x93e
     944:	40 95       	com	r20
     946:	43 23       	and	r20, r19
     948:	44 83       	std	Z+4, r20	; 0x04
     94a:	81 e0       	ldi	r24, 0x01	; 1
     94c:	90 e0       	ldi	r25, 0x00	; 0
     94e:	08 95       	ret
     950:	fb 01       	movw	r30, r22
     952:	20 81       	ld	r18, Z
     954:	21 38       	cpi	r18, 0x81	; 129
     956:	b9 f4       	brne	.+46     	;  0x986
     958:	23 81       	ldd	r18, Z+3	; 0x03
     95a:	22 32       	cpi	r18, 0x22	; 34
     95c:	a1 f4       	brne	.+40     	;  0x986
     95e:	dc 01       	movw	r26, r24
     960:	12 96       	adiw	r26, 0x02	; 2
     962:	2c 91       	ld	r18, X
     964:	12 97       	sbiw	r26, 0x02	; 2
     966:	30 e0       	ldi	r19, 0x00	; 0
     968:	44 81       	ldd	r20, Z+4	; 0x04
     96a:	55 81       	ldd	r21, Z+5	; 0x05
     96c:	42 17       	cp	r20, r18
     96e:	53 07       	cpc	r21, r19
     970:	51 f4       	brne	.+20     	;  0x986
     972:	21 e0       	ldi	r18, 0x01	; 1
     974:	57 96       	adiw	r26, 0x17	; 23
     976:	2c 93       	st	X, r18
     978:	45 e4       	ldi	r20, 0x45	; 69
     97a:	50 e0       	ldi	r21, 0x00	; 0
     97c:	65 ef       	ldi	r22, 0xF5	; 245
     97e:	70 e0       	ldi	r23, 0x00	; 0
     980:	80 e8       	ldi	r24, 0x80	; 128
     982:	0c 94 6d 1b 	jmp	0x36da	;  0x36da
     986:	80 e0       	ldi	r24, 0x00	; 0
     988:	90 e0       	ldi	r25, 0x00	; 0
     98a:	08 95       	ret
     98c:	cf 93       	push	r28
     98e:	df 93       	push	r29
     990:	ec 01       	movw	r28, r24
     992:	fb 01       	movw	r30, r22
     994:	8a 81       	ldd	r24, Y+2	; 0x02
     996:	90 e0       	ldi	r25, 0x00	; 0
     998:	24 81       	ldd	r18, Z+4	; 0x04
     99a:	35 81       	ldd	r19, Z+5	; 0x05
     99c:	82 17       	cp	r24, r18
     99e:	93 07       	cpc	r25, r19
     9a0:	09 f0       	breq	.+2      	;  0x9a4
     9a2:	4a c0       	rjmp	.+148    	;  0xa38
     9a4:	81 81       	ldd	r24, Z+1	; 0x01
     9a6:	90 81       	ld	r25, Z
     9a8:	91 3a       	cpi	r25, 0xA1	; 161
     9aa:	69 f4       	brne	.+26     	;  0x9c6
     9ac:	81 30       	cpi	r24, 0x01	; 1
     9ae:	09 f4       	brne	.+2      	;  0x9b2
     9b0:	41 c0       	rjmp	.+130    	;  0xa34
     9b2:	83 30       	cpi	r24, 0x03	; 3
     9b4:	11 f4       	brne	.+4      	;  0x9ba
     9b6:	8f 89       	ldd	r24, Y+23	; 0x17
     9b8:	03 c0       	rjmp	.+6      	;  0x9c0
     9ba:	82 30       	cpi	r24, 0x02	; 2
     9bc:	e9 f5       	brne	.+122    	;  0xa38
     9be:	88 8d       	ldd	r24, Y+24	; 0x18
     9c0:	80 93 f1 00 	sts	0x00F1, r24
     9c4:	37 c0       	rjmp	.+110    	;  0xa34
     9c6:	91 32       	cpi	r25, 0x21	; 33
     9c8:	b9 f5       	brne	.+110    	;  0xa38
     9ca:	8b 30       	cpi	r24, 0x0B	; 11
     9cc:	19 f4       	brne	.+6      	;  0x9d4
     9ce:	82 81       	ldd	r24, Z+2	; 0x02
     9d0:	8f 8b       	std	Y+23, r24	; 0x17
     9d2:	30 c0       	rjmp	.+96     	;  0xa34
     9d4:	8a 30       	cpi	r24, 0x0A	; 10
     9d6:	19 f4       	brne	.+6      	;  0x9de
     9d8:	82 81       	ldd	r24, Z+2	; 0x02
     9da:	88 8f       	std	Y+24, r24	; 0x18
     9dc:	2b c0       	rjmp	.+86     	;  0xa34
     9de:	89 30       	cpi	r24, 0x09	; 9
     9e0:	59 f5       	brne	.+86     	;  0xa38
     9e2:	66 81       	ldd	r22, Z+6	; 0x06
     9e4:	77 81       	ldd	r23, Z+7	; 0x07
     9e6:	83 81       	ldd	r24, Z+3	; 0x03
     9e8:	83 30       	cpi	r24, 0x03	; 3
     9ea:	79 f4       	brne	.+30     	;  0xa0a
     9ec:	8c 8d       	ldd	r24, Y+28	; 0x1c
     9ee:	9d 8d       	ldd	r25, Y+29	; 0x1d
     9f0:	68 17       	cp	r22, r24
     9f2:	79 07       	cpc	r23, r25
     9f4:	09 f5       	brne	.+66     	;  0xa38
     9f6:	8a 8d       	ldd	r24, Y+26	; 0x1a
     9f8:	9b 8d       	ldd	r25, Y+27	; 0x1b
     9fa:	0e 94 94 1b 	call	0x3728	;  0x3728
     9fe:	8c 8d       	ldd	r24, Y+28	; 0x1c
     a00:	9d 8d       	ldd	r25, Y+29	; 0x1d
     a02:	90 68       	ori	r25, 0x80	; 128
     a04:	9d 8f       	std	Y+29, r25	; 0x1d
     a06:	8c 8f       	std	Y+28, r24	; 0x1c
     a08:	15 c0       	rjmp	.+42     	;  0xa34
     a0a:	82 30       	cpi	r24, 0x02	; 2
     a0c:	41 f4       	brne	.+16     	;  0xa1e
     a0e:	61 30       	cpi	r22, 0x01	; 1
     a10:	71 05       	cpc	r23, r1
     a12:	91 f4       	brne	.+36     	;  0xa38
     a14:	61 e0       	ldi	r22, 0x01	; 1
     a16:	70 e0       	ldi	r23, 0x00	; 0
     a18:	ce 01       	movw	r24, r28
     a1a:	49 96       	adiw	r24, 0x19	; 25
     a1c:	09 c0       	rjmp	.+18     	;  0xa30
     a1e:	81 30       	cpi	r24, 0x01	; 1
     a20:	59 f4       	brne	.+22     	;  0xa38
     a22:	68 30       	cpi	r22, 0x08	; 8
     a24:	71 05       	cpc	r23, r1
     a26:	41 f4       	brne	.+16     	;  0xa38
     a28:	68 e0       	ldi	r22, 0x08	; 8
     a2a:	70 e0       	ldi	r23, 0x00	; 0
     a2c:	ce 01       	movw	r24, r28
     a2e:	0e 96       	adiw	r24, 0x0e	; 14
     a30:	0e 94 94 1b 	call	0x3728	;  0x3728
     a34:	81 e0       	ldi	r24, 0x01	; 1
     a36:	01 c0       	rjmp	.+2      	;  0xa3a
     a38:	80 e0       	ldi	r24, 0x00	; 0
     a3a:	df 91       	pop	r29
     a3c:	cf 91       	pop	r28
     a3e:	08 95       	ret
     a40:	ef 92       	push	r14
     a42:	ff 92       	push	r15
     a44:	0f 93       	push	r16
     a46:	1f 93       	push	r17
     a48:	cf 93       	push	r28
     a4a:	df 93       	push	r29
     a4c:	e6 2f       	mov	r30, r22
     a4e:	f0 e0       	ldi	r31, 0x00	; 0
     a50:	e0 38       	cpi	r30, 0x80	; 128
     a52:	f1 05       	cpc	r31, r1
     a54:	40 f0       	brcs	.+16     	;  0xa66
     a56:	21 e0       	ldi	r18, 0x01	; 1
     a58:	30 e0       	ldi	r19, 0x00	; 0
     a5a:	dc 01       	movw	r26, r24
     a5c:	13 96       	adiw	r26, 0x03	; 3
     a5e:	3c 93       	st	X, r19
     a60:	2e 93       	st	-X, r18
     a62:	12 97       	sbiw	r26, 0x02	; 2
     a64:	22 c0       	rjmp	.+68     	;  0xaaa
     a66:	d4 2f       	mov	r29, r20
     a68:	7c 01       	movw	r14, r24
     a6a:	e6 5c       	subi	r30, 0xC6	; 198
     a6c:	fe 4f       	sbci	r31, 0xFE	; 254
     a6e:	c4 91       	lpm	r28, Z
     a70:	6c 2f       	mov	r22, r28
     a72:	6f 77       	andi	r22, 0x7F	; 127
     a74:	dc 01       	movw	r26, r24
     a76:	ed 91       	ld	r30, X+
     a78:	fc 91       	ld	r31, X
     a7a:	00 84       	ldd	r0, Z+8	; 0x08
     a7c:	f1 85       	ldd	r31, Z+9	; 0x09
     a7e:	e0 2d       	mov	r30, r0
     a80:	09 95       	icall
     a82:	8c 01       	movw	r16, r24
     a84:	c7 ff       	sbrs	r28, 7
     a86:	13 c0       	rjmp	.+38     	;  0xaae
     a88:	89 2b       	or	r24, r25
     a8a:	11 f4       	brne	.+4      	;  0xa90
     a8c:	d1 11       	cpse	r29, r1
     a8e:	0d c0       	rjmp	.+26     	;  0xaaa
     a90:	d7 01       	movw	r26, r14
     a92:	ed 91       	ld	r30, X+
     a94:	fc 91       	ld	r31, X
     a96:	00 84       	ldd	r0, Z+8	; 0x08
     a98:	f1 85       	ldd	r31, Z+9	; 0x09
     a9a:	e0 2d       	mov	r30, r0
     a9c:	4d 2f       	mov	r20, r29
     a9e:	61 ee       	ldi	r22, 0xE1	; 225
     aa0:	c7 01       	movw	r24, r14
     aa2:	09 95       	icall
     aa4:	80 2b       	or	r24, r16
     aa6:	91 2b       	or	r25, r17
     aa8:	02 c0       	rjmp	.+4      	;  0xaae
     aaa:	80 e0       	ldi	r24, 0x00	; 0
     aac:	90 e0       	ldi	r25, 0x00	; 0
     aae:	df 91       	pop	r29
     ab0:	cf 91       	pop	r28
     ab2:	1f 91       	pop	r17
     ab4:	0f 91       	pop	r16
     ab6:	ff 90       	pop	r15
     ab8:	ef 90       	pop	r14
     aba:	08 95       	ret
     abc:	ff 92       	push	r15
     abe:	0f 93       	push	r16
     ac0:	1f 93       	push	r17
     ac2:	cf 93       	push	r28
     ac4:	df 93       	push	r29
     ac6:	ec 01       	movw	r28, r24
     ac8:	f6 2e       	mov	r15, r22
     aca:	41 e0       	ldi	r20, 0x01	; 1
     acc:	0e 94 20 05 	call	0xa40	;  0xa40
     ad0:	8c 01       	movw	r16, r24
     ad2:	89 2b       	or	r24, r25
     ad4:	a9 f0       	breq	.+42     	;  0xb00
     ad6:	e8 81       	ld	r30, Y
     ad8:	f9 81       	ldd	r31, Y+1	; 0x01
     ada:	06 80       	ldd	r0, Z+6	; 0x06
     adc:	f7 81       	ldd	r31, Z+7	; 0x07
     ade:	e0 2d       	mov	r30, r0
     ae0:	ce 01       	movw	r24, r28
     ae2:	09 95       	icall
     ae4:	40 e0       	ldi	r20, 0x00	; 0
     ae6:	6f 2d       	mov	r22, r15
     ae8:	ce 01       	movw	r24, r28
     aea:	0e 94 20 05 	call	0xa40	;  0xa40
     aee:	89 2b       	or	r24, r25
     af0:	39 f0       	breq	.+14     	;  0xb00
     af2:	e8 81       	ld	r30, Y
     af4:	f9 81       	ldd	r31, Y+1	; 0x01
     af6:	06 80       	ldd	r0, Z+6	; 0x06
     af8:	f7 81       	ldd	r31, Z+7	; 0x07
     afa:	e0 2d       	mov	r30, r0
     afc:	ce 01       	movw	r24, r28
     afe:	09 95       	icall
     b00:	c8 01       	movw	r24, r16
     b02:	df 91       	pop	r29
     b04:	cf 91       	pop	r28
     b06:	1f 91       	pop	r17
     b08:	0f 91       	pop	r16
     b0a:	ff 90       	pop	r15
     b0c:	08 95       	ret
     b0e:	cf 93       	push	r28
     b10:	df 93       	push	r29
     b12:	ec 01       	movw	r28, r24
     b14:	81 e0       	ldi	r24, 0x01	; 1
     b16:	8c 83       	std	Y+4, r24	; 0x04
     b18:	8d 83       	std	Y+5, r24	; 0x05
     b1a:	9e 01       	movw	r18, r28
     b1c:	2a 5e       	subi	r18, 0xEA	; 234
     b1e:	3f 4f       	sbci	r19, 0xFF	; 255
     b20:	3f 83       	std	Y+7, r19	; 0x07
     b22:	2e 83       	std	Y+6, r18	; 0x06
     b24:	19 86       	std	Y+9, r1	; 0x09
     b26:	18 86       	std	Y+8, r1	; 0x08
     b28:	1d 86       	std	Y+13, r1	; 0x0d
     b2a:	1c 86       	std	Y+12, r1	; 0x0c
     b2c:	2e e3       	ldi	r18, 0x3E	; 62
     b2e:	31 e0       	ldi	r19, 0x01	; 1
     b30:	39 83       	std	Y+1, r19	; 0x01
     b32:	28 83       	st	Y, r18
     b34:	2c e4       	ldi	r18, 0x4C	; 76
     b36:	31 e0       	ldi	r19, 0x01	; 1
     b38:	3b 87       	std	Y+11, r19	; 0x0b
     b3a:	2a 87       	std	Y+10, r18	; 0x0a
     b3c:	8f 8b       	std	Y+23, r24	; 0x17
     b3e:	88 8f       	std	Y+24, r24	; 0x18
     b40:	19 8e       	std	Y+25, r1	; 0x19
     b42:	1b 8e       	std	Y+27, r1	; 0x1b
     b44:	1a 8e       	std	Y+26, r1	; 0x1a
     b46:	1d 8e       	std	Y+29, r1	; 0x1d
     b48:	1c 8e       	std	Y+28, r1	; 0x1c
     b4a:	81 ec       	ldi	r24, 0xC1	; 193
     b4c:	8e 8b       	std	Y+22, r24	; 0x16
     b4e:	0e 94 3d 1d 	call	0x3a7a	;  0x3a7a
     b52:	be 01       	movw	r22, r28
     b54:	df 91       	pop	r29
     b56:	cf 91       	pop	r28
     b58:	0c 94 f6 1c 	jmp	0x39ec	;  0x39ec
     b5c:	85 e3       	ldi	r24, 0x35	; 53
     b5e:	92 e0       	ldi	r25, 0x02	; 2
     b60:	0c 94 87 05 	jmp	0xb0e	;  0xb0e
     b64:	fc 01       	movw	r30, r24
     b66:	12 82       	std	Z+2, r1	; 0x02
     b68:	8f ef       	ldi	r24, 0xFF	; 255
     b6a:	81 83       	std	Z+1, r24	; 0x01
     b6c:	10 82       	st	Z, r1
     b6e:	13 82       	std	Z+3, r1	; 0x03
     b70:	08 95       	ret
     b72:	fc 01       	movw	r30, r24
     b74:	83 81       	ldd	r24, Z+3	; 0x03
     b76:	88 23       	and	r24, r24
     b78:	31 f0       	breq	.+12     	;  0xb86
     b7a:	61 11       	cpse	r22, r1
     b7c:	03 c0       	rjmp	.+6      	;  0xb84
     b7e:	8f ef       	ldi	r24, 0xFF	; 255
     b80:	81 83       	std	Z+1, r24	; 0x01
     b82:	08 95       	ret
     b84:	11 82       	std	Z+1, r1	; 0x01
     b86:	08 95       	ret
     b88:	87 e5       	ldi	r24, 0x57	; 87
     b8a:	95 e0       	ldi	r25, 0x05	; 5
     b8c:	0e 94 eb 25 	call	0x4bd6	;  0x4bd6
     b90:	87 e5       	ldi	r24, 0x57	; 87
     b92:	95 e0       	ldi	r25, 0x05	; 5
     b94:	0e 94 86 26 	call	0x4d0c	;  0x4d0c
     b98:	91 e0       	ldi	r25, 0x01	; 1
     b9a:	81 11       	cpse	r24, r1
     b9c:	90 e0       	ldi	r25, 0x00	; 0
     b9e:	89 2f       	mov	r24, r25
     ba0:	08 95       	ret
     ba2:	cf 93       	push	r28
     ba4:	df 93       	push	r29
     ba6:	ec 01       	movw	r28, r24
     ba8:	6a 83       	std	Y+2, r22	; 0x02
     baa:	87 e5       	ldi	r24, 0x57	; 87
     bac:	95 e0       	ldi	r25, 0x05	; 5
     bae:	0e 94 13 26 	call	0x4c26	;  0x4c26
     bb2:	6a 81       	ldd	r22, Y+2	; 0x02
     bb4:	ce 01       	movw	r24, r28
     bb6:	0e 94 c4 05 	call	0xb88	;  0xb88
     bba:	8b 83       	std	Y+3, r24	; 0x03
     bbc:	88 23       	and	r24, r24
     bbe:	29 f0       	breq	.+10     	;  0xbca
     bc0:	87 e5       	ldi	r24, 0x57	; 87
     bc2:	95 e0       	ldi	r25, 0x05	; 5
     bc4:	0e 94 84 23 	call	0x4708	;  0x4708
     bc8:	88 83       	st	Y, r24
     bca:	8b 81       	ldd	r24, Y+3	; 0x03
     bcc:	90 e0       	ldi	r25, 0x00	; 0
     bce:	df 91       	pop	r29
     bd0:	cf 91       	pop	r28
     bd2:	08 95       	ret
     bd4:	cf 93       	push	r28
     bd6:	df 93       	push	r29
     bd8:	fc 01       	movw	r30, r24
     bda:	23 81       	ldd	r18, Z+3	; 0x03
     bdc:	22 23       	and	r18, r18
     bde:	b1 f0       	breq	.+44     	;  0xc0c
     be0:	ec 01       	movw	r28, r24
     be2:	81 81       	ldd	r24, Z+1	; 0x01
     be4:	80 95       	com	r24
     be6:	68 23       	and	r22, r24
     be8:	60 83       	st	Z, r22
     bea:	62 81       	ldd	r22, Z+2	; 0x02
     bec:	87 e5       	ldi	r24, 0x57	; 87
     bee:	95 e0       	ldi	r25, 0x05	; 5
     bf0:	0e 94 eb 25 	call	0x4bd6	;  0x4bd6
     bf4:	68 81       	ld	r22, Y
     bf6:	87 e5       	ldi	r24, 0x57	; 87
     bf8:	95 e0       	ldi	r25, 0x05	; 5
     bfa:	0e 94 a2 26 	call	0x4d44	;  0x4d44
     bfe:	87 e5       	ldi	r24, 0x57	; 87
     c00:	95 e0       	ldi	r25, 0x05	; 5
     c02:	0e 94 86 26 	call	0x4d0c	;  0x4d0c
     c06:	28 2f       	mov	r18, r24
     c08:	30 e0       	ldi	r19, 0x00	; 0
     c0a:	02 c0       	rjmp	.+4      	;  0xc10
     c0c:	20 e0       	ldi	r18, 0x00	; 0
     c0e:	30 e0       	ldi	r19, 0x00	; 0
     c10:	81 e0       	ldi	r24, 0x01	; 1
     c12:	90 e0       	ldi	r25, 0x00	; 0
     c14:	23 2b       	or	r18, r19
     c16:	11 f0       	breq	.+4      	;  0xc1c
     c18:	80 e0       	ldi	r24, 0x00	; 0
     c1a:	90 e0       	ldi	r25, 0x00	; 0
     c1c:	df 91       	pop	r29
     c1e:	cf 91       	pop	r28
     c20:	08 95       	ret
     c22:	08 95       	ret
     c24:	08 95       	ret
     c26:	dc 01       	movw	r26, r24
     c28:	ed 91       	ld	r30, X+
     c2a:	fc 91       	ld	r31, X
     c2c:	02 84       	ldd	r0, Z+10	; 0x0a
     c2e:	f3 85       	ldd	r31, Z+11	; 0x0b
     c30:	e0 2d       	mov	r30, r0
     c32:	41 e0       	ldi	r20, 0x01	; 1
     c34:	09 95       	icall
     c36:	81 e0       	ldi	r24, 0x01	; 1
     c38:	90 e0       	ldi	r25, 0x00	; 0
     c3a:	08 95       	ret
     c3c:	fc 01       	movw	r30, r24
     c3e:	13 82       	std	Z+3, r1	; 0x03
     c40:	12 82       	std	Z+2, r1	; 0x02
     c42:	2a e5       	ldi	r18, 0x5A	; 90
     c44:	31 e0       	ldi	r19, 0x01	; 1
     c46:	31 83       	std	Z+1, r19	; 0x01
     c48:	20 83       	st	Z, r18
     c4a:	08 95       	ret
     c4c:	dc 01       	movw	r26, r24
     c4e:	ed 91       	ld	r30, X+
     c50:	fc 91       	ld	r31, X
     c52:	00 84       	ldd	r0, Z+8	; 0x08
     c54:	f1 85       	ldd	r31, Z+9	; 0x09
     c56:	e0 2d       	mov	r30, r0
     c58:	6f ef       	ldi	r22, 0xFF	; 255
     c5a:	09 94       	ijmp
     c5c:	dc 01       	movw	r26, r24
     c5e:	ed 91       	ld	r30, X+
     c60:	fc 91       	ld	r31, X
     c62:	02 84       	ldd	r0, Z+10	; 0x0a
     c64:	f3 85       	ldd	r31, Z+11	; 0x0b
     c66:	e0 2d       	mov	r30, r0
     c68:	40 e0       	ldi	r20, 0x00	; 0
     c6a:	09 94       	ijmp
     c6c:	61 e0       	ldi	r22, 0x01	; 1
     c6e:	0e 94 2e 06 	call	0xc5c	;  0xc5c
     c72:	80 ed       	ldi	r24, 0xD0	; 208
     c74:	97 e0       	ldi	r25, 0x07	; 7
     c76:	0c 94 3d 20 	jmp	0x407a	;  0x407a
     c7a:	cf 93       	push	r28
     c7c:	df 93       	push	r29
     c7e:	cd b7       	in	r28, 0x3d	; 61
     c80:	de b7       	in	r29, 0x3e	; 62
     c82:	28 97       	sbiw	r28, 0x08	; 8
     c84:	0f b6       	in	r0, 0x3f	; 63
     c86:	f8 94       	cli
     c88:	de bf       	out	0x3e, r29	; 62
     c8a:	0f be       	out	0x3f, r0	; 63
     c8c:	cd bf       	out	0x3d, r28	; 61
     c8e:	fc 01       	movw	r30, r24
     c90:	1d 82       	std	Y+5, r1	; 0x05
     c92:	80 e4       	ldi	r24, 0x40	; 64
     c94:	8e 83       	std	Y+6, r24	; 0x06
     c96:	94 e1       	ldi	r25, 0x14	; 20
     c98:	9f 83       	std	Y+7, r25	; 0x07
     c9a:	94 e5       	ldi	r25, 0x54	; 84
     c9c:	98 87       	std	Y+8, r25	; 0x08
     c9e:	19 82       	std	Y+1, r1	; 0x01
     ca0:	8a 83       	std	Y+2, r24	; 0x02
     ca2:	80 e1       	ldi	r24, 0x10	; 16
     ca4:	8b 83       	std	Y+3, r24	; 0x03
     ca6:	80 e5       	ldi	r24, 0x50	; 80
     ca8:	8c 83       	std	Y+4, r24	; 0x04
     caa:	87 81       	ldd	r24, Z+7	; 0x07
     cac:	48 17       	cp	r20, r24
     cae:	10 f0       	brcs	.+4      	;  0xcb4
     cb0:	4f ef       	ldi	r20, 0xFF	; 255
     cb2:	48 0f       	add	r20, r24
     cb4:	90 85       	ldd	r25, Z+8	; 0x08
     cb6:	50 e0       	ldi	r21, 0x00	; 0
     cb8:	de 01       	movw	r26, r28
     cba:	a4 0f       	add	r26, r20
     cbc:	b5 1f       	adc	r27, r21
     cbe:	90 31       	cpi	r25, 0x10	; 16
     cc0:	29 f4       	brne	.+10     	;  0xccc
     cc2:	84 30       	cpi	r24, 0x04	; 4
     cc4:	19 f4       	brne	.+6      	;  0xccc
     cc6:	11 96       	adiw	r26, 0x01	; 1
     cc8:	9c 91       	ld	r25, X
     cca:	02 c0       	rjmp	.+4      	;  0xcd0
     ccc:	15 96       	adiw	r26, 0x05	; 5
     cce:	9c 91       	ld	r25, X
     cd0:	69 0f       	add	r22, r25
     cd2:	60 68       	ori	r22, 0x80	; 128
     cd4:	cf 01       	movw	r24, r30
     cd6:	28 96       	adiw	r28, 0x08	; 8
     cd8:	0f b6       	in	r0, 0x3f	; 63
     cda:	f8 94       	cli
     cdc:	de bf       	out	0x3e, r29	; 62
     cde:	0f be       	out	0x3f, r0	; 63
     ce0:	cd bf       	out	0x3d, r28	; 61
     ce2:	df 91       	pop	r29
     ce4:	cf 91       	pop	r28
     ce6:	0c 94 2e 06 	jmp	0xc5c	;  0xc5c
     cea:	fc 01       	movw	r30, r24
     cec:	65 81       	ldd	r22, Z+5	; 0x05
     cee:	26 2f       	mov	r18, r22
     cf0:	24 60       	ori	r18, 0x04	; 4
     cf2:	25 83       	std	Z+5, r18	; 0x05
     cf4:	6c 60       	ori	r22, 0x0C	; 12
     cf6:	0c 94 2e 06 	jmp	0xc5c	;  0xc5c
     cfa:	cf 93       	push	r28
     cfc:	df 93       	push	r29
     cfe:	ec 01       	movw	r28, r24
     d00:	42 30       	cpi	r20, 0x02	; 2
     d02:	18 f0       	brcs	.+6      	;  0xd0a
     d04:	8c 81       	ldd	r24, Y+4	; 0x04
     d06:	88 60       	ori	r24, 0x08	; 8
     d08:	8c 83       	std	Y+4, r24	; 0x04
     d0a:	4f 83       	std	Y+7, r20	; 0x07
     d0c:	68 87       	std	Y+8, r22	; 0x08
     d0e:	22 23       	and	r18, r18
     d10:	29 f0       	breq	.+10     	;  0xd1c
     d12:	41 30       	cpi	r20, 0x01	; 1
     d14:	19 f4       	brne	.+6      	;  0xd1c
     d16:	8c 81       	ldd	r24, Y+4	; 0x04
     d18:	84 60       	ori	r24, 0x04	; 4
     d1a:	8c 83       	std	Y+4, r24	; 0x04
     d1c:	64 e6       	ldi	r22, 0x64	; 100
     d1e:	70 e0       	ldi	r23, 0x00	; 0
     d20:	80 e0       	ldi	r24, 0x00	; 0
     d22:	90 e0       	ldi	r25, 0x00	; 0
     d24:	0e 94 01 20 	call	0x4002	;  0x4002
     d28:	6c 81       	ldd	r22, Y+4	; 0x04
     d2a:	64 fd       	sbrc	r22, 4
     d2c:	31 c0       	rjmp	.+98     	;  0xd90
     d2e:	e8 81       	ld	r30, Y
     d30:	f9 81       	ldd	r31, Y+1	; 0x01
     d32:	02 84       	ldd	r0, Z+10	; 0x0a
     d34:	f3 85       	ldd	r31, Z+11	; 0x0b
     d36:	e0 2d       	mov	r30, r0
     d38:	42 e0       	ldi	r20, 0x02	; 2
     d3a:	63 e0       	ldi	r22, 0x03	; 3
     d3c:	ce 01       	movw	r24, r28
     d3e:	09 95       	icall
     d40:	84 e9       	ldi	r24, 0x94	; 148
     d42:	91 e1       	ldi	r25, 0x11	; 17
     d44:	0e 94 3d 20 	call	0x407a	;  0x407a
     d48:	e8 81       	ld	r30, Y
     d4a:	f9 81       	ldd	r31, Y+1	; 0x01
     d4c:	02 84       	ldd	r0, Z+10	; 0x0a
     d4e:	f3 85       	ldd	r31, Z+11	; 0x0b
     d50:	e0 2d       	mov	r30, r0
     d52:	42 e0       	ldi	r20, 0x02	; 2
     d54:	63 e0       	ldi	r22, 0x03	; 3
     d56:	ce 01       	movw	r24, r28
     d58:	09 95       	icall
     d5a:	86 e9       	ldi	r24, 0x96	; 150
     d5c:	90 e0       	ldi	r25, 0x00	; 0
     d5e:	0e 94 3d 20 	call	0x407a	;  0x407a
     d62:	e8 81       	ld	r30, Y
     d64:	f9 81       	ldd	r31, Y+1	; 0x01
     d66:	02 84       	ldd	r0, Z+10	; 0x0a
     d68:	f3 85       	ldd	r31, Z+11	; 0x0b
     d6a:	e0 2d       	mov	r30, r0
     d6c:	42 e0       	ldi	r20, 0x02	; 2
     d6e:	63 e0       	ldi	r22, 0x03	; 3
     d70:	ce 01       	movw	r24, r28
     d72:	09 95       	icall
     d74:	86 e9       	ldi	r24, 0x96	; 150
     d76:	90 e0       	ldi	r25, 0x00	; 0
     d78:	0e 94 3d 20 	call	0x407a	;  0x407a
     d7c:	e8 81       	ld	r30, Y
     d7e:	f9 81       	ldd	r31, Y+1	; 0x01
     d80:	02 84       	ldd	r0, Z+10	; 0x0a
     d82:	f3 85       	ldd	r31, Z+11	; 0x0b
     d84:	e0 2d       	mov	r30, r0
     d86:	42 e0       	ldi	r20, 0x02	; 2
     d88:	62 e0       	ldi	r22, 0x02	; 2
     d8a:	ce 01       	movw	r24, r28
     d8c:	09 95       	icall
     d8e:	16 c0       	rjmp	.+44     	;  0xdbc
     d90:	60 62       	ori	r22, 0x20	; 32
     d92:	ce 01       	movw	r24, r28
     d94:	0e 94 2e 06 	call	0xc5c	;  0xc5c
     d98:	84 e9       	ldi	r24, 0x94	; 148
     d9a:	91 e1       	ldi	r25, 0x11	; 17
     d9c:	0e 94 3d 20 	call	0x407a	;  0x407a
     da0:	6c 81       	ldd	r22, Y+4	; 0x04
     da2:	60 62       	ori	r22, 0x20	; 32
     da4:	ce 01       	movw	r24, r28
     da6:	0e 94 2e 06 	call	0xc5c	;  0xc5c
     daa:	86 e9       	ldi	r24, 0x96	; 150
     dac:	90 e0       	ldi	r25, 0x00	; 0
     dae:	0e 94 3d 20 	call	0x407a	;  0x407a
     db2:	6c 81       	ldd	r22, Y+4	; 0x04
     db4:	60 62       	ori	r22, 0x20	; 32
     db6:	ce 01       	movw	r24, r28
     db8:	0e 94 2e 06 	call	0xc5c	;  0xc5c
     dbc:	86 e9       	ldi	r24, 0x96	; 150
     dbe:	90 e0       	ldi	r25, 0x00	; 0
     dc0:	0e 94 3d 20 	call	0x407a	;  0x407a
     dc4:	6c 81       	ldd	r22, Y+4	; 0x04
     dc6:	60 62       	ori	r22, 0x20	; 32
     dc8:	ce 01       	movw	r24, r28
     dca:	0e 94 2e 06 	call	0xc5c	;  0xc5c
     dce:	8c e3       	ldi	r24, 0x3C	; 60
     dd0:	90 e0       	ldi	r25, 0x00	; 0
     dd2:	0e 94 3d 20 	call	0x407a	;  0x407a
     dd6:	84 e0       	ldi	r24, 0x04	; 4
     dd8:	8d 83       	std	Y+5, r24	; 0x05
     dda:	ce 01       	movw	r24, r28
     ddc:	0e 94 75 06 	call	0xcea	;  0xcea
     de0:	ce 01       	movw	r24, r28
     de2:	0e 94 36 06 	call	0xc6c	;  0xc6c
     de6:	82 e0       	ldi	r24, 0x02	; 2
     de8:	8e 83       	std	Y+6, r24	; 0x06
     dea:	66 e0       	ldi	r22, 0x06	; 6
     dec:	ce 01       	movw	r24, r28
     dee:	0e 94 2e 06 	call	0xc5c	;  0xc5c
     df2:	ce 01       	movw	r24, r28
     df4:	df 91       	pop	r29
     df6:	cf 91       	pop	r28
     df8:	0c 94 26 06 	jmp	0xc4c	;  0xc4c
     dfc:	21 e0       	ldi	r18, 0x01	; 1
     dfe:	01 c0       	rjmp	.+2      	;  0xe02
     e00:	22 0f       	add	r18, r18
     e02:	6a 95       	dec	r22
     e04:	ea f7       	brpl	.-6      	;  0xe00
     e06:	dc 01       	movw	r26, r24
     e08:	1c 96       	adiw	r26, 0x0c	; 12
     e0a:	2c 93       	st	X, r18
     e0c:	1c 97       	sbiw	r26, 0x0c	; 12
     e0e:	1a 96       	adiw	r26, 0x0a	; 10
     e10:	5c 93       	st	X, r21
     e12:	4e 93       	st	-X, r20
     e14:	19 97       	sbiw	r26, 0x09	; 9
     e16:	ed 91       	ld	r30, X+
     e18:	fc 91       	ld	r31, X
     e1a:	00 84       	ldd	r0, Z+8	; 0x08
     e1c:	f1 85       	ldd	r31, Z+9	; 0x09
     e1e:	e0 2d       	mov	r30, r0
     e20:	60 e0       	ldi	r22, 0x00	; 0
     e22:	09 94       	ijmp
     e24:	fc 01       	movw	r30, r24
     e26:	84 85       	ldd	r24, Z+12	; 0x0c
     e28:	88 23       	and	r24, r24
     e2a:	a9 f0       	breq	.+42     	;  0xe56
     e2c:	21 85       	ldd	r18, Z+9	; 0x09
     e2e:	32 85       	ldd	r19, Z+10	; 0x0a
     e30:	21 15       	cp	r18, r1
     e32:	31 05       	cpc	r19, r1
     e34:	19 f4       	brne	.+6      	;  0xe3c
     e36:	61 11       	cpse	r22, r1
     e38:	06 c0       	rjmp	.+12     	;  0xe46
     e3a:	07 c0       	rjmp	.+14     	;  0xe4a
     e3c:	21 30       	cpi	r18, 0x01	; 1
     e3e:	31 05       	cpc	r19, r1
     e40:	21 f4       	brne	.+8      	;  0xe4a
     e42:	61 11       	cpse	r22, r1
     e44:	02 c0       	rjmp	.+4      	;  0xe4a
     e46:	85 87       	std	Z+13, r24	; 0x0d
     e48:	01 c0       	rjmp	.+2      	;  0xe4c
     e4a:	15 86       	std	Z+13, r1	; 0x0d
     e4c:	65 85       	ldd	r22, Z+13	; 0x0d
     e4e:	cf 01       	movw	r24, r30
     e50:	0e 96       	adiw	r24, 0x0e	; 14
     e52:	0c 94 ea 05 	jmp	0xbd4	;  0xbd4
     e56:	08 95       	ret
     e58:	0f 93       	push	r16
     e5a:	1f 93       	push	r17
     e5c:	cf 93       	push	r28
     e5e:	df 93       	push	r29
     e60:	8c 01       	movw	r16, r24
     e62:	ec 01       	movw	r28, r24
     e64:	2e 96       	adiw	r28, 0x0e	; 14
     e66:	fc 01       	movw	r30, r24
     e68:	63 85       	ldd	r22, Z+11	; 0x0b
     e6a:	ce 01       	movw	r24, r28
     e6c:	0e 94 d1 05 	call	0xba2	;  0xba2
     e70:	01 97       	sbiw	r24, 0x01	; 1
     e72:	69 f4       	brne	.+26     	;  0xe8e
     e74:	61 e0       	ldi	r22, 0x01	; 1
     e76:	ce 01       	movw	r24, r28
     e78:	0e 94 b9 05 	call	0xb72	;  0xb72
     e7c:	f8 01       	movw	r30, r16
     e7e:	14 82       	std	Z+4, r1	; 0x04
     e80:	60 e0       	ldi	r22, 0x00	; 0
     e82:	ce 01       	movw	r24, r28
     e84:	0e 94 ea 05 	call	0xbd4	;  0xbd4
     e88:	81 e0       	ldi	r24, 0x01	; 1
     e8a:	90 e0       	ldi	r25, 0x00	; 0
     e8c:	02 c0       	rjmp	.+4      	;  0xe92
     e8e:	80 e0       	ldi	r24, 0x00	; 0
     e90:	90 e0       	ldi	r25, 0x00	; 0
     e92:	df 91       	pop	r29
     e94:	cf 91       	pop	r28
     e96:	1f 91       	pop	r17
     e98:	0f 91       	pop	r16
     e9a:	08 95       	ret
     e9c:	8f 92       	push	r8
     e9e:	af 92       	push	r10
     ea0:	cf 92       	push	r12
     ea2:	ef 92       	push	r14
     ea4:	0f 93       	push	r16
     ea6:	cf 93       	push	r28
     ea8:	df 93       	push	r29
     eaa:	cd b7       	in	r28, 0x3d	; 61
     eac:	de b7       	in	r29, 0x3e	; 62
     eae:	fc 01       	movw	r30, r24
     eb0:	63 87       	std	Z+11, r22	; 0x0b
     eb2:	14 86       	std	Z+12, r1	; 0x0c
     eb4:	15 86       	std	Z+13, r1	; 0x0d
     eb6:	12 86       	std	Z+10, r1	; 0x0a
     eb8:	11 86       	std	Z+9, r1	; 0x09
     eba:	81 e0       	ldi	r24, 0x01	; 1
     ebc:	98 2f       	mov	r25, r24
     ebe:	01 c0       	rjmp	.+2      	;  0xec2
     ec0:	99 0f       	add	r25, r25
     ec2:	4a 95       	dec	r20
     ec4:	ea f7       	brpl	.-6      	;  0xec0
     ec6:	92 8b       	std	Z+18, r25	; 0x12
     ec8:	98 2f       	mov	r25, r24
     eca:	01 c0       	rjmp	.+2      	;  0xece
     ecc:	99 0f       	add	r25, r25
     ece:	2a 95       	dec	r18
     ed0:	ea f7       	brpl	.-6      	;  0xecc
     ed2:	93 8b       	std	Z+19, r25	; 0x13
     ed4:	98 2f       	mov	r25, r24
     ed6:	01 c0       	rjmp	.+2      	;  0xeda
     ed8:	99 0f       	add	r25, r25
     eda:	0a 95       	dec	r16
     edc:	ea f7       	brpl	.-6      	;  0xed8
     ede:	94 8b       	std	Z+20, r25	; 0x14
     ee0:	98 2f       	mov	r25, r24
     ee2:	01 c0       	rjmp	.+2      	;  0xee6
     ee4:	99 0f       	add	r25, r25
     ee6:	ea 94       	dec	r14
     ee8:	ea f7       	brpl	.-6      	;  0xee4
     eea:	95 8b       	std	Z+21, r25	; 0x15
     eec:	98 2f       	mov	r25, r24
     eee:	01 c0       	rjmp	.+2      	;  0xef2
     ef0:	99 0f       	add	r25, r25
     ef2:	ca 94       	dec	r12
     ef4:	ea f7       	brpl	.-6      	;  0xef0
     ef6:	96 8b       	std	Z+22, r25	; 0x16
     ef8:	98 2f       	mov	r25, r24
     efa:	01 c0       	rjmp	.+2      	;  0xefe
     efc:	99 0f       	add	r25, r25
     efe:	aa 94       	dec	r10
     f00:	ea f7       	brpl	.-6      	;  0xefc
     f02:	97 8b       	std	Z+23, r25	; 0x17
     f04:	01 c0       	rjmp	.+2      	;  0xf08
     f06:	88 0f       	add	r24, r24
     f08:	8a 94       	dec	r8
     f0a:	ea f7       	brpl	.-6      	;  0xf06
     f0c:	80 8f       	std	Z+24, r24	; 0x18
     f0e:	df 91       	pop	r29
     f10:	cf 91       	pop	r28
     f12:	0f 91       	pop	r16
     f14:	ef 90       	pop	r14
     f16:	cf 90       	pop	r12
     f18:	af 90       	pop	r10
     f1a:	8f 90       	pop	r8
     f1c:	08 95       	ret
     f1e:	4f 92       	push	r4
     f20:	5f 92       	push	r5
     f22:	6f 92       	push	r6
     f24:	7f 92       	push	r7
     f26:	8f 92       	push	r8
     f28:	af 92       	push	r10
     f2a:	cf 92       	push	r12
     f2c:	ef 92       	push	r14
     f2e:	0f 93       	push	r16
     f30:	1f 93       	push	r17
     f32:	cf 93       	push	r28
     f34:	df 93       	push	r29
     f36:	00 d0       	rcall	.+0      	;  0xf38
     f38:	1f 92       	push	r1
     f3a:	cd b7       	in	r28, 0x3d	; 61
     f3c:	de b7       	in	r29, 0x3e	; 62
     f3e:	3c 01       	movw	r6, r24
     f40:	1a 89       	ldd	r17, Y+18	; 0x12
     f42:	4b 88       	ldd	r4, Y+19	; 0x13
     f44:	5c 88       	ldd	r5, Y+20	; 0x14
     f46:	2b 83       	std	Y+3, r18	; 0x03
     f48:	4a 83       	std	Y+2, r20	; 0x02
     f4a:	69 83       	std	Y+1, r22	; 0x01
     f4c:	0e 94 1e 06 	call	0xc3c	;  0xc3c
     f50:	8a e6       	ldi	r24, 0x6A	; 106
     f52:	91 e0       	ldi	r25, 0x01	; 1
     f54:	f3 01       	movw	r30, r6
     f56:	91 83       	std	Z+1, r25	; 0x01
     f58:	80 83       	st	Z, r24
     f5a:	c3 01       	movw	r24, r6
     f5c:	0e 96       	adiw	r24, 0x0e	; 14
     f5e:	0e 94 b2 05 	call	0xb64	;  0xb64
     f62:	2b 81       	ldd	r18, Y+3	; 0x03
     f64:	4a 81       	ldd	r20, Y+2	; 0x02
     f66:	69 81       	ldd	r22, Y+1	; 0x01
     f68:	c3 01       	movw	r24, r6
     f6a:	0e 94 4e 07 	call	0xe9c	;  0xe9c
     f6e:	a2 01       	movw	r20, r4
     f70:	61 2f       	mov	r22, r17
     f72:	c3 01       	movw	r24, r6
     f74:	0f 90       	pop	r0
     f76:	0f 90       	pop	r0
     f78:	0f 90       	pop	r0
     f7a:	df 91       	pop	r29
     f7c:	cf 91       	pop	r28
     f7e:	1f 91       	pop	r17
     f80:	0f 91       	pop	r16
     f82:	ef 90       	pop	r14
     f84:	cf 90       	pop	r12
     f86:	af 90       	pop	r10
     f88:	8f 90       	pop	r8
     f8a:	7f 90       	pop	r7
     f8c:	6f 90       	pop	r6
     f8e:	5f 90       	pop	r5
     f90:	4f 90       	pop	r4
     f92:	0c 94 fe 06 	jmp	0xdfc	;  0xdfc
     f96:	ff 92       	push	r15
     f98:	0f 93       	push	r16
     f9a:	1f 93       	push	r17
     f9c:	cf 93       	push	r28
     f9e:	df 93       	push	r29
     fa0:	ec 01       	movw	r28, r24
     fa2:	f6 2e       	mov	r15, r22
     fa4:	8c 01       	movw	r16, r24
     fa6:	02 5f       	subi	r16, 0xF2	; 242
     fa8:	1f 4f       	sbci	r17, 0xFF	; 255
     faa:	9a 89       	ldd	r25, Y+18	; 0x12
     fac:	69 2b       	or	r22, r25
     fae:	c8 01       	movw	r24, r16
     fb0:	0e 94 ea 05 	call	0xbd4	;  0xbd4
     fb4:	9a 89       	ldd	r25, Y+18	; 0x12
     fb6:	90 95       	com	r25
     fb8:	6f 2d       	mov	r22, r15
     fba:	69 23       	and	r22, r25
     fbc:	c8 01       	movw	r24, r16
     fbe:	df 91       	pop	r29
     fc0:	cf 91       	pop	r28
     fc2:	1f 91       	pop	r17
     fc4:	0f 91       	pop	r16
     fc6:	ff 90       	pop	r15
     fc8:	0c 94 ea 05 	jmp	0xbd4	;  0xbd4
     fcc:	36 2f       	mov	r19, r22
     fce:	fc 01       	movw	r30, r24
     fd0:	75 96       	adiw	r30, 0x15	; 21
     fd2:	24 e0       	ldi	r18, 0x04	; 4
     fd4:	60 e0       	ldi	r22, 0x00	; 0
     fd6:	30 ff       	sbrs	r19, 0
     fd8:	02 c0       	rjmp	.+4      	;  0xfde
     fda:	50 81       	ld	r21, Z
     fdc:	65 2b       	or	r22, r21
     fde:	36 95       	lsr	r19
     fe0:	21 50       	subi	r18, 0x01	; 1
     fe2:	31 96       	adiw	r30, 0x01	; 1
     fe4:	21 11       	cpse	r18, r1
     fe6:	f7 cf       	rjmp	.-18     	;  0xfd6
     fe8:	41 30       	cpi	r20, 0x01	; 1
     fea:	11 f4       	brne	.+4      	;  0xff0
     fec:	fc 01       	movw	r30, r24
     fee:	44 89       	ldd	r20, Z+20	; 0x14
     ff0:	fc 01       	movw	r30, r24
     ff2:	25 85       	ldd	r18, Z+13	; 0x0d
     ff4:	62 2b       	or	r22, r18
     ff6:	64 2b       	or	r22, r20
     ff8:	0c 94 cb 07 	jmp	0xf96	;  0xf96
     ffc:	0f 93       	push	r16
     ffe:	1f 93       	push	r17
    1000:	cf 93       	push	r28
    1002:	df 93       	push	r29
    1004:	06 2f       	mov	r16, r22
    1006:	0f 70       	andi	r16, 0x0F	; 15
    1008:	42 30       	cpi	r20, 0x02	; 2
    100a:	19 f4       	brne	.+6      	;  0x1012
    100c:	40 e0       	ldi	r20, 0x00	; 0
    100e:	60 2f       	mov	r22, r16
    1010:	10 c0       	rjmp	.+32     	;  0x1032
    1012:	14 2f       	mov	r17, r20
    1014:	26 2f       	mov	r18, r22
    1016:	ec 01       	movw	r28, r24
    1018:	30 e0       	ldi	r19, 0x00	; 0
    101a:	b9 01       	movw	r22, r18
    101c:	84 e0       	ldi	r24, 0x04	; 4
    101e:	75 95       	asr	r23
    1020:	67 95       	ror	r22
    1022:	8a 95       	dec	r24
    1024:	e1 f7       	brne	.-8      	;  0x101e
    1026:	ce 01       	movw	r24, r28
    1028:	0e 94 e6 07 	call	0xfcc	;  0xfcc
    102c:	41 2f       	mov	r20, r17
    102e:	60 2f       	mov	r22, r16
    1030:	ce 01       	movw	r24, r28
    1032:	df 91       	pop	r29
    1034:	cf 91       	pop	r28
    1036:	1f 91       	pop	r17
    1038:	0f 91       	pop	r16
    103a:	0c 94 e6 07 	jmp	0xfcc	;  0xfcc
    103e:	0f 93       	push	r16
    1040:	1f 93       	push	r17
    1042:	cf 93       	push	r28
    1044:	df 93       	push	r29
    1046:	00 d0       	rcall	.+0      	;  0x1048
    1048:	1f 92       	push	r1
    104a:	cd b7       	in	r28, 0x3d	; 61
    104c:	de b7       	in	r29, 0x3e	; 62
    104e:	8c 01       	movw	r16, r24
    1050:	2b 83       	std	Y+3, r18	; 0x03
    1052:	4a 83       	std	Y+2, r20	; 0x02
    1054:	69 83       	std	Y+1, r22	; 0x01
    1056:	0e 94 2c 07 	call	0xe58	;  0xe58
    105a:	2b 81       	ldd	r18, Y+3	; 0x03
    105c:	4a 81       	ldd	r20, Y+2	; 0x02
    105e:	69 81       	ldd	r22, Y+1	; 0x01
    1060:	c8 01       	movw	r24, r16
    1062:	0f 90       	pop	r0
    1064:	0f 90       	pop	r0
    1066:	0f 90       	pop	r0
    1068:	df 91       	pop	r29
    106a:	cf 91       	pop	r28
    106c:	1f 91       	pop	r17
    106e:	0f 91       	pop	r16
    1070:	0c 94 7d 06 	jmp	0xcfa	;  0xcfa
    1074:	8e bd       	out	0x2e, r24	; 46
    1076:	00 00       	nop
    1078:	0d b4       	in	r0, 0x2d	; 45
    107a:	07 fe       	sbrs	r0, 7
    107c:	fd cf       	rjmp	.-6      	;  0x1078
    107e:	8e b5       	in	r24, 0x2e	; 46
    1080:	08 95       	ret
    1082:	cf 93       	push	r28
    1084:	df 93       	push	r29
    1086:	ec 01       	movw	r28, r24
    1088:	9c b5       	in	r25, 0x2c	; 44
    108a:	9f 7d       	andi	r25, 0xDF	; 223
    108c:	9c bd       	out	0x2c, r25	; 44
    108e:	9c b5       	in	r25, 0x2c	; 44
    1090:	93 7f       	andi	r25, 0xF3	; 243
    1092:	9c bd       	out	0x2c, r25	; 44
    1094:	9c b5       	in	r25, 0x2c	; 44
    1096:	9c 7f       	andi	r25, 0xFC	; 252
    1098:	9c bd       	out	0x2c, r25	; 44
    109a:	9d b5       	in	r25, 0x2d	; 45
    109c:	91 60       	ori	r25, 0x01	; 1
    109e:	9d bd       	out	0x2d, r25	; 45
    10a0:	8a 81       	ldd	r24, Y+2	; 0x02
    10a2:	0e 94 17 21 	call	0x422e	;  0x422e
    10a6:	8c 89       	ldd	r24, Y+20	; 0x14
    10a8:	9d 89       	ldd	r25, Y+21	; 0x15
    10aa:	df 91       	pop	r29
    10ac:	cf 91       	pop	r28
    10ae:	0c 94 3d 20 	jmp	0x407a	;  0x407a
    10b2:	fc 01       	movw	r30, r24
    10b4:	20 81       	ld	r18, Z
    10b6:	31 81       	ldd	r19, Z+1	; 0x01
    10b8:	82 81       	ldd	r24, Z+2	; 0x02
    10ba:	93 81       	ldd	r25, Z+3	; 0x03
    10bc:	28 17       	cp	r18, r24
    10be:	39 07       	cpc	r19, r25
    10c0:	19 f0       	breq	.+6      	;  0x10c8
    10c2:	82 2f       	mov	r24, r18
    10c4:	0c 94 17 21 	jmp	0x422e	;  0x422e
    10c8:	08 95       	ret
    10ca:	60 e0       	ldi	r22, 0x00	; 0
    10cc:	0c 94 41 08 	jmp	0x1082	;  0x1082
    10d0:	61 e0       	ldi	r22, 0x01	; 1
    10d2:	0c 94 41 08 	jmp	0x1082	;  0x1082
    10d6:	cf 92       	push	r12
    10d8:	df 92       	push	r13
    10da:	ef 92       	push	r14
    10dc:	ff 92       	push	r15
    10de:	0f 93       	push	r16
    10e0:	1f 93       	push	r17
    10e2:	cf 93       	push	r28
    10e4:	df 93       	push	r29
    10e6:	00 d0       	rcall	.+0      	;  0x10e8
    10e8:	1f 92       	push	r1
    10ea:	cd b7       	in	r28, 0x3d	; 61
    10ec:	de b7       	in	r29, 0x3e	; 62
    10ee:	7c 01       	movw	r14, r24
    10f0:	14 2f       	mov	r17, r20
    10f2:	2a 83       	std	Y+2, r18	; 0x02
    10f4:	5b 83       	std	Y+3, r21	; 0x03
    10f6:	69 83       	std	Y+1, r22	; 0x01
    10f8:	0e 94 65 08 	call	0x10ca	;  0x10ca
    10fc:	69 81       	ldd	r22, Y+1	; 0x01
    10fe:	86 2f       	mov	r24, r22
    1100:	8f 71       	andi	r24, 0x1F	; 31
    1102:	0e 94 3a 08 	call	0x1074	;  0x1074
    1106:	08 2f       	mov	r16, r24
    1108:	c1 2e       	mov	r12, r17
    110a:	5b 81       	ldd	r21, Y+3	; 0x03
    110c:	d5 2e       	mov	r13, r21
    110e:	2a 81       	ldd	r18, Y+2	; 0x02
    1110:	12 0f       	add	r17, r18
    1112:	1c 15       	cp	r17, r12
    1114:	39 f0       	breq	.+14     	;  0x1124
    1116:	8f ef       	ldi	r24, 0xFF	; 255
    1118:	0e 94 3a 08 	call	0x1074	;  0x1074
    111c:	f6 01       	movw	r30, r12
    111e:	81 93       	st	Z+, r24
    1120:	6f 01       	movw	r12, r30
    1122:	f7 cf       	rjmp	.-18     	;  0x1112
    1124:	c7 01       	movw	r24, r14
    1126:	0e 94 68 08 	call	0x10d0	;  0x10d0
    112a:	80 2f       	mov	r24, r16
    112c:	0f 90       	pop	r0
    112e:	0f 90       	pop	r0
    1130:	0f 90       	pop	r0
    1132:	df 91       	pop	r29
    1134:	cf 91       	pop	r28
    1136:	1f 91       	pop	r17
    1138:	0f 91       	pop	r16
    113a:	ff 90       	pop	r15
    113c:	ef 90       	pop	r14
    113e:	df 90       	pop	r13
    1140:	cf 90       	pop	r12
    1142:	08 95       	ret
    1144:	ef 92       	push	r14
    1146:	ff 92       	push	r15
    1148:	1f 93       	push	r17
    114a:	cf 93       	push	r28
    114c:	df 93       	push	r29
    114e:	1f 92       	push	r1
    1150:	cd b7       	in	r28, 0x3d	; 61
    1152:	de b7       	in	r29, 0x3e	; 62
    1154:	7c 01       	movw	r14, r24
    1156:	69 83       	std	Y+1, r22	; 0x01
    1158:	0e 94 65 08 	call	0x10ca	;  0x10ca
    115c:	69 81       	ldd	r22, Y+1	; 0x01
    115e:	86 2f       	mov	r24, r22
    1160:	8f 71       	andi	r24, 0x1F	; 31
    1162:	0e 94 3a 08 	call	0x1074	;  0x1074
    1166:	8f ef       	ldi	r24, 0xFF	; 255
    1168:	0e 94 3a 08 	call	0x1074	;  0x1074
    116c:	18 2f       	mov	r17, r24
    116e:	c7 01       	movw	r24, r14
    1170:	0e 94 68 08 	call	0x10d0	;  0x10d0
    1174:	81 2f       	mov	r24, r17
    1176:	0f 90       	pop	r0
    1178:	df 91       	pop	r29
    117a:	cf 91       	pop	r28
    117c:	1f 91       	pop	r17
    117e:	ff 90       	pop	r15
    1180:	ef 90       	pop	r14
    1182:	08 95       	ret
    1184:	cf 92       	push	r12
    1186:	df 92       	push	r13
    1188:	ef 92       	push	r14
    118a:	ff 92       	push	r15
    118c:	0f 93       	push	r16
    118e:	1f 93       	push	r17
    1190:	cf 93       	push	r28
    1192:	df 93       	push	r29
    1194:	00 d0       	rcall	.+0      	;  0x1196
    1196:	1f 92       	push	r1
    1198:	cd b7       	in	r28, 0x3d	; 61
    119a:	de b7       	in	r29, 0x3e	; 62
    119c:	7c 01       	movw	r14, r24
    119e:	14 2f       	mov	r17, r20
    11a0:	2a 83       	std	Y+2, r18	; 0x02
    11a2:	5b 83       	std	Y+3, r21	; 0x03
    11a4:	69 83       	std	Y+1, r22	; 0x01
    11a6:	0e 94 65 08 	call	0x10ca	;  0x10ca
    11aa:	69 81       	ldd	r22, Y+1	; 0x01
    11ac:	86 2f       	mov	r24, r22
    11ae:	8f 71       	andi	r24, 0x1F	; 31
    11b0:	80 62       	ori	r24, 0x20	; 32
    11b2:	0e 94 3a 08 	call	0x1074	;  0x1074
    11b6:	08 2f       	mov	r16, r24
    11b8:	c1 2e       	mov	r12, r17
    11ba:	5b 81       	ldd	r21, Y+3	; 0x03
    11bc:	d5 2e       	mov	r13, r21
    11be:	2a 81       	ldd	r18, Y+2	; 0x02
    11c0:	12 0f       	add	r17, r18
    11c2:	1c 15       	cp	r17, r12
    11c4:	31 f0       	breq	.+12     	;  0x11d2
    11c6:	f6 01       	movw	r30, r12
    11c8:	81 91       	ld	r24, Z+
    11ca:	6f 01       	movw	r12, r30
    11cc:	0e 94 3a 08 	call	0x1074	;  0x1074
    11d0:	f8 cf       	rjmp	.-16     	;  0x11c2
    11d2:	c7 01       	movw	r24, r14
    11d4:	0e 94 68 08 	call	0x10d0	;  0x10d0
    11d8:	80 2f       	mov	r24, r16
    11da:	0f 90       	pop	r0
    11dc:	0f 90       	pop	r0
    11de:	0f 90       	pop	r0
    11e0:	df 91       	pop	r29
    11e2:	cf 91       	pop	r28
    11e4:	1f 91       	pop	r17
    11e6:	0f 91       	pop	r16
    11e8:	ff 90       	pop	r15
    11ea:	ef 90       	pop	r14
    11ec:	df 90       	pop	r13
    11ee:	cf 90       	pop	r12
    11f0:	08 95       	ret
    11f2:	ef 92       	push	r14
    11f4:	ff 92       	push	r15
    11f6:	1f 93       	push	r17
    11f8:	cf 93       	push	r28
    11fa:	df 93       	push	r29
    11fc:	00 d0       	rcall	.+0      	;  0x11fe
    11fe:	cd b7       	in	r28, 0x3d	; 61
    1200:	de b7       	in	r29, 0x3e	; 62
    1202:	7c 01       	movw	r14, r24
    1204:	4a 83       	std	Y+2, r20	; 0x02
    1206:	69 83       	std	Y+1, r22	; 0x01
    1208:	0e 94 65 08 	call	0x10ca	;  0x10ca
    120c:	69 81       	ldd	r22, Y+1	; 0x01
    120e:	86 2f       	mov	r24, r22
    1210:	8f 71       	andi	r24, 0x1F	; 31
    1212:	80 62       	ori	r24, 0x20	; 32
    1214:	0e 94 3a 08 	call	0x1074	;  0x1074
    1218:	18 2f       	mov	r17, r24
    121a:	4a 81       	ldd	r20, Y+2	; 0x02
    121c:	84 2f       	mov	r24, r20
    121e:	0e 94 3a 08 	call	0x1074	;  0x1074
    1222:	c7 01       	movw	r24, r14
    1224:	0e 94 68 08 	call	0x10d0	;  0x10d0
    1228:	81 2f       	mov	r24, r17
    122a:	0f 90       	pop	r0
    122c:	0f 90       	pop	r0
    122e:	df 91       	pop	r29
    1230:	cf 91       	pop	r28
    1232:	1f 91       	pop	r17
    1234:	ff 90       	pop	r15
    1236:	ef 90       	pop	r14
    1238:	08 95       	ret
    123a:	bf 92       	push	r11
    123c:	cf 92       	push	r12
    123e:	df 92       	push	r13
    1240:	ef 92       	push	r14
    1242:	ff 92       	push	r15
    1244:	0f 93       	push	r16
    1246:	1f 93       	push	r17
    1248:	cf 93       	push	r28
    124a:	df 93       	push	r29
    124c:	00 d0       	rcall	.+0      	;  0x124e
    124e:	1f 92       	push	r1
    1250:	cd b7       	in	r28, 0x3d	; 61
    1252:	de b7       	in	r29, 0x3e	; 62
    1254:	7c 01       	movw	r14, r24
    1256:	fc 01       	movw	r30, r24
    1258:	c7 80       	ldd	r12, Z+7	; 0x07
    125a:	b4 2e       	mov	r11, r20
    125c:	c4 16       	cp	r12, r20
    125e:	08 f4       	brcc	.+2      	;  0x1262
    1260:	bc 2c       	mov	r11, r12
    1262:	f7 01       	movw	r30, r14
    1264:	80 85       	ldd	r24, Z+8	; 0x08
    1266:	81 11       	cpse	r24, r1
    1268:	02 c0       	rjmp	.+4      	;  0x126e
    126a:	cb 18       	sub	r12, r11
    126c:	01 c0       	rjmp	.+2      	;  0x1270
    126e:	c1 2c       	mov	r12, r1
    1270:	c7 01       	movw	r24, r14
    1272:	29 83       	std	Y+1, r18	; 0x01
    1274:	6a 83       	std	Y+2, r22	; 0x02
    1276:	7b 83       	std	Y+3, r23	; 0x03
    1278:	0e 94 65 08 	call	0x10ca	;  0x10ca
    127c:	29 81       	ldd	r18, Y+1	; 0x01
    127e:	82 2f       	mov	r24, r18
    1280:	0e 94 3a 08 	call	0x1074	;  0x1074
    1284:	d8 2e       	mov	r13, r24
    1286:	6a 81       	ldd	r22, Y+2	; 0x02
    1288:	06 2f       	mov	r16, r22
    128a:	7b 81       	ldd	r23, Y+3	; 0x03
    128c:	17 2f       	mov	r17, r23
    128e:	b6 0e       	add	r11, r22
    1290:	b0 16       	cp	r11, r16
    1292:	31 f0       	breq	.+12     	;  0x12a0
    1294:	f8 01       	movw	r30, r16
    1296:	81 91       	ld	r24, Z+
    1298:	8f 01       	movw	r16, r30
    129a:	0e 94 3a 08 	call	0x1074	;  0x1074
    129e:	f8 cf       	rjmp	.-16     	;  0x1290
    12a0:	cc 20       	and	r12, r12
    12a2:	29 f0       	breq	.+10     	;  0x12ae
    12a4:	80 e0       	ldi	r24, 0x00	; 0
    12a6:	0e 94 3a 08 	call	0x1074	;  0x1074
    12aa:	ca 94       	dec	r12
    12ac:	f9 cf       	rjmp	.-14     	;  0x12a0
    12ae:	c7 01       	movw	r24, r14
    12b0:	0e 94 68 08 	call	0x10d0	;  0x10d0
    12b4:	8d 2d       	mov	r24, r13
    12b6:	0f 90       	pop	r0
    12b8:	0f 90       	pop	r0
    12ba:	0f 90       	pop	r0
    12bc:	df 91       	pop	r29
    12be:	cf 91       	pop	r28
    12c0:	1f 91       	pop	r17
    12c2:	0f 91       	pop	r16
    12c4:	ff 90       	pop	r15
    12c6:	ef 90       	pop	r14
    12c8:	df 90       	pop	r13
    12ca:	cf 90       	pop	r12
    12cc:	bf 90       	pop	r11
    12ce:	08 95       	ret
    12d0:	bf 92       	push	r11
    12d2:	cf 92       	push	r12
    12d4:	df 92       	push	r13
    12d6:	ef 92       	push	r14
    12d8:	ff 92       	push	r15
    12da:	0f 93       	push	r16
    12dc:	1f 93       	push	r17
    12de:	cf 93       	push	r28
    12e0:	df 93       	push	r29
    12e2:	00 d0       	rcall	.+0      	;  0x12e4
    12e4:	cd b7       	in	r28, 0x3d	; 61
    12e6:	de b7       	in	r29, 0x3e	; 62
    12e8:	7c 01       	movw	r14, r24
    12ea:	fc 01       	movw	r30, r24
    12ec:	c7 80       	ldd	r12, Z+7	; 0x07
    12ee:	b4 2e       	mov	r11, r20
    12f0:	c4 16       	cp	r12, r20
    12f2:	08 f4       	brcc	.+2      	;  0x12f6
    12f4:	bc 2c       	mov	r11, r12
    12f6:	f7 01       	movw	r30, r14
    12f8:	80 85       	ldd	r24, Z+8	; 0x08
    12fa:	81 11       	cpse	r24, r1
    12fc:	02 c0       	rjmp	.+4      	;  0x1302
    12fe:	cb 18       	sub	r12, r11
    1300:	01 c0       	rjmp	.+2      	;  0x1304
    1302:	c1 2c       	mov	r12, r1
    1304:	c7 01       	movw	r24, r14
    1306:	69 83       	std	Y+1, r22	; 0x01
    1308:	7a 83       	std	Y+2, r23	; 0x02
    130a:	0e 94 65 08 	call	0x10ca	;  0x10ca
    130e:	81 e6       	ldi	r24, 0x61	; 97
    1310:	0e 94 3a 08 	call	0x1074	;  0x1074
    1314:	d8 2e       	mov	r13, r24
    1316:	69 81       	ldd	r22, Y+1	; 0x01
    1318:	06 2f       	mov	r16, r22
    131a:	7a 81       	ldd	r23, Y+2	; 0x02
    131c:	17 2f       	mov	r17, r23
    131e:	b6 0e       	add	r11, r22
    1320:	b0 16       	cp	r11, r16
    1322:	39 f0       	breq	.+14     	;  0x1332
    1324:	8f ef       	ldi	r24, 0xFF	; 255
    1326:	0e 94 3a 08 	call	0x1074	;  0x1074
    132a:	f8 01       	movw	r30, r16
    132c:	81 93       	st	Z+, r24
    132e:	8f 01       	movw	r16, r30
    1330:	f7 cf       	rjmp	.-18     	;  0x1320
    1332:	cc 20       	and	r12, r12
    1334:	29 f0       	breq	.+10     	;  0x1340
    1336:	8f ef       	ldi	r24, 0xFF	; 255
    1338:	0e 94 3a 08 	call	0x1074	;  0x1074
    133c:	ca 94       	dec	r12
    133e:	f9 cf       	rjmp	.-14     	;  0x1332
    1340:	c7 01       	movw	r24, r14
    1342:	0e 94 68 08 	call	0x10d0	;  0x10d0
    1346:	8d 2d       	mov	r24, r13
    1348:	0f 90       	pop	r0
    134a:	0f 90       	pop	r0
    134c:	df 91       	pop	r29
    134e:	cf 91       	pop	r28
    1350:	1f 91       	pop	r17
    1352:	0f 91       	pop	r16
    1354:	ff 90       	pop	r15
    1356:	ef 90       	pop	r14
    1358:	df 90       	pop	r13
    135a:	cf 90       	pop	r12
    135c:	bf 90       	pop	r11
    135e:	08 95       	ret
    1360:	ef 92       	push	r14
    1362:	ff 92       	push	r15
    1364:	1f 93       	push	r17
    1366:	cf 93       	push	r28
    1368:	df 93       	push	r29
    136a:	1f 92       	push	r1
    136c:	cd b7       	in	r28, 0x3d	; 61
    136e:	de b7       	in	r29, 0x3e	; 62
    1370:	7c 01       	movw	r14, r24
    1372:	69 83       	std	Y+1, r22	; 0x01
    1374:	0e 94 65 08 	call	0x10ca	;  0x10ca
    1378:	69 81       	ldd	r22, Y+1	; 0x01
    137a:	86 2f       	mov	r24, r22
    137c:	0e 94 3a 08 	call	0x1074	;  0x1074
    1380:	18 2f       	mov	r17, r24
    1382:	c7 01       	movw	r24, r14
    1384:	0e 94 68 08 	call	0x10d0	;  0x10d0
    1388:	81 2f       	mov	r24, r17
    138a:	0f 90       	pop	r0
    138c:	df 91       	pop	r29
    138e:	cf 91       	pop	r28
    1390:	1f 91       	pop	r17
    1392:	ff 90       	pop	r15
    1394:	ef 90       	pop	r14
    1396:	08 95       	ret
    1398:	62 ee       	ldi	r22, 0xE2	; 226
    139a:	0c 94 b0 09 	jmp	0x1360	;  0x1360
    139e:	61 ee       	ldi	r22, 0xE1	; 225
    13a0:	0c 94 b0 09 	jmp	0x1360	;  0x1360
    13a4:	6f ef       	ldi	r22, 0xFF	; 255
    13a6:	0c 94 b0 09 	jmp	0x1360	;  0x1360
    13aa:	86 2f       	mov	r24, r22
    13ac:	90 e0       	ldi	r25, 0x00	; 0
    13ae:	26 2f       	mov	r18, r22
    13b0:	21 70       	andi	r18, 0x01	; 1
    13b2:	1f 92       	push	r1
    13b4:	2f 93       	push	r18
    13b6:	95 95       	asr	r25
    13b8:	87 95       	ror	r24
    13ba:	87 70       	andi	r24, 0x07	; 7
    13bc:	99 27       	eor	r25, r25
    13be:	9f 93       	push	r25
    13c0:	8f 93       	push	r24
    13c2:	64 fb       	bst	r22, 4
    13c4:	88 27       	eor	r24, r24
    13c6:	80 f9       	bld	r24, 0
    13c8:	1f 92       	push	r1
    13ca:	8f 93       	push	r24
    13cc:	65 fb       	bst	r22, 5
    13ce:	88 27       	eor	r24, r24
    13d0:	80 f9       	bld	r24, 0
    13d2:	1f 92       	push	r1
    13d4:	8f 93       	push	r24
    13d6:	66 fb       	bst	r22, 6
    13d8:	88 27       	eor	r24, r24
    13da:	80 f9       	bld	r24, 0
    13dc:	1f 92       	push	r1
    13de:	8f 93       	push	r24
    13e0:	1f 92       	push	r1
    13e2:	6f 93       	push	r22
    13e4:	87 e8       	ldi	r24, 0x87	; 135
    13e6:	92 e0       	ldi	r25, 0x02	; 2
    13e8:	9f 93       	push	r25
    13ea:	8f 93       	push	r24
    13ec:	0e 94 a5 33 	call	0x674a	;  0x674a
    13f0:	8d b7       	in	r24, 0x3d	; 61
    13f2:	9e b7       	in	r25, 0x3e	; 62
    13f4:	0e 96       	adiw	r24, 0x0e	; 14
    13f6:	0f b6       	in	r0, 0x3f	; 63
    13f8:	f8 94       	cli
    13fa:	9e bf       	out	0x3e, r25	; 62
    13fc:	0f be       	out	0x3f, r0	; 63
    13fe:	8d bf       	out	0x3d, r24	; 61
    1400:	08 95       	ret
    1402:	cf 92       	push	r12
    1404:	df 92       	push	r13
    1406:	ef 92       	push	r14
    1408:	ff 92       	push	r15
    140a:	0f 93       	push	r16
    140c:	1f 93       	push	r17
    140e:	cf 93       	push	r28
    1410:	df 93       	push	r29
    1412:	1f 92       	push	r1
    1414:	cd b7       	in	r28, 0x3d	; 61
    1416:	de b7       	in	r29, 0x3e	; 62
    1418:	7c 01       	movw	r14, r24
    141a:	c2 2e       	mov	r12, r18
    141c:	7f 93       	push	r23
    141e:	6f 93       	push	r22
    1420:	21 e8       	ldi	r18, 0x81	; 129
    1422:	32 e0       	ldi	r19, 0x02	; 2
    1424:	3f 93       	push	r19
    1426:	2f 93       	push	r18
    1428:	49 83       	std	Y+1, r20	; 0x01
    142a:	0e 94 a5 33 	call	0x674a	;  0x674a
    142e:	49 81       	ldd	r20, Y+1	; 0x01
    1430:	c4 0e       	add	r12, r20
    1432:	0f 90       	pop	r0
    1434:	0f 90       	pop	r0
    1436:	0f 90       	pop	r0
    1438:	0f 90       	pop	r0
    143a:	09 e7       	ldi	r16, 0x79	; 121
    143c:	12 e0       	ldi	r17, 0x02	; 2
    143e:	4c 15       	cp	r20, r12
    1440:	99 f0       	breq	.+38     	;  0x1468
    1442:	dd 24       	eor	r13, r13
    1444:	d3 94       	inc	r13
    1446:	d4 0e       	add	r13, r20
    1448:	64 2f       	mov	r22, r20
    144a:	c7 01       	movw	r24, r14
    144c:	0e 94 a2 08 	call	0x1144	;  0x1144
    1450:	1f 92       	push	r1
    1452:	8f 93       	push	r24
    1454:	1f 93       	push	r17
    1456:	0f 93       	push	r16
    1458:	0e 94 a5 33 	call	0x674a	;  0x674a
    145c:	0f 90       	pop	r0
    145e:	0f 90       	pop	r0
    1460:	0f 90       	pop	r0
    1462:	0f 90       	pop	r0
    1464:	4d 2d       	mov	r20, r13
    1466:	eb cf       	rjmp	.-42     	;  0x143e
    1468:	86 e7       	ldi	r24, 0x76	; 118
    146a:	92 e0       	ldi	r25, 0x02	; 2
    146c:	9f 93       	push	r25
    146e:	8f 93       	push	r24
    1470:	0e 94 a5 33 	call	0x674a	;  0x674a
    1474:	0f 90       	pop	r0
    1476:	0f 90       	pop	r0
    1478:	0f 90       	pop	r0
    147a:	df 91       	pop	r29
    147c:	cf 91       	pop	r28
    147e:	1f 91       	pop	r17
    1480:	0f 91       	pop	r16
    1482:	ff 90       	pop	r15
    1484:	ef 90       	pop	r14
    1486:	df 90       	pop	r13
    1488:	cf 90       	pop	r12
    148a:	08 95       	ret
    148c:	2f 92       	push	r2
    148e:	3f 92       	push	r3
    1490:	4f 92       	push	r4
    1492:	5f 92       	push	r5
    1494:	6f 92       	push	r6
    1496:	7f 92       	push	r7
    1498:	8f 92       	push	r8
    149a:	9f 92       	push	r9
    149c:	af 92       	push	r10
    149e:	bf 92       	push	r11
    14a0:	cf 92       	push	r12
    14a2:	df 92       	push	r13
    14a4:	ef 92       	push	r14
    14a6:	ff 92       	push	r15
    14a8:	0f 93       	push	r16
    14aa:	1f 93       	push	r17
    14ac:	cf 93       	push	r28
    14ae:	df 93       	push	r29
    14b0:	1f 92       	push	r1
    14b2:	cd b7       	in	r28, 0x3d	; 61
    14b4:	de b7       	in	r29, 0x3e	; 62
    14b6:	6c 01       	movw	r12, r24
    14b8:	32 2e       	mov	r3, r18
    14ba:	4d b6       	in	r4, 0x3d	; 61
    14bc:	5e b6       	in	r5, 0x3e	; 62
    14be:	7f 93       	push	r23
    14c0:	6f 93       	push	r22
    14c2:	80 e7       	ldi	r24, 0x70	; 112
    14c4:	92 e0       	ldi	r25, 0x02	; 2
    14c6:	9f 93       	push	r25
    14c8:	8f 93       	push	r24
    14ca:	49 83       	std	Y+1, r20	; 0x01
    14cc:	0e 94 a5 33 	call	0x674a	;  0x674a
    14d0:	39 81       	ldd	r19, Y+1	; 0x01
    14d2:	33 0e       	add	r3, r19
    14d4:	0f 90       	pop	r0
    14d6:	0f 90       	pop	r0
    14d8:	0f 90       	pop	r0
    14da:	0f 90       	pop	r0
    14dc:	8c e6       	ldi	r24, 0x6C	; 108
    14de:	a8 2e       	mov	r10, r24
    14e0:	82 e0       	ldi	r24, 0x02	; 2
    14e2:	b8 2e       	mov	r11, r24
    14e4:	97 e6       	ldi	r25, 0x67	; 103
    14e6:	89 2e       	mov	r8, r25
    14e8:	92 e0       	ldi	r25, 0x02	; 2
    14ea:	99 2e       	mov	r9, r25
    14ec:	33 15       	cp	r19, r3
    14ee:	e1 f1       	breq	.+120    	;  0x1568
    14f0:	6d b6       	in	r6, 0x3d	; 61
    14f2:	7e b6       	in	r7, 0x3e	; 62
    14f4:	f6 01       	movw	r30, r12
    14f6:	26 85       	ldd	r18, Z+14	; 0x0e
    14f8:	02 2f       	mov	r16, r18
    14fa:	10 e0       	ldi	r17, 0x00	; 0
    14fc:	8d b7       	in	r24, 0x3d	; 61
    14fe:	9e b7       	in	r25, 0x3e	; 62
    1500:	80 1b       	sub	r24, r16
    1502:	91 0b       	sbc	r25, r17
    1504:	0f b6       	in	r0, 0x3f	; 63
    1506:	f8 94       	cli
    1508:	9e bf       	out	0x3e, r25	; 62
    150a:	0f be       	out	0x3f, r0	; 63
    150c:	8d bf       	out	0x3d, r24	; 61
    150e:	ed b7       	in	r30, 0x3d	; 61
    1510:	fe b7       	in	r31, 0x3e	; 62
    1512:	31 96       	adiw	r30, 0x01	; 1
    1514:	7f 01       	movw	r14, r30
    1516:	22 24       	eor	r2, r2
    1518:	23 94       	inc	r2
    151a:	23 0e       	add	r2, r19
    151c:	af 01       	movw	r20, r30
    151e:	63 2f       	mov	r22, r19
    1520:	c6 01       	movw	r24, r12
    1522:	0e 94 6b 08 	call	0x10d6	;  0x10d6
    1526:	bf 92       	push	r11
    1528:	af 92       	push	r10
    152a:	0e 94 a5 33 	call	0x674a	;  0x674a
    152e:	0e 0d       	add	r16, r14
    1530:	1f 1d       	adc	r17, r15
    1532:	0f 90       	pop	r0
    1534:	0f 90       	pop	r0
    1536:	01 50       	subi	r16, 0x01	; 1
    1538:	11 09       	sbc	r17, r1
    153a:	0e 15       	cp	r16, r14
    153c:	1f 05       	cpc	r17, r15
    153e:	68 f0       	brcs	.+26     	;  0x155a
    1540:	f8 01       	movw	r30, r16
    1542:	80 81       	ld	r24, Z
    1544:	1f 92       	push	r1
    1546:	8f 93       	push	r24
    1548:	9f 92       	push	r9
    154a:	8f 92       	push	r8
    154c:	0e 94 a5 33 	call	0x674a	;  0x674a
    1550:	0f 90       	pop	r0
    1552:	0f 90       	pop	r0
    1554:	0f 90       	pop	r0
    1556:	0f 90       	pop	r0
    1558:	ee cf       	rjmp	.-36     	;  0x1536
    155a:	0f b6       	in	r0, 0x3f	; 63
    155c:	f8 94       	cli
    155e:	7e be       	out	0x3e, r7	; 62
    1560:	0f be       	out	0x3f, r0	; 63
    1562:	6d be       	out	0x3d, r6	; 61
    1564:	32 2d       	mov	r19, r2
    1566:	c2 cf       	rjmp	.-124    	;  0x14ec
    1568:	84 e6       	ldi	r24, 0x64	; 100
    156a:	92 e0       	ldi	r25, 0x02	; 2
    156c:	9f 93       	push	r25
    156e:	8f 93       	push	r24
    1570:	0e 94 a5 33 	call	0x674a	;  0x674a
    1574:	0f 90       	pop	r0
    1576:	0f 90       	pop	r0
    1578:	0f b6       	in	r0, 0x3f	; 63
    157a:	f8 94       	cli
    157c:	5e be       	out	0x3e, r5	; 62
    157e:	0f be       	out	0x3f, r0	; 63
    1580:	4d be       	out	0x3d, r4	; 61
    1582:	0f 90       	pop	r0
    1584:	df 91       	pop	r29
    1586:	cf 91       	pop	r28
    1588:	1f 91       	pop	r17
    158a:	0f 91       	pop	r16
    158c:	ff 90       	pop	r15
    158e:	ef 90       	pop	r14
    1590:	df 90       	pop	r13
    1592:	cf 90       	pop	r12
    1594:	bf 90       	pop	r11
    1596:	af 90       	pop	r10
    1598:	9f 90       	pop	r9
    159a:	8f 90       	pop	r8
    159c:	7f 90       	pop	r7
    159e:	6f 90       	pop	r6
    15a0:	5f 90       	pop	r5
    15a2:	4f 90       	pop	r4
    15a4:	3f 90       	pop	r3
    15a6:	2f 90       	pop	r2
    15a8:	08 95       	ret
    15aa:	fc 01       	movw	r30, r24
    15ac:	71 83       	std	Z+1, r23	; 0x01
    15ae:	60 83       	st	Z, r22
    15b0:	53 83       	std	Z+3, r21	; 0x03
    15b2:	42 83       	std	Z+2, r20	; 0x02
    15b4:	16 82       	std	Z+6, r1	; 0x06
    15b6:	80 e2       	ldi	r24, 0x20	; 32
    15b8:	87 83       	std	Z+7, r24	; 0x07
    15ba:	10 86       	std	Z+8, r1	; 0x08
    15bc:	85 e0       	ldi	r24, 0x05	; 5
    15be:	86 87       	std	Z+14, r24	; 0x0e
    15c0:	85 e0       	ldi	r24, 0x05	; 5
    15c2:	90 e0       	ldi	r25, 0x00	; 0
    15c4:	a0 e0       	ldi	r26, 0x00	; 0
    15c6:	b0 e0       	ldi	r27, 0x00	; 0
    15c8:	84 8b       	std	Z+20, r24	; 0x14
    15ca:	95 8b       	std	Z+21, r25	; 0x15
    15cc:	a6 8b       	std	Z+22, r26	; 0x16
    15ce:	b7 8b       	std	Z+23, r27	; 0x17
    15d0:	11 86       	std	Z+9, r1	; 0x09
    15d2:	08 95       	ret
    15d4:	46 2f       	mov	r20, r22
    15d6:	6e 37       	cpi	r22, 0x7E	; 126
    15d8:	08 f0       	brcs	.+2      	;  0x15dc
    15da:	4d e7       	ldi	r20, 0x7D	; 125
    15dc:	65 e0       	ldi	r22, 0x05	; 5
    15de:	0c 94 f9 08 	jmp	0x11f2	;  0x11f2
    15e2:	65 e0       	ldi	r22, 0x05	; 5
    15e4:	0c 94 a2 08 	jmp	0x1144	;  0x1144
    15e8:	cf 93       	push	r28
    15ea:	df 93       	push	r29
    15ec:	ec 01       	movw	r28, r24
    15ee:	60 e0       	ldi	r22, 0x00	; 0
    15f0:	0e 94 59 08 	call	0x10b2	;  0x10b2
    15f4:	88 89       	ldd	r24, Y+16	; 0x10
    15f6:	99 89       	ldd	r25, Y+17	; 0x11
    15f8:	0e 94 3d 20 	call	0x407a	;  0x407a
    15fc:	6d e1       	ldi	r22, 0x1D	; 29
    15fe:	ce 01       	movw	r24, r28
    1600:	0e 94 a2 08 	call	0x1144	;  0x1144
    1604:	81 ff       	sbrs	r24, 1
    1606:	07 c0       	rjmp	.+14     	;  0x1616
    1608:	88 89       	ldd	r24, Y+16	; 0x10
    160a:	99 89       	ldd	r25, Y+17	; 0x11
    160c:	0e 94 3d 20 	call	0x407a	;  0x407a
    1610:	ce 01       	movw	r24, r28
    1612:	0e 94 cf 09 	call	0x139e	;  0x139e
    1616:	60 e0       	ldi	r22, 0x00	; 0
    1618:	ce 01       	movw	r24, r28
    161a:	0e 94 a2 08 	call	0x1144	;  0x1144
    161e:	48 2f       	mov	r20, r24
    1620:	4e 7f       	andi	r20, 0xFE	; 254
    1622:	60 e0       	ldi	r22, 0x00	; 0
    1624:	ce 01       	movw	r24, r28
    1626:	0e 94 f9 08 	call	0x11f2	;  0x11f2
    162a:	62 e0       	ldi	r22, 0x02	; 2
    162c:	ce 01       	movw	r24, r28
    162e:	0e 94 a2 08 	call	0x1144	;  0x1144
    1632:	e9 ed       	ldi	r30, 0xD9	; 217
    1634:	f2 e0       	ldi	r31, 0x02	; 2
    1636:	e4 91       	lpm	r30, Z
    1638:	41 e0       	ldi	r20, 0x01	; 1
    163a:	50 e0       	ldi	r21, 0x00	; 0
    163c:	01 c0       	rjmp	.+2      	;  0x1640
    163e:	44 0f       	add	r20, r20
    1640:	ea 95       	dec	r30
    1642:	ea f7       	brpl	.-6      	;  0x163e
    1644:	48 2b       	or	r20, r24
    1646:	62 e0       	ldi	r22, 0x02	; 2
    1648:	ce 01       	movw	r24, r28
    164a:	df 91       	pop	r29
    164c:	cf 91       	pop	r28
    164e:	0c 94 f9 08 	jmp	0x11f2	;  0x11f2
    1652:	cf 93       	push	r28
    1654:	df 93       	push	r29
    1656:	ec 01       	movw	r28, r24
    1658:	60 e0       	ldi	r22, 0x00	; 0
    165a:	0e 94 a2 08 	call	0x1144	;  0x1144
    165e:	81 fd       	sbrc	r24, 1
    1660:	0e c0       	rjmp	.+28     	;  0x167e
    1662:	48 2f       	mov	r20, r24
    1664:	42 60       	ori	r20, 0x02	; 2
    1666:	60 e0       	ldi	r22, 0x00	; 0
    1668:	ce 01       	movw	r24, r28
    166a:	0e 94 f9 08 	call	0x11f2	;  0x11f2
    166e:	65 e0       	ldi	r22, 0x05	; 5
    1670:	70 e0       	ldi	r23, 0x00	; 0
    1672:	80 e0       	ldi	r24, 0x00	; 0
    1674:	90 e0       	ldi	r25, 0x00	; 0
    1676:	df 91       	pop	r29
    1678:	cf 91       	pop	r28
    167a:	0c 94 01 20 	jmp	0x4002	;  0x4002
    167e:	df 91       	pop	r29
    1680:	cf 91       	pop	r28
    1682:	08 95       	ret
    1684:	0f 93       	push	r16
    1686:	cf 93       	push	r28
    1688:	df 93       	push	r29
    168a:	ec 01       	movw	r28, r24
    168c:	21 11       	cpse	r18, r1
    168e:	02 c0       	rjmp	.+4      	;  0x1694
    1690:	20 ea       	ldi	r18, 0xA0	; 160
    1692:	01 c0       	rjmp	.+2      	;  0x1696
    1694:	20 eb       	ldi	r18, 0xB0	; 176
    1696:	ce 01       	movw	r24, r28
    1698:	0e 94 1d 09 	call	0x123a	;  0x123a
    169c:	00 23       	and	r16, r16
    169e:	39 f0       	breq	.+14     	;  0x16ae
    16a0:	61 e0       	ldi	r22, 0x01	; 1
    16a2:	ce 01       	movw	r24, r28
    16a4:	df 91       	pop	r29
    16a6:	cf 91       	pop	r28
    16a8:	0f 91       	pop	r16
    16aa:	0c 94 59 08 	jmp	0x10b2	;  0x10b2
    16ae:	df 91       	pop	r29
    16b0:	cf 91       	pop	r28
    16b2:	0f 91       	pop	r16
    16b4:	08 95       	ret
    16b6:	0f 93       	push	r16
    16b8:	cf 93       	push	r28
    16ba:	df 93       	push	r29
    16bc:	ec 01       	movw	r28, r24
    16be:	01 e0       	ldi	r16, 0x01	; 1
    16c0:	0e 94 42 0b 	call	0x1684	;  0x1684
    16c4:	ce 01       	movw	r24, r28
    16c6:	0e 94 d2 09 	call	0x13a4	;  0x13a4
    16ca:	80 73       	andi	r24, 0x30	; 48
    16cc:	d9 f3       	breq	.-10     	;  0x16c4
    16ce:	60 e0       	ldi	r22, 0x00	; 0
    16d0:	ce 01       	movw	r24, r28
    16d2:	0e 94 59 08 	call	0x10b2	;  0x10b2
    16d6:	40 e7       	ldi	r20, 0x70	; 112
    16d8:	67 e0       	ldi	r22, 0x07	; 7
    16da:	ce 01       	movw	r24, r28
    16dc:	0e 94 f9 08 	call	0x11f2	;  0x11f2
    16e0:	84 ff       	sbrs	r24, 4
    16e2:	05 c0       	rjmp	.+10     	;  0x16ee
    16e4:	ce 01       	movw	r24, r28
    16e6:	0e 94 cf 09 	call	0x139e	;  0x139e
    16ea:	80 e0       	ldi	r24, 0x00	; 0
    16ec:	01 c0       	rjmp	.+2      	;  0x16f0
    16ee:	81 e0       	ldi	r24, 0x01	; 1
    16f0:	df 91       	pop	r29
    16f2:	cf 91       	pop	r28
    16f4:	0f 91       	pop	r16
    16f6:	08 95       	ret
    16f8:	20 e0       	ldi	r18, 0x00	; 0
    16fa:	0c 94 5b 0b 	jmp	0x16b6	;  0x16b6
    16fe:	0f 93       	push	r16
    1700:	1f 93       	push	r17
    1702:	cf 93       	push	r28
    1704:	df 93       	push	r29
    1706:	8c 01       	movw	r16, r24
    1708:	eb 01       	movw	r28, r22
    170a:	67 e1       	ldi	r22, 0x17	; 23
    170c:	0e 94 a2 08 	call	0x1144	;  0x1144
    1710:	80 fd       	sbrc	r24, 0
    1712:	0b c0       	rjmp	.+22     	;  0x172a
    1714:	20 97       	sbiw	r28, 0x00	; 0
    1716:	59 f0       	breq	.+22     	;  0x172e
    1718:	c8 01       	movw	r24, r16
    171a:	0e 94 d2 09 	call	0x13a4	;  0x13a4
    171e:	90 e0       	ldi	r25, 0x00	; 0
    1720:	95 95       	asr	r25
    1722:	87 95       	ror	r24
    1724:	87 70       	andi	r24, 0x07	; 7
    1726:	88 83       	st	Y, r24
    1728:	02 c0       	rjmp	.+4      	;  0x172e
    172a:	80 e0       	ldi	r24, 0x00	; 0
    172c:	01 c0       	rjmp	.+2      	;  0x1730
    172e:	81 e0       	ldi	r24, 0x01	; 1
    1730:	df 91       	pop	r29
    1732:	cf 91       	pop	r28
    1734:	1f 91       	pop	r17
    1736:	0f 91       	pop	r16
    1738:	08 95       	ret
    173a:	60 e0       	ldi	r22, 0x00	; 0
    173c:	70 e0       	ldi	r23, 0x00	; 0
    173e:	0c 94 7f 0b 	jmp	0x16fe	;  0x16fe
    1742:	cf 93       	push	r28
    1744:	df 93       	push	r29
    1746:	ec 01       	movw	r28, r24
    1748:	0e 94 68 09 	call	0x12d0	;  0x12d0
    174c:	40 e7       	ldi	r20, 0x70	; 112
    174e:	67 e0       	ldi	r22, 0x07	; 7
    1750:	ce 01       	movw	r24, r28
    1752:	df 91       	pop	r29
    1754:	cf 91       	pop	r28
    1756:	0c 94 f9 08 	jmp	0x11f2	;  0x11f2
    175a:	0f 93       	push	r16
    175c:	1f 93       	push	r17
    175e:	cf 93       	push	r28
    1760:	df 93       	push	r29
    1762:	ec 01       	movw	r28, r24
    1764:	8b 01       	movw	r16, r22
    1766:	2e 85       	ldd	r18, Y+14	; 0x0e
    1768:	ab 01       	movw	r20, r22
    176a:	6a e0       	ldi	r22, 0x0A	; 10
    176c:	0e 94 c2 08 	call	0x1184	;  0x1184
    1770:	2e 85       	ldd	r18, Y+14	; 0x0e
    1772:	a8 01       	movw	r20, r16
    1774:	60 e1       	ldi	r22, 0x10	; 16
    1776:	ce 01       	movw	r24, r28
    1778:	0e 94 c2 08 	call	0x1184	;  0x1184
    177c:	4f 81       	ldd	r20, Y+7	; 0x07
    177e:	61 e1       	ldi	r22, 0x11	; 17
    1780:	ce 01       	movw	r24, r28
    1782:	df 91       	pop	r29
    1784:	cf 91       	pop	r28
    1786:	1f 91       	pop	r17
    1788:	0f 91       	pop	r16
    178a:	0c 94 f9 08 	jmp	0x11f2	;  0x11f2
    178e:	ef 92       	push	r14
    1790:	ff 92       	push	r15
    1792:	0f 93       	push	r16
    1794:	1f 93       	push	r17
    1796:	cf 93       	push	r28
    1798:	df 93       	push	r29
    179a:	8c 01       	movw	r16, r24
    179c:	c6 2f       	mov	r28, r22
    179e:	7a 01       	movw	r14, r20
    17a0:	61 11       	cpse	r22, r1
    17a2:	08 c0       	rjmp	.+16     	;  0x17b4
    17a4:	fc 01       	movw	r30, r24
    17a6:	46 85       	ldd	r20, Z+14	; 0x0e
    17a8:	50 e0       	ldi	r21, 0x00	; 0
    17aa:	b7 01       	movw	r22, r14
    17ac:	09 96       	adiw	r24, 0x09	; 9
    17ae:	0e 94 16 33 	call	0x662c	;  0x662c
    17b2:	05 c0       	rjmp	.+10     	;  0x17be
    17b4:	67 30       	cpi	r22, 0x07	; 7
    17b6:	08 f0       	brcs	.+2      	;  0x17ba
    17b8:	37 c0       	rjmp	.+110    	;  0x1828
    17ba:	61 30       	cpi	r22, 0x01	; 1
    17bc:	41 f4       	brne	.+16     	;  0x17ce
    17be:	ec 2f       	mov	r30, r28
    17c0:	f0 e0       	ldi	r31, 0x00	; 0
    17c2:	ed 52       	subi	r30, 0x2D	; 45
    17c4:	fd 4f       	sbci	r31, 0xFD	; 253
    17c6:	64 91       	lpm	r22, Z
    17c8:	f8 01       	movw	r30, r16
    17ca:	26 85       	ldd	r18, Z+14	; 0x0e
    17cc:	06 c0       	rjmp	.+12     	;  0x17da
    17ce:	e6 2f       	mov	r30, r22
    17d0:	f0 e0       	ldi	r31, 0x00	; 0
    17d2:	ed 52       	subi	r30, 0x2D	; 45
    17d4:	fd 4f       	sbci	r31, 0xFD	; 253
    17d6:	64 91       	lpm	r22, Z
    17d8:	21 e0       	ldi	r18, 0x01	; 1
    17da:	a7 01       	movw	r20, r14
    17dc:	c8 01       	movw	r24, r16
    17de:	0e 94 c2 08 	call	0x1184	;  0x1184
    17e2:	d0 e0       	ldi	r29, 0x00	; 0
    17e4:	fe 01       	movw	r30, r28
    17e6:	e3 53       	subi	r30, 0x33	; 51
    17e8:	fd 4f       	sbci	r31, 0xFD	; 253
    17ea:	64 91       	lpm	r22, Z
    17ec:	f8 01       	movw	r30, r16
    17ee:	47 81       	ldd	r20, Z+7	; 0x07
    17f0:	c8 01       	movw	r24, r16
    17f2:	0e 94 f9 08 	call	0x11f2	;  0x11f2
    17f6:	62 e0       	ldi	r22, 0x02	; 2
    17f8:	c8 01       	movw	r24, r16
    17fa:	0e 94 a2 08 	call	0x1144	;  0x1144
    17fe:	fe 01       	movw	r30, r28
    1800:	e7 52       	subi	r30, 0x27	; 39
    1802:	fd 4f       	sbci	r31, 0xFD	; 253
    1804:	e4 91       	lpm	r30, Z
    1806:	41 e0       	ldi	r20, 0x01	; 1
    1808:	50 e0       	ldi	r21, 0x00	; 0
    180a:	01 c0       	rjmp	.+2      	;  0x180e
    180c:	44 0f       	add	r20, r20
    180e:	ea 95       	dec	r30
    1810:	ea f7       	brpl	.-6      	;  0x180c
    1812:	48 2b       	or	r20, r24
    1814:	62 e0       	ldi	r22, 0x02	; 2
    1816:	c8 01       	movw	r24, r16
    1818:	df 91       	pop	r29
    181a:	cf 91       	pop	r28
    181c:	1f 91       	pop	r17
    181e:	0f 91       	pop	r16
    1820:	ff 90       	pop	r15
    1822:	ef 90       	pop	r14
    1824:	0c 94 f9 08 	jmp	0x11f2	;  0x11f2
    1828:	df 91       	pop	r29
    182a:	cf 91       	pop	r28
    182c:	1f 91       	pop	r17
    182e:	0f 91       	pop	r16
    1830:	ff 90       	pop	r15
    1832:	ef 90       	pop	r14
    1834:	08 95       	ret
    1836:	0f 93       	push	r16
    1838:	1f 93       	push	r17
    183a:	cf 93       	push	r28
    183c:	8c 01       	movw	r16, r24
    183e:	c6 2f       	mov	r28, r22
    1840:	62 e0       	ldi	r22, 0x02	; 2
    1842:	0e 94 a2 08 	call	0x1144	;  0x1144
    1846:	ec 2f       	mov	r30, r28
    1848:	f0 e0       	ldi	r31, 0x00	; 0
    184a:	e7 52       	subi	r30, 0x27	; 39
    184c:	fd 4f       	sbci	r31, 0xFD	; 253
    184e:	e4 91       	lpm	r30, Z
    1850:	21 e0       	ldi	r18, 0x01	; 1
    1852:	30 e0       	ldi	r19, 0x00	; 0
    1854:	01 c0       	rjmp	.+2      	;  0x1858
    1856:	22 0f       	add	r18, r18
    1858:	ea 95       	dec	r30
    185a:	ea f7       	brpl	.-6      	;  0x1856
    185c:	20 95       	com	r18
    185e:	42 2f       	mov	r20, r18
    1860:	48 23       	and	r20, r24
    1862:	62 e0       	ldi	r22, 0x02	; 2
    1864:	c8 01       	movw	r24, r16
    1866:	cf 91       	pop	r28
    1868:	1f 91       	pop	r17
    186a:	0f 91       	pop	r16
    186c:	0c 94 f9 08 	jmp	0x11f2	;  0x11f2
    1870:	cf 93       	push	r28
    1872:	df 93       	push	r29
    1874:	ec 01       	movw	r28, r24
    1876:	0e 94 29 0b 	call	0x1652	;  0x1652
    187a:	60 e0       	ldi	r22, 0x00	; 0
    187c:	ce 01       	movw	r24, r28
    187e:	0e 94 a2 08 	call	0x1144	;  0x1144
    1882:	48 2f       	mov	r20, r24
    1884:	41 60       	ori	r20, 0x01	; 1
    1886:	60 e0       	ldi	r22, 0x00	; 0
    1888:	ce 01       	movw	r24, r28
    188a:	0e 94 f9 08 	call	0x11f2	;  0x11f2
    188e:	40 e7       	ldi	r20, 0x70	; 112
    1890:	67 e0       	ldi	r22, 0x07	; 7
    1892:	ce 01       	movw	r24, r28
    1894:	0e 94 f9 08 	call	0x11f2	;  0x11f2
    1898:	61 e0       	ldi	r22, 0x01	; 1
    189a:	ce 01       	movw	r24, r28
    189c:	0e 94 59 08 	call	0x10b2	;  0x10b2
    18a0:	89 85       	ldd	r24, Y+9	; 0x09
    18a2:	88 23       	and	r24, r24
    18a4:	49 f0       	breq	.+18     	;  0x18b8
    18a6:	2e 85       	ldd	r18, Y+14	; 0x0e
    18a8:	ae 01       	movw	r20, r28
    18aa:	47 5f       	subi	r20, 0xF7	; 247
    18ac:	5f 4f       	sbci	r21, 0xFF	; 255
    18ae:	6a e0       	ldi	r22, 0x0A	; 10
    18b0:	ce 01       	movw	r24, r28
    18b2:	0e 94 c2 08 	call	0x1184	;  0x1184
    18b6:	04 c0       	rjmp	.+8      	;  0x18c0
    18b8:	60 e0       	ldi	r22, 0x00	; 0
    18ba:	ce 01       	movw	r24, r28
    18bc:	0e 94 1b 0c 	call	0x1836	;  0x1836
    18c0:	6d e1       	ldi	r22, 0x1D	; 29
    18c2:	ce 01       	movw	r24, r28
    18c4:	0e 94 a2 08 	call	0x1144	;  0x1144
    18c8:	81 ff       	sbrs	r24, 1
    18ca:	05 c0       	rjmp	.+10     	;  0x18d6
    18cc:	ce 01       	movw	r24, r28
    18ce:	df 91       	pop	r29
    18d0:	cf 91       	pop	r28
    18d2:	0c 94 cf 09 	jmp	0x139e	;  0x139e
    18d6:	df 91       	pop	r29
    18d8:	cf 91       	pop	r28
    18da:	08 95       	ret
    18dc:	cf 93       	push	r28
    18de:	df 93       	push	r29
    18e0:	ec 01       	movw	r28, r24
    18e2:	0e 94 65 08 	call	0x10ca	;  0x10ca
    18e6:	80 e5       	ldi	r24, 0x50	; 80
    18e8:	0e 94 3a 08 	call	0x1074	;  0x1074
    18ec:	83 e7       	ldi	r24, 0x73	; 115
    18ee:	0e 94 3a 08 	call	0x1074	;  0x1074
    18f2:	ce 01       	movw	r24, r28
    18f4:	df 91       	pop	r29
    18f6:	cf 91       	pop	r28
    18f8:	0c 94 68 08 	jmp	0x10d0	;  0x10d0
    18fc:	0f 93       	push	r16
    18fe:	1f 93       	push	r17
    1900:	cf 93       	push	r28
    1902:	8c 01       	movw	r16, r24
    1904:	c6 2f       	mov	r28, r22
    1906:	66 e0       	ldi	r22, 0x06	; 6
    1908:	0e 94 a2 08 	call	0x1144	;  0x1144
    190c:	88 7f       	andi	r24, 0xF8	; 248
    190e:	c4 30       	cpi	r28, 0x04	; 4
    1910:	18 f4       	brcc	.+6      	;  0x1918
    1912:	cc 0f       	add	r28, r28
    1914:	cf 5f       	subi	r28, 0xFF	; 255
    1916:	01 c0       	rjmp	.+2      	;  0x191a
    1918:	c7 e0       	ldi	r28, 0x07	; 7
    191a:	4c 2f       	mov	r20, r28
    191c:	48 2b       	or	r20, r24
    191e:	66 e0       	ldi	r22, 0x06	; 6
    1920:	c8 01       	movw	r24, r16
    1922:	cf 91       	pop	r28
    1924:	1f 91       	pop	r17
    1926:	0f 91       	pop	r16
    1928:	0c 94 f9 08 	jmp	0x11f2	;  0x11f2
    192c:	66 e0       	ldi	r22, 0x06	; 6
    192e:	0e 94 a2 08 	call	0x1144	;  0x1144
    1932:	86 70       	andi	r24, 0x06	; 6
    1934:	86 95       	lsr	r24
    1936:	08 95       	ret
    1938:	ef 92       	push	r14
    193a:	ff 92       	push	r15
    193c:	0f 93       	push	r16
    193e:	1f 93       	push	r17
    1940:	cf 93       	push	r28
    1942:	8c 01       	movw	r16, r24
    1944:	7b 01       	movw	r14, r22
    1946:	66 e0       	ldi	r22, 0x06	; 6
    1948:	0e 94 a2 08 	call	0x1144	;  0x1144
    194c:	c8 2f       	mov	r28, r24
    194e:	c7 7d       	andi	r28, 0xD7	; 215
    1950:	82 e0       	ldi	r24, 0x02	; 2
    1952:	e8 16       	cp	r14, r24
    1954:	f1 04       	cpc	r15, r1
    1956:	31 f4       	brne	.+12     	;  0x1964
    1958:	c0 62       	ori	r28, 0x20	; 32
    195a:	8b e9       	ldi	r24, 0x9B	; 155
    195c:	90 e0       	ldi	r25, 0x00	; 0
    195e:	a0 e0       	ldi	r26, 0x00	; 0
    1960:	b0 e0       	ldi	r27, 0x00	; 0
    1962:	0d c0       	rjmp	.+26     	;  0x197e
    1964:	ea 94       	dec	r14
    1966:	ef 28       	or	r14, r15
    1968:	29 f0       	breq	.+10     	;  0x1974
    196a:	85 e5       	ldi	r24, 0x55	; 85
    196c:	90 e0       	ldi	r25, 0x00	; 0
    196e:	a0 e0       	ldi	r26, 0x00	; 0
    1970:	b0 e0       	ldi	r27, 0x00	; 0
    1972:	05 c0       	rjmp	.+10     	;  0x197e
    1974:	c8 60       	ori	r28, 0x08	; 8
    1976:	81 e4       	ldi	r24, 0x41	; 65
    1978:	90 e0       	ldi	r25, 0x00	; 0
    197a:	a0 e0       	ldi	r26, 0x00	; 0
    197c:	b0 e0       	ldi	r27, 0x00	; 0
    197e:	f8 01       	movw	r30, r16
    1980:	80 8b       	std	Z+16, r24	; 0x10
    1982:	91 8b       	std	Z+17, r25	; 0x11
    1984:	a2 8b       	std	Z+18, r26	; 0x12
    1986:	b3 8b       	std	Z+19, r27	; 0x13
    1988:	4c 2f       	mov	r20, r28
    198a:	66 e0       	ldi	r22, 0x06	; 6
    198c:	c8 01       	movw	r24, r16
    198e:	0e 94 f9 08 	call	0x11f2	;  0x11f2
    1992:	66 e0       	ldi	r22, 0x06	; 6
    1994:	c8 01       	movw	r24, r16
    1996:	0e 94 a2 08 	call	0x1144	;  0x1144
    199a:	91 e0       	ldi	r25, 0x01	; 1
    199c:	8c 13       	cpse	r24, r28
    199e:	90 e0       	ldi	r25, 0x00	; 0
    19a0:	89 2f       	mov	r24, r25
    19a2:	cf 91       	pop	r28
    19a4:	1f 91       	pop	r17
    19a6:	0f 91       	pop	r16
    19a8:	ff 90       	pop	r15
    19aa:	ef 90       	pop	r14
    19ac:	08 95       	ret
    19ae:	1f 93       	push	r17
    19b0:	cf 93       	push	r28
    19b2:	df 93       	push	r29
    19b4:	ec 01       	movw	r28, r24
    19b6:	88 81       	ld	r24, Y
    19b8:	99 81       	ldd	r25, Y+1	; 0x01
    19ba:	2a 81       	ldd	r18, Y+2	; 0x02
    19bc:	3b 81       	ldd	r19, Y+3	; 0x03
    19be:	82 17       	cp	r24, r18
    19c0:	93 07       	cpc	r25, r19
    19c2:	19 f0       	breq	.+6      	;  0x19ca
    19c4:	61 e0       	ldi	r22, 0x01	; 1
    19c6:	0e 94 db 20 	call	0x41b6	;  0x41b6
    19ca:	8a 81       	ldd	r24, Y+2	; 0x02
    19cc:	9b 81       	ldd	r25, Y+3	; 0x03
    19ce:	28 81       	ld	r18, Y
    19d0:	39 81       	ldd	r19, Y+1	; 0x01
    19d2:	28 17       	cp	r18, r24
    19d4:	39 07       	cpc	r19, r25
    19d6:	19 f0       	breq	.+6      	;  0x19de
    19d8:	61 e0       	ldi	r22, 0x01	; 1
    19da:	0e 94 db 20 	call	0x41b6	;  0x41b6
    19de:	0e 94 a5 25 	call	0x4b4a	;  0x4b4a
    19e2:	60 e0       	ldi	r22, 0x00	; 0
    19e4:	ce 01       	movw	r24, r28
    19e6:	0e 94 59 08 	call	0x10b2	;  0x10b2
    19ea:	61 e0       	ldi	r22, 0x01	; 1
    19ec:	ce 01       	movw	r24, r28
    19ee:	0e 94 41 08 	call	0x1082	;  0x1082
    19f2:	65 e0       	ldi	r22, 0x05	; 5
    19f4:	70 e0       	ldi	r23, 0x00	; 0
    19f6:	80 e0       	ldi	r24, 0x00	; 0
    19f8:	90 e0       	ldi	r25, 0x00	; 0
    19fa:	0e 94 01 20 	call	0x4002	;  0x4002
    19fe:	4c e0       	ldi	r20, 0x0C	; 12
    1a00:	60 e0       	ldi	r22, 0x00	; 0
    1a02:	ce 01       	movw	r24, r28
    1a04:	0e 94 f9 08 	call	0x11f2	;  0x11f2
    1a08:	4f e5       	ldi	r20, 0x5F	; 95
    1a0a:	64 e0       	ldi	r22, 0x04	; 4
    1a0c:	ce 01       	movw	r24, r28
    1a0e:	0e 94 f9 08 	call	0x11f2	;  0x11f2
    1a12:	62 e0       	ldi	r22, 0x02	; 2
    1a14:	70 e0       	ldi	r23, 0x00	; 0
    1a16:	ce 01       	movw	r24, r28
    1a18:	0e 94 9c 0c 	call	0x1938	;  0x1938
    1a1c:	88 23       	and	r24, r24
    1a1e:	11 f0       	breq	.+4      	;  0x1a24
    1a20:	81 e0       	ldi	r24, 0x01	; 1
    1a22:	8e 83       	std	Y+6, r24	; 0x06
    1a24:	66 e0       	ldi	r22, 0x06	; 6
    1a26:	ce 01       	movw	r24, r28
    1a28:	0e 94 a2 08 	call	0x1144	;  0x1144
    1a2c:	18 2f       	mov	r17, r24
    1a2e:	60 e0       	ldi	r22, 0x00	; 0
    1a30:	70 e0       	ldi	r23, 0x00	; 0
    1a32:	ce 01       	movw	r24, r28
    1a34:	0e 94 9c 0c 	call	0x1938	;  0x1938
    1a38:	ce 01       	movw	r24, r28
    1a3a:	0e 94 6e 0c 	call	0x18dc	;  0x18dc
    1a3e:	40 e0       	ldi	r20, 0x00	; 0
    1a40:	6d e1       	ldi	r22, 0x1D	; 29
    1a42:	ce 01       	movw	r24, r28
    1a44:	0e 94 f9 08 	call	0x11f2	;  0x11f2
    1a48:	40 e0       	ldi	r20, 0x00	; 0
    1a4a:	6c e1       	ldi	r22, 0x1C	; 28
    1a4c:	ce 01       	movw	r24, r28
    1a4e:	0e 94 f9 08 	call	0x11f2	;  0x11f2
    1a52:	18 86       	std	Y+8, r1	; 0x08
    1a54:	40 e7       	ldi	r20, 0x70	; 112
    1a56:	67 e0       	ldi	r22, 0x07	; 7
    1a58:	ce 01       	movw	r24, r28
    1a5a:	0e 94 f9 08 	call	0x11f2	;  0x11f2
    1a5e:	6c e4       	ldi	r22, 0x4C	; 76
    1a60:	ce 01       	movw	r24, r28
    1a62:	0e 94 ea 0a 	call	0x15d4	;  0x15d4
    1a66:	ce 01       	movw	r24, r28
    1a68:	0e 94 cc 09 	call	0x1398	;  0x1398
    1a6c:	ce 01       	movw	r24, r28
    1a6e:	0e 94 cf 09 	call	0x139e	;  0x139e
    1a72:	ce 01       	movw	r24, r28
    1a74:	0e 94 29 0b 	call	0x1652	;  0x1652
    1a78:	60 e0       	ldi	r22, 0x00	; 0
    1a7a:	ce 01       	movw	r24, r28
    1a7c:	0e 94 a2 08 	call	0x1144	;  0x1144
    1a80:	48 2f       	mov	r20, r24
    1a82:	4e 7f       	andi	r20, 0xFE	; 254
    1a84:	60 e0       	ldi	r22, 0x00	; 0
    1a86:	ce 01       	movw	r24, r28
    1a88:	0e 94 f9 08 	call	0x11f2	;  0x11f2
    1a8c:	11 50       	subi	r17, 0x01	; 1
    1a8e:	81 e0       	ldi	r24, 0x01	; 1
    1a90:	1e 3f       	cpi	r17, 0xFE	; 254
    1a92:	08 f0       	brcs	.+2      	;  0x1a96
    1a94:	80 e0       	ldi	r24, 0x00	; 0
    1a96:	df 91       	pop	r29
    1a98:	cf 91       	pop	r28
    1a9a:	1f 91       	pop	r17
    1a9c:	08 95       	ret
    1a9e:	66 e0       	ldi	r22, 0x06	; 6
    1aa0:	0e 94 a2 08 	call	0x1144	;  0x1144
    1aa4:	28 2f       	mov	r18, r24
    1aa6:	28 72       	andi	r18, 0x28	; 40
    1aa8:	20 32       	cpi	r18, 0x20	; 32
    1aaa:	31 f0       	breq	.+12     	;  0x1ab8
    1aac:	81 e0       	ldi	r24, 0x01	; 1
    1aae:	90 e0       	ldi	r25, 0x00	; 0
    1ab0:	28 30       	cpi	r18, 0x08	; 8
    1ab2:	21 f0       	breq	.+8      	;  0x1abc
    1ab4:	80 e0       	ldi	r24, 0x00	; 0
    1ab6:	08 95       	ret
    1ab8:	82 e0       	ldi	r24, 0x02	; 2
    1aba:	90 e0       	ldi	r25, 0x00	; 0
    1abc:	08 95       	ret
    1abe:	0f 93       	push	r16
    1ac0:	1f 93       	push	r17
    1ac2:	cf 93       	push	r28
    1ac4:	8c 01       	movw	r16, r24
    1ac6:	60 e0       	ldi	r22, 0x00	; 0
    1ac8:	0e 94 a2 08 	call	0x1144	;  0x1144
    1acc:	c8 2f       	mov	r28, r24
    1ace:	61 e0       	ldi	r22, 0x01	; 1
    1ad0:	c8 01       	movw	r24, r16
    1ad2:	0e 94 a2 08 	call	0x1144	;  0x1144
    1ad6:	c3 fd       	sbrc	r28, 3
    1ad8:	02 c0       	rjmp	.+4      	;  0x1ade
    1ada:	88 23       	and	r24, r24
    1adc:	29 f0       	breq	.+10     	;  0x1ae8
    1ade:	c2 fd       	sbrc	r28, 2
    1ae0:	06 c0       	rjmp	.+12     	;  0x1aee
    1ae2:	81 e0       	ldi	r24, 0x01	; 1
    1ae4:	90 e0       	ldi	r25, 0x00	; 0
    1ae6:	05 c0       	rjmp	.+10     	;  0x1af2
    1ae8:	80 e0       	ldi	r24, 0x00	; 0
    1aea:	90 e0       	ldi	r25, 0x00	; 0
    1aec:	02 c0       	rjmp	.+4      	;  0x1af2
    1aee:	82 e0       	ldi	r24, 0x02	; 2
    1af0:	90 e0       	ldi	r25, 0x00	; 0
    1af2:	cf 91       	pop	r28
    1af4:	1f 91       	pop	r17
    1af6:	0f 91       	pop	r16
    1af8:	08 95       	ret
    1afa:	cf 93       	push	r28
    1afc:	df 93       	push	r29
    1afe:	ec 01       	movw	r28, r24
    1b00:	0e 94 d2 09 	call	0x13a4	;  0x13a4
    1b04:	68 2f       	mov	r22, r24
    1b06:	ce 01       	movw	r24, r28
    1b08:	0e 94 d5 09 	call	0x13aa	;  0x13aa
    1b0c:	22 e0       	ldi	r18, 0x02	; 2
    1b0e:	4a e0       	ldi	r20, 0x0A	; 10
    1b10:	67 e5       	ldi	r22, 0x57	; 87
    1b12:	72 e0       	ldi	r23, 0x02	; 2
    1b14:	ce 01       	movw	r24, r28
    1b16:	0e 94 46 0a 	call	0x148c	;  0x148c
    1b1a:	24 e0       	ldi	r18, 0x04	; 4
    1b1c:	4c e0       	ldi	r20, 0x0C	; 12
    1b1e:	6a e4       	ldi	r22, 0x4A	; 74
    1b20:	72 e0       	ldi	r23, 0x02	; 2
    1b22:	ce 01       	movw	r24, r28
    1b24:	0e 94 01 0a 	call	0x1402	;  0x1402
    1b28:	21 e0       	ldi	r18, 0x01	; 1
    1b2a:	40 e1       	ldi	r20, 0x10	; 16
    1b2c:	61 e4       	ldi	r22, 0x41	; 65
    1b2e:	72 e0       	ldi	r23, 0x02	; 2
    1b30:	ce 01       	movw	r24, r28
    1b32:	0e 94 46 0a 	call	0x148c	;  0x148c
    1b36:	26 e0       	ldi	r18, 0x06	; 6
    1b38:	41 e1       	ldi	r20, 0x11	; 17
    1b3a:	66 e3       	ldi	r22, 0x36	; 54
    1b3c:	72 e0       	ldi	r23, 0x02	; 2
    1b3e:	ce 01       	movw	r24, r28
    1b40:	0e 94 01 0a 	call	0x1402	;  0x1402
    1b44:	21 e0       	ldi	r18, 0x01	; 1
    1b46:	41 e0       	ldi	r20, 0x01	; 1
    1b48:	6f e2       	ldi	r22, 0x2F	; 47
    1b4a:	72 e0       	ldi	r23, 0x02	; 2
    1b4c:	ce 01       	movw	r24, r28
    1b4e:	0e 94 01 0a 	call	0x1402	;  0x1402
    1b52:	21 e0       	ldi	r18, 0x01	; 1
    1b54:	42 e0       	ldi	r20, 0x02	; 2
    1b56:	65 e2       	ldi	r22, 0x25	; 37
    1b58:	72 e0       	ldi	r23, 0x02	; 2
    1b5a:	ce 01       	movw	r24, r28
    1b5c:	0e 94 01 0a 	call	0x1402	;  0x1402
    1b60:	21 e0       	ldi	r18, 0x01	; 1
    1b62:	45 e0       	ldi	r20, 0x05	; 5
    1b64:	6e e1       	ldi	r22, 0x1E	; 30
    1b66:	72 e0       	ldi	r23, 0x02	; 2
    1b68:	ce 01       	movw	r24, r28
    1b6a:	0e 94 01 0a 	call	0x1402	;  0x1402
    1b6e:	21 e0       	ldi	r18, 0x01	; 1
    1b70:	46 e0       	ldi	r20, 0x06	; 6
    1b72:	65 e1       	ldi	r22, 0x15	; 21
    1b74:	72 e0       	ldi	r23, 0x02	; 2
    1b76:	ce 01       	movw	r24, r28
    1b78:	0e 94 01 0a 	call	0x1402	;  0x1402
    1b7c:	21 e0       	ldi	r18, 0x01	; 1
    1b7e:	40 e0       	ldi	r20, 0x00	; 0
    1b80:	6d e0       	ldi	r22, 0x0D	; 13
    1b82:	72 e0       	ldi	r23, 0x02	; 2
    1b84:	ce 01       	movw	r24, r28
    1b86:	0e 94 01 0a 	call	0x1402	;  0x1402
    1b8a:	22 e0       	ldi	r18, 0x02	; 2
    1b8c:	4c e1       	ldi	r20, 0x1C	; 28
    1b8e:	6f ef       	ldi	r22, 0xFF	; 255
    1b90:	71 e0       	ldi	r23, 0x01	; 1
    1b92:	ce 01       	movw	r24, r28
    1b94:	0e 94 01 0a 	call	0x1402	;  0x1402
    1b98:	ce 01       	movw	r24, r28
    1b9a:	0e 94 4f 0d 	call	0x1a9e	;  0x1a9e
    1b9e:	88 0f       	add	r24, r24
    1ba0:	99 1f       	adc	r25, r25
    1ba2:	fc 01       	movw	r30, r24
    1ba4:	e7 5c       	subi	r30, 0xC7	; 199
    1ba6:	fc 4f       	sbci	r31, 0xFC	; 252
    1ba8:	85 91       	lpm	r24, Z+
    1baa:	94 91       	lpm	r25, Z
    1bac:	9f 93       	push	r25
    1bae:	8f 93       	push	r24
    1bb0:	8d ee       	ldi	r24, 0xED	; 237
    1bb2:	91 e0       	ldi	r25, 0x01	; 1
    1bb4:	9f 93       	push	r25
    1bb6:	8f 93       	push	r24
    1bb8:	0e 94 a5 33 	call	0x674a	;  0x674a
    1bbc:	ee 81       	ldd	r30, Y+6	; 0x06
    1bbe:	f0 e0       	ldi	r31, 0x00	; 0
    1bc0:	ee 0f       	add	r30, r30
    1bc2:	ff 1f       	adc	r31, r31
    1bc4:	ee 5d       	subi	r30, 0xDE	; 222
    1bc6:	fc 4f       	sbci	r31, 0xFC	; 252
    1bc8:	85 91       	lpm	r24, Z+
    1bca:	94 91       	lpm	r25, Z
    1bcc:	9f 93       	push	r25
    1bce:	8f 93       	push	r24
    1bd0:	8e ed       	ldi	r24, 0xDE	; 222
    1bd2:	91 e0       	ldi	r25, 0x01	; 1
    1bd4:	9f 93       	push	r25
    1bd6:	8f 93       	push	r24
    1bd8:	0e 94 a5 33 	call	0x674a	;  0x674a
    1bdc:	ce 01       	movw	r24, r28
    1bde:	0e 94 5f 0d 	call	0x1abe	;  0x1abe
    1be2:	88 0f       	add	r24, r24
    1be4:	99 1f       	adc	r25, r25
    1be6:	fc 01       	movw	r30, r24
    1be8:	ec 5f       	subi	r30, 0xFC	; 252
    1bea:	fc 4f       	sbci	r31, 0xFC	; 252
    1bec:	85 91       	lpm	r24, Z+
    1bee:	94 91       	lpm	r25, Z
    1bf0:	9f 93       	push	r25
    1bf2:	8f 93       	push	r24
    1bf4:	8b ec       	ldi	r24, 0xCB	; 203
    1bf6:	91 e0       	ldi	r25, 0x01	; 1
    1bf8:	9f 93       	push	r25
    1bfa:	8f 93       	push	r24
    1bfc:	0e 94 a5 33 	call	0x674a	;  0x674a
    1c00:	ce 01       	movw	r24, r28
    1c02:	0e 94 96 0c 	call	0x192c	;  0x192c
    1c06:	e8 2f       	mov	r30, r24
    1c08:	f0 e0       	ldi	r31, 0x00	; 0
    1c0a:	ee 0f       	add	r30, r30
    1c0c:	ff 1f       	adc	r31, r31
    1c0e:	e1 52       	subi	r30, 0x21	; 33
    1c10:	fd 4f       	sbci	r31, 0xFD	; 253
    1c12:	85 91       	lpm	r24, Z+
    1c14:	94 91       	lpm	r25, Z
    1c16:	9f 93       	push	r25
    1c18:	8f 93       	push	r24
    1c1a:	8a eb       	ldi	r24, 0xBA	; 186
    1c1c:	91 e0       	ldi	r25, 0x01	; 1
    1c1e:	9f 93       	push	r25
    1c20:	8f 93       	push	r24
    1c22:	0e 94 a5 33 	call	0x674a	;  0x674a
    1c26:	8d b7       	in	r24, 0x3d	; 61
    1c28:	9e b7       	in	r25, 0x3e	; 62
    1c2a:	40 96       	adiw	r24, 0x10	; 16
    1c2c:	0f b6       	in	r0, 0x3f	; 63
    1c2e:	f8 94       	cli
    1c30:	9e bf       	out	0x3e, r25	; 62
    1c32:	0f be       	out	0x3f, r0	; 63
    1c34:	8d bf       	out	0x3d, r24	; 61
    1c36:	df 91       	pop	r29
    1c38:	cf 91       	pop	r28
    1c3a:	08 95       	ret
    1c3c:	20 e1       	ldi	r18, 0x10	; 16
    1c3e:	62 9f       	mul	r22, r18
    1c40:	b0 01       	movw	r22, r0
    1c42:	11 24       	eor	r1, r1
    1c44:	4f 70       	andi	r20, 0x0F	; 15
    1c46:	46 2b       	or	r20, r22
    1c48:	64 e0       	ldi	r22, 0x04	; 4
    1c4a:	0c 94 f9 08 	jmp	0x11f2	;  0x11f2
    1c4e:	1f 92       	push	r1
    1c50:	0f 92       	push	r0
    1c52:	0f b6       	in	r0, 0x3f	; 63
    1c54:	0f 92       	push	r0
    1c56:	11 24       	eor	r1, r1
    1c58:	0f 93       	push	r16
    1c5a:	1f 93       	push	r17
    1c5c:	2f 93       	push	r18
    1c5e:	3f 93       	push	r19
    1c60:	4f 93       	push	r20
    1c62:	5f 93       	push	r21
    1c64:	6f 93       	push	r22
    1c66:	7f 93       	push	r23
    1c68:	8f 93       	push	r24
    1c6a:	9f 93       	push	r25
    1c6c:	af 93       	push	r26
    1c6e:	bf 93       	push	r27
    1c70:	cf 93       	push	r28
    1c72:	df 93       	push	r29
    1c74:	ef 93       	push	r30
    1c76:	ff 93       	push	r31
    1c78:	80 91 06 01 	lds	r24, 0x0106
    1c7c:	8f 5f       	subi	r24, 0xFF	; 255
    1c7e:	80 93 06 01 	sts	0x0106, r24
    1c82:	88 23       	and	r24, r24
    1c84:	29 f0       	breq	.+10     	;  0x1c90
    1c86:	e3 e5       	ldi	r30, 0x53	; 83
    1c88:	f2 e0       	ldi	r31, 0x02	; 2
    1c8a:	20 e0       	ldi	r18, 0x00	; 0
    1c8c:	30 e0       	ldi	r19, 0x00	; 0
    1c8e:	59 c0       	rjmp	.+178    	;  0x1d42
    1c90:	03 e5       	ldi	r16, 0x53	; 83
    1c92:	12 e0       	ldi	r17, 0x02	; 2
    1c94:	e9 e5       	ldi	r30, 0x59	; 89
    1c96:	f2 e0       	ldi	r31, 0x02	; 2
    1c98:	cb e5       	ldi	r28, 0x5B	; 91
    1c9a:	d2 e0       	ldi	r29, 0x02	; 2
    1c9c:	ce 01       	movw	r24, r28
    1c9e:	01 97       	sbiw	r24, 0x01	; 1
    1ca0:	dc 01       	movw	r26, r24
    1ca2:	4c 91       	ld	r20, X
    1ca4:	cf 01       	movw	r24, r30
    1ca6:	01 97       	sbiw	r24, 0x01	; 1
    1ca8:	dc 01       	movw	r26, r24
    1caa:	41 11       	cpse	r20, r1
    1cac:	03 c0       	rjmp	.+6      	;  0x1cb4
    1cae:	28 81       	ld	r18, Y
    1cb0:	22 23       	and	r18, r18
    1cb2:	f9 f0       	breq	.+62     	;  0x1cf2
    1cb4:	2c 91       	ld	r18, X
    1cb6:	30 e0       	ldi	r19, 0x00	; 0
    1cb8:	80 81       	ld	r24, Z
    1cba:	90 e0       	ldi	r25, 0x00	; 0
    1cbc:	b9 01       	movw	r22, r18
    1cbe:	68 1b       	sub	r22, r24
    1cc0:	79 0b       	sbc	r23, r25
    1cc2:	16 16       	cp	r1, r22
    1cc4:	17 06       	cpc	r1, r23
    1cc6:	44 f4       	brge	.+16     	;  0x1cd8
    1cc8:	44 23       	and	r20, r20
    1cca:	89 f0       	breq	.+34     	;  0x1cee
    1ccc:	84 0f       	add	r24, r20
    1cce:	91 1d       	adc	r25, r1
    1cd0:	82 17       	cp	r24, r18
    1cd2:	93 07       	cpc	r25, r19
    1cd4:	64 f4       	brge	.+24     	;  0x1cee
    1cd6:	0a c0       	rjmp	.+20     	;  0x1cec
    1cd8:	67 2b       	or	r22, r23
    1cda:	49 f0       	breq	.+18     	;  0x1cee
    1cdc:	48 81       	ld	r20, Y
    1cde:	44 23       	and	r20, r20
    1ce0:	31 f0       	breq	.+12     	;  0x1cee
    1ce2:	84 1b       	sub	r24, r20
    1ce4:	91 09       	sbc	r25, r1
    1ce6:	28 17       	cp	r18, r24
    1ce8:	39 07       	cpc	r19, r25
    1cea:	0c f4       	brge	.+2      	;  0x1cee
    1cec:	9c 01       	movw	r18, r24
    1cee:	20 83       	st	Z, r18
    1cf0:	02 c0       	rjmp	.+4      	;  0x1cf6
    1cf2:	8c 91       	ld	r24, X
    1cf4:	80 83       	st	Z, r24
    1cf6:	80 81       	ld	r24, Z
    1cf8:	88 23       	and	r24, r24
    1cfa:	c9 f0       	breq	.+50     	;  0x1d2e
    1cfc:	cf 01       	movw	r24, r30
    1cfe:	05 97       	sbiw	r24, 0x05	; 5
    1d00:	dc 01       	movw	r26, r24
    1d02:	8c 91       	ld	r24, X
    1d04:	af 01       	movw	r20, r30
    1d06:	42 50       	subi	r20, 0x02	; 2
    1d08:	51 09       	sbc	r21, r1
    1d0a:	d8 01       	movw	r26, r16
    1d0c:	12 96       	adiw	r26, 0x02	; 2
    1d0e:	2d 91       	ld	r18, X+
    1d10:	3c 91       	ld	r19, X
    1d12:	13 97       	sbiw	r26, 0x03	; 3
    1d14:	d9 01       	movw	r26, r18
    1d16:	9c 91       	ld	r25, X
    1d18:	da 01       	movw	r26, r20
    1d1a:	81 11       	cpse	r24, r1
    1d1c:	03 c0       	rjmp	.+6      	;  0x1d24
    1d1e:	8c 91       	ld	r24, X
    1d20:	89 2b       	or	r24, r25
    1d22:	03 c0       	rjmp	.+6      	;  0x1d2a
    1d24:	8c 91       	ld	r24, X
    1d26:	80 95       	com	r24
    1d28:	89 23       	and	r24, r25
    1d2a:	d9 01       	movw	r26, r18
    1d2c:	8c 93       	st	X, r24
    1d2e:	07 5f       	subi	r16, 0xF7	; 247
    1d30:	1f 4f       	sbci	r17, 0xFF	; 255
    1d32:	39 96       	adiw	r30, 0x09	; 9
    1d34:	29 96       	adiw	r28, 0x09	; 9
    1d36:	b3 e0       	ldi	r27, 0x03	; 3
    1d38:	07 30       	cpi	r16, 0x07	; 7
    1d3a:	1b 07       	cpc	r17, r27
    1d3c:	09 f0       	breq	.+2      	;  0x1d40
    1d3e:	ae cf       	rjmp	.-164    	;  0x1c9c
    1d40:	a2 cf       	rjmp	.-188    	;  0x1c86
    1d42:	80 81       	ld	r24, Z
    1d44:	87 fd       	sbrc	r24, 7
    1d46:	15 c0       	rjmp	.+42     	;  0x1d72
    1d48:	e9 01       	movw	r28, r18
    1d4a:	cd 5a       	subi	r28, 0xAD	; 173
    1d4c:	dd 4f       	sbci	r29, 0xFD	; 253
    1d4e:	80 91 06 01 	lds	r24, 0x0106
    1d52:	9e 81       	ldd	r25, Y+6	; 0x06
    1d54:	98 13       	cpse	r25, r24
    1d56:	0d c0       	rjmp	.+26     	;  0x1d72
    1d58:	99 81       	ldd	r25, Y+1	; 0x01
    1d5a:	a2 81       	ldd	r26, Z+2	; 0x02
    1d5c:	b3 81       	ldd	r27, Z+3	; 0x03
    1d5e:	8c 81       	ldd	r24, Y+4	; 0x04
    1d60:	91 11       	cpse	r25, r1
    1d62:	04 c0       	rjmp	.+8      	;  0x1d6c
    1d64:	9c 91       	ld	r25, X
    1d66:	80 95       	com	r24
    1d68:	89 23       	and	r24, r25
    1d6a:	02 c0       	rjmp	.+4      	;  0x1d70
    1d6c:	9c 91       	ld	r25, X
    1d6e:	89 2b       	or	r24, r25
    1d70:	8c 93       	st	X, r24
    1d72:	39 96       	adiw	r30, 0x09	; 9
    1d74:	27 5f       	subi	r18, 0xF7	; 247
    1d76:	3f 4f       	sbci	r19, 0xFF	; 255
    1d78:	24 3b       	cpi	r18, 0xB4	; 180
    1d7a:	31 05       	cpc	r19, r1
    1d7c:	11 f7       	brne	.-60     	;  0x1d42
    1d7e:	ff 91       	pop	r31
    1d80:	ef 91       	pop	r30
    1d82:	df 91       	pop	r29
    1d84:	cf 91       	pop	r28
    1d86:	bf 91       	pop	r27
    1d88:	af 91       	pop	r26
    1d8a:	9f 91       	pop	r25
    1d8c:	8f 91       	pop	r24
    1d8e:	7f 91       	pop	r23
    1d90:	6f 91       	pop	r22
    1d92:	5f 91       	pop	r21
    1d94:	4f 91       	pop	r20
    1d96:	3f 91       	pop	r19
    1d98:	2f 91       	pop	r18
    1d9a:	1f 91       	pop	r17
    1d9c:	0f 91       	pop	r16
    1d9e:	0f 90       	pop	r0
    1da0:	0f be       	out	0x3f, r0	; 63
    1da2:	0f 90       	pop	r0
    1da4:	1f 90       	pop	r1
    1da6:	18 95       	reti
    1da8:	10 92 c0 00 	sts	0x00C0, r1
    1dac:	94 e0       	ldi	r25, 0x04	; 4
    1dae:	90 93 c1 00 	sts	0x00C1, r25
    1db2:	10 92 c2 00 	sts	0x00C2, r1
    1db6:	10 92 c3 00 	sts	0x00C3, r1
    1dba:	10 92 c4 00 	sts	0x00C4, r1
    1dbe:	10 92 d1 00 	sts	0x00D1, r1
    1dc2:	92 e8       	ldi	r25, 0x82	; 130
    1dc4:	90 93 d1 00 	sts	0x00D1, r25
    1dc8:	90 e4       	ldi	r25, 0x40	; 64
    1dca:	90 93 72 00 	sts	0x0072, r25
    1dce:	e3 e5       	ldi	r30, 0x53	; 83
    1dd0:	f2 e0       	ldi	r31, 0x02	; 2
    1dd2:	20 e0       	ldi	r18, 0x00	; 0
    1dd4:	30 e0       	ldi	r19, 0x00	; 0
    1dd6:	9f ef       	ldi	r25, 0xFF	; 255
    1dd8:	90 83       	st	Z, r25
    1dda:	d9 01       	movw	r26, r18
    1ddc:	ad 5a       	subi	r26, 0xAD	; 173
    1dde:	bd 4f       	sbci	r27, 0xFD	; 253
    1de0:	11 96       	adiw	r26, 0x01	; 1
    1de2:	1c 92       	st	X, r1
    1de4:	11 97       	sbiw	r26, 0x01	; 1
    1de6:	13 82       	std	Z+3, r1	; 0x03
    1de8:	12 82       	std	Z+2, r1	; 0x02
    1dea:	17 96       	adiw	r26, 0x07	; 7
    1dec:	1c 92       	st	X, r1
    1dee:	17 97       	sbiw	r26, 0x07	; 7
    1df0:	18 96       	adiw	r26, 0x08	; 8
    1df2:	1c 92       	st	X, r1
    1df4:	39 96       	adiw	r30, 0x09	; 9
    1df6:	27 5f       	subi	r18, 0xF7	; 247
    1df8:	3f 4f       	sbci	r19, 0xFF	; 255
    1dfa:	24 3b       	cpi	r18, 0xB4	; 180
    1dfc:	31 05       	cpc	r19, r1
    1dfe:	61 f7       	brne	.-40     	;  0x1dd8
    1e00:	80 93 07 03 	sts	0x0307, r24
    1e04:	08 95       	ret
    1e06:	cf 93       	push	r28
    1e08:	44 23       	and	r20, r20
    1e0a:	39 f0       	breq	.+14     	;  0x1e1a
    1e0c:	10 92 bf 00 	sts	0x00BF, r1
    1e10:	10 92 be 00 	sts	0x00BE, r1
    1e14:	9f ef       	ldi	r25, 0xFF	; 255
    1e16:	90 93 06 01 	sts	0x0106, r25
    1e1a:	e3 e5       	ldi	r30, 0x53	; 83
    1e1c:	f2 e0       	ldi	r31, 0x02	; 2
    1e1e:	90 e0       	ldi	r25, 0x00	; 0
    1e20:	af ef       	ldi	r26, 0xFF	; 255
    1e22:	20 81       	ld	r18, Z
    1e24:	87 ff       	sbrs	r24, 7
    1e26:	03 c0       	rjmp	.+6      	;  0x1e2e
    1e28:	27 ff       	sbrs	r18, 7
    1e2a:	06 c0       	rjmp	.+12     	;  0x1e38
    1e2c:	4b c0       	rjmp	.+150    	;  0x1ec4
    1e2e:	28 17       	cp	r18, r24
    1e30:	19 f0       	breq	.+6      	;  0x1e38
    1e32:	af 3f       	cpi	r26, 0xFF	; 255
    1e34:	41 f4       	brne	.+16     	;  0x1e46
    1e36:	04 c0       	rjmp	.+8      	;  0x1e40
    1e38:	65 83       	std	Z+5, r22	; 0x05
    1e3a:	87 fd       	sbrc	r24, 7
    1e3c:	fa cf       	rjmp	.-12     	;  0x1e32
    1e3e:	46 c0       	rjmp	.+140    	;  0x1ecc
    1e40:	20 81       	ld	r18, Z
    1e42:	27 fd       	sbrc	r18, 7
    1e44:	a9 2f       	mov	r26, r25
    1e46:	9f 5f       	subi	r25, 0xFF	; 255
    1e48:	39 96       	adiw	r30, 0x09	; 9
    1e4a:	94 31       	cpi	r25, 0x14	; 20
    1e4c:	51 f7       	brne	.-44     	;  0x1e22
    1e4e:	87 fd       	sbrc	r24, 7
    1e50:	3d c0       	rjmp	.+122    	;  0x1ecc
    1e52:	af 3f       	cpi	r26, 0xFF	; 255
    1e54:	09 f4       	brne	.+2      	;  0x1e58
    1e56:	3a c0       	rjmp	.+116    	;  0x1ecc
    1e58:	c8 2f       	mov	r28, r24
    1e5a:	89 e0       	ldi	r24, 0x09	; 9
    1e5c:	a8 02       	muls	r26, r24
    1e5e:	d0 01       	movw	r26, r0
    1e60:	11 24       	eor	r1, r1
    1e62:	ad 5a       	subi	r26, 0xAD	; 173
    1e64:	bd 4f       	sbci	r27, 0xFD	; 253
    1e66:	cc 93       	st	X, r28
    1e68:	20 91 07 03 	lds	r18, 0x0307
    1e6c:	11 96       	adiw	r26, 0x01	; 1
    1e6e:	2c 93       	st	X, r18
    1e70:	11 97       	sbiw	r26, 0x01	; 1
    1e72:	8c 2f       	mov	r24, r28
    1e74:	99 27       	eor	r25, r25
    1e76:	87 fd       	sbrc	r24, 7
    1e78:	90 95       	com	r25
    1e7a:	fc 01       	movw	r30, r24
    1e7c:	e9 5e       	subi	r30, 0xE9	; 233
    1e7e:	fb 4f       	sbci	r31, 0xFB	; 251
    1e80:	e4 91       	lpm	r30, Z
    1e82:	f0 e0       	ldi	r31, 0x00	; 0
    1e84:	ee 0f       	add	r30, r30
    1e86:	ff 1f       	adc	r31, r31
    1e88:	ec 5b       	subi	r30, 0xBC	; 188
    1e8a:	fb 4f       	sbci	r31, 0xFB	; 251
    1e8c:	45 91       	lpm	r20, Z+
    1e8e:	54 91       	lpm	r21, Z
    1e90:	13 96       	adiw	r26, 0x03	; 3
    1e92:	5c 93       	st	X, r21
    1e94:	4e 93       	st	-X, r20
    1e96:	12 97       	sbiw	r26, 0x02	; 2
    1e98:	fc 01       	movw	r30, r24
    1e9a:	e8 50       	subi	r30, 0x08	; 8
    1e9c:	fc 4f       	sbci	r31, 0xFC	; 252
    1e9e:	e4 91       	lpm	r30, Z
    1ea0:	14 96       	adiw	r26, 0x04	; 4
    1ea2:	ec 93       	st	X, r30
    1ea4:	14 97       	sbiw	r26, 0x04	; 4
    1ea6:	15 96       	adiw	r26, 0x05	; 5
    1ea8:	6c 93       	st	X, r22
    1eaa:	21 11       	cpse	r18, r1
    1eac:	02 c0       	rjmp	.+4      	;  0x1eb2
    1eae:	60 e0       	ldi	r22, 0x00	; 0
    1eb0:	01 c0       	rjmp	.+2      	;  0x1eb4
    1eb2:	61 e0       	ldi	r22, 0x01	; 1
    1eb4:	8c 2f       	mov	r24, r28
    1eb6:	0e 94 17 21 	call	0x422e	;  0x422e
    1eba:	61 e0       	ldi	r22, 0x01	; 1
    1ebc:	8c 2f       	mov	r24, r28
    1ebe:	cf 91       	pop	r28
    1ec0:	0c 94 db 20 	jmp	0x41b6	;  0x41b6
    1ec4:	af 3f       	cpi	r26, 0xFF	; 255
    1ec6:	09 f0       	breq	.+2      	;  0x1eca
    1ec8:	be cf       	rjmp	.-132    	;  0x1e46
    1eca:	bc cf       	rjmp	.-136    	;  0x1e44
    1ecc:	cf 91       	pop	r28
    1ece:	08 95       	ret
    1ed0:	28 2f       	mov	r18, r24
    1ed2:	3f ef       	ldi	r19, 0xFF	; 255
    1ed4:	63 9f       	mul	r22, r19
    1ed6:	c0 01       	movw	r24, r0
    1ed8:	11 24       	eor	r1, r1
    1eda:	64 e6       	ldi	r22, 0x64	; 100
    1edc:	70 e0       	ldi	r23, 0x00	; 0
    1ede:	0e 94 92 30 	call	0x6124	;  0x6124
    1ee2:	82 2f       	mov	r24, r18
    1ee4:	0c 94 03 0f 	jmp	0x1e06	;  0x1e06
    1ee8:	2f 92       	push	r2
    1eea:	3f 92       	push	r3
    1eec:	4f 92       	push	r4
    1eee:	5f 92       	push	r5
    1ef0:	6f 92       	push	r6
    1ef2:	7f 92       	push	r7
    1ef4:	8f 92       	push	r8
    1ef6:	9f 92       	push	r9
    1ef8:	af 92       	push	r10
    1efa:	bf 92       	push	r11
    1efc:	cf 92       	push	r12
    1efe:	df 92       	push	r13
    1f00:	ef 92       	push	r14
    1f02:	ff 92       	push	r15
    1f04:	0f 93       	push	r16
    1f06:	1f 93       	push	r17
    1f08:	cf 93       	push	r28
    1f0a:	df 93       	push	r29
    1f0c:	cd b7       	in	r28, 0x3d	; 61
    1f0e:	de b7       	in	r29, 0x3e	; 62
    1f10:	27 97       	sbiw	r28, 0x07	; 7
    1f12:	0f b6       	in	r0, 0x3f	; 63
    1f14:	f8 94       	cli
    1f16:	de bf       	out	0x3e, r29	; 62
    1f18:	0f be       	out	0x3f, r0	; 63
    1f1a:	cd bf       	out	0x3d, r28	; 61
    1f1c:	89 83       	std	Y+1, r24	; 0x01
    1f1e:	1b 01       	movw	r2, r22
    1f20:	5d 83       	std	Y+5, r21	; 0x05
    1f22:	4c 83       	std	Y+4, r20	; 0x04
    1f24:	83 e5       	ldi	r24, 0x53	; 83
    1f26:	92 e0       	ldi	r25, 0x02	; 2
    1f28:	9f 83       	std	Y+7, r25	; 0x07
    1f2a:	8e 83       	std	Y+6, r24	; 0x06
    1f2c:	00 e0       	ldi	r16, 0x00	; 0
    1f2e:	10 e0       	ldi	r17, 0x00	; 0
    1f30:	4a 01       	movw	r8, r20
    1f32:	a1 2c       	mov	r10, r1
    1f34:	b1 2c       	mov	r11, r1
    1f36:	80 ef       	ldi	r24, 0xF0	; 240
    1f38:	c8 2e       	mov	r12, r24
    1f3a:	8f e0       	ldi	r24, 0x0F	; 15
    1f3c:	d8 2e       	mov	r13, r24
    1f3e:	e1 2c       	mov	r14, r1
    1f40:	f1 2c       	mov	r15, r1
    1f42:	2b 01       	movw	r4, r22
    1f44:	61 2c       	mov	r6, r1
    1f46:	71 2c       	mov	r7, r1
    1f48:	99 81       	ldd	r25, Y+1	; 0x01
    1f4a:	ee 81       	ldd	r30, Y+6	; 0x06
    1f4c:	ff 81       	ldd	r31, Y+7	; 0x07
    1f4e:	80 81       	ld	r24, Z
    1f50:	97 ff       	sbrs	r25, 7
    1f52:	0d c0       	rjmp	.+26     	;  0x1f6e
    1f54:	87 ff       	sbrs	r24, 7
    1f56:	0e c0       	rjmp	.+28     	;  0x1f74
    1f58:	8e 81       	ldd	r24, Y+6	; 0x06
    1f5a:	9f 81       	ldd	r25, Y+7	; 0x07
    1f5c:	09 96       	adiw	r24, 0x09	; 9
    1f5e:	9f 83       	std	Y+7, r25	; 0x07
    1f60:	8e 83       	std	Y+6, r24	; 0x06
    1f62:	07 5f       	subi	r16, 0xF7	; 247
    1f64:	1f 4f       	sbci	r17, 0xFF	; 255
    1f66:	04 3b       	cpi	r16, 0xB4	; 180
    1f68:	11 05       	cpc	r17, r1
    1f6a:	71 f7       	brne	.-36     	;  0x1f48
    1f6c:	27 c0       	rjmp	.+78     	;  0x1fbc
    1f6e:	f9 81       	ldd	r31, Y+1	; 0x01
    1f70:	8f 13       	cpse	r24, r31
    1f72:	f2 cf       	rjmp	.-28     	;  0x1f58
    1f74:	21 14       	cp	r2, r1
    1f76:	31 04       	cpc	r3, r1
    1f78:	39 f0       	breq	.+14     	;  0x1f88
    1f7a:	c7 01       	movw	r24, r14
    1f7c:	b6 01       	movw	r22, r12
    1f7e:	a3 01       	movw	r20, r6
    1f80:	92 01       	movw	r18, r4
    1f82:	0e 94 ba 30 	call	0x6174	;  0x6174
    1f86:	01 c0       	rjmp	.+2      	;  0x1f8a
    1f88:	20 e0       	ldi	r18, 0x00	; 0
    1f8a:	c8 01       	movw	r24, r16
    1f8c:	8d 5a       	subi	r24, 0xAD	; 173
    1f8e:	9d 4f       	sbci	r25, 0xFD	; 253
    1f90:	9b 83       	std	Y+3, r25	; 0x03
    1f92:	8a 83       	std	Y+2, r24	; 0x02
    1f94:	fc 01       	movw	r30, r24
    1f96:	27 83       	std	Z+7, r18	; 0x07
    1f98:	8c 81       	ldd	r24, Y+4	; 0x04
    1f9a:	9d 81       	ldd	r25, Y+5	; 0x05
    1f9c:	89 2b       	or	r24, r25
    1f9e:	39 f0       	breq	.+14     	;  0x1fae
    1fa0:	c7 01       	movw	r24, r14
    1fa2:	b6 01       	movw	r22, r12
    1fa4:	a5 01       	movw	r20, r10
    1fa6:	94 01       	movw	r18, r8
    1fa8:	0e 94 ba 30 	call	0x6174	;  0x6174
    1fac:	01 c0       	rjmp	.+2      	;  0x1fb0
    1fae:	20 e0       	ldi	r18, 0x00	; 0
    1fb0:	ea 81       	ldd	r30, Y+2	; 0x02
    1fb2:	fb 81       	ldd	r31, Y+3	; 0x03
    1fb4:	20 87       	std	Z+8, r18	; 0x08
    1fb6:	f9 81       	ldd	r31, Y+1	; 0x01
    1fb8:	f7 fd       	sbrc	r31, 7
    1fba:	ce cf       	rjmp	.-100    	;  0x1f58
    1fbc:	27 96       	adiw	r28, 0x07	; 7
    1fbe:	0f b6       	in	r0, 0x3f	; 63
    1fc0:	f8 94       	cli
    1fc2:	de bf       	out	0x3e, r29	; 62
    1fc4:	0f be       	out	0x3f, r0	; 63
    1fc6:	cd bf       	out	0x3d, r28	; 61
    1fc8:	df 91       	pop	r29
    1fca:	cf 91       	pop	r28
    1fcc:	1f 91       	pop	r17
    1fce:	0f 91       	pop	r16
    1fd0:	ff 90       	pop	r15
    1fd2:	ef 90       	pop	r14
    1fd4:	df 90       	pop	r13
    1fd6:	cf 90       	pop	r12
    1fd8:	bf 90       	pop	r11
    1fda:	af 90       	pop	r10
    1fdc:	9f 90       	pop	r9
    1fde:	8f 90       	pop	r8
    1fe0:	7f 90       	pop	r7
    1fe2:	6f 90       	pop	r6
    1fe4:	5f 90       	pop	r5
    1fe6:	4f 90       	pop	r4
    1fe8:	3f 90       	pop	r3
    1fea:	2f 90       	pop	r2
    1fec:	08 95       	ret
    1fee:	08 95       	ret
    1ff0:	1f 92       	push	r1
    1ff2:	0f 92       	push	r0
    1ff4:	0f b6       	in	r0, 0x3f	; 63
    1ff6:	0f 92       	push	r0
    1ff8:	11 24       	eor	r1, r1
    1ffa:	2f 93       	push	r18
    1ffc:	3f 93       	push	r19
    1ffe:	4f 93       	push	r20
    2000:	5f 93       	push	r21
    2002:	6f 93       	push	r22
    2004:	7f 93       	push	r23
    2006:	8f 93       	push	r24
    2008:	9f 93       	push	r25
    200a:	af 93       	push	r26
    200c:	bf 93       	push	r27
    200e:	ef 93       	push	r30
    2010:	ff 93       	push	r31
    2012:	e0 91 07 01 	lds	r30, 0x0107
    2016:	f0 91 08 01 	lds	r31, 0x0108
    201a:	09 95       	icall
    201c:	ff 91       	pop	r31
    201e:	ef 91       	pop	r30
    2020:	bf 91       	pop	r27
    2022:	af 91       	pop	r26
    2024:	9f 91       	pop	r25
    2026:	8f 91       	pop	r24
    2028:	7f 91       	pop	r23
    202a:	6f 91       	pop	r22
    202c:	5f 91       	pop	r21
    202e:	4f 91       	pop	r20
    2030:	3f 91       	pop	r19
    2032:	2f 91       	pop	r18
    2034:	0f 90       	pop	r0
    2036:	0f be       	out	0x3f, r0	; 63
    2038:	0f 90       	pop	r0
    203a:	1f 90       	pop	r1
    203c:	18 95       	reti
    203e:	2f 92       	push	r2
    2040:	3f 92       	push	r3
    2042:	4f 92       	push	r4
    2044:	5f 92       	push	r5
    2046:	6f 92       	push	r6
    2048:	7f 92       	push	r7
    204a:	8f 92       	push	r8
    204c:	9f 92       	push	r9
    204e:	af 92       	push	r10
    2050:	bf 92       	push	r11
    2052:	cf 92       	push	r12
    2054:	df 92       	push	r13
    2056:	ef 92       	push	r14
    2058:	ff 92       	push	r15
    205a:	0f 93       	push	r16
    205c:	1f 93       	push	r17
    205e:	cf 93       	push	r28
    2060:	df 93       	push	r29
    2062:	cd b7       	in	r28, 0x3d	; 61
    2064:	de b7       	in	r29, 0x3e	; 62
    2066:	6b 97       	sbiw	r28, 0x1b	; 27
    2068:	0f b6       	in	r0, 0x3f	; 63
    206a:	f8 94       	cli
    206c:	de bf       	out	0x3e, r29	; 62
    206e:	0f be       	out	0x3f, r0	; 63
    2070:	cd bf       	out	0x3d, r28	; 61
    2072:	1c 01       	movw	r2, r24
    2074:	4a 01       	movw	r8, r20
    2076:	5b 01       	movw	r10, r22
    2078:	3e 87       	std	Y+14, r19	; 0x0e
    207a:	2d 87       	std	Y+13, r18	; 0x0d
    207c:	42 30       	cpi	r20, 0x02	; 2
    207e:	51 05       	cpc	r21, r1
    2080:	61 05       	cpc	r22, r1
    2082:	71 05       	cpc	r23, r1
    2084:	0c f4       	brge	.+2      	;  0x2088
    2086:	35 c1       	rjmp	.+618    	;  0x22f2
    2088:	ca 01       	movw	r24, r20
    208a:	81 50       	subi	r24, 0x01	; 1
    208c:	90 4c       	sbci	r25, 0xC0	; 192
    208e:	88 0f       	add	r24, r24
    2090:	99 1f       	adc	r25, r25
    2092:	88 0f       	add	r24, r24
    2094:	99 1f       	adc	r25, r25
    2096:	21 01       	movw	r4, r2
    2098:	48 0e       	add	r4, r24
    209a:	59 1e       	adc	r5, r25
    209c:	5a 82       	std	Y+2, r5	; 0x02
    209e:	49 82       	std	Y+1, r4	; 0x01
    20a0:	d2 01       	movw	r26, r4
    20a2:	cd 90       	ld	r12, X+
    20a4:	dd 90       	ld	r13, X+
    20a6:	ed 90       	ld	r14, X+
    20a8:	fc 90       	ld	r15, X
    20aa:	64 e3       	ldi	r22, 0x34	; 52
    20ac:	70 e0       	ldi	r23, 0x00	; 0
    20ae:	80 e0       	ldi	r24, 0x00	; 0
    20b0:	90 e0       	ldi	r25, 0x00	; 0
    20b2:	a5 01       	movw	r20, r10
    20b4:	94 01       	movw	r18, r8
    20b6:	0e 94 dc 30 	call	0x61b8	;  0x61b8
    20ba:	2d 83       	std	Y+5, r18	; 0x05
    20bc:	3e 83       	std	Y+6, r19	; 0x06
    20be:	4f 83       	std	Y+7, r20	; 0x07
    20c0:	58 87       	std	Y+8, r21	; 0x08
    20c2:	00 e0       	ldi	r16, 0x00	; 0
    20c4:	10 e0       	ldi	r17, 0x00	; 0
    20c6:	98 01       	movw	r18, r16
    20c8:	b5 01       	movw	r22, r10
    20ca:	a4 01       	movw	r20, r8
    20cc:	41 50       	subi	r20, 0x01	; 1
    20ce:	51 09       	sbc	r21, r1
    20d0:	61 09       	sbc	r22, r1
    20d2:	71 09       	sbc	r23, r1
    20d4:	4b 8b       	std	Y+19, r20	; 0x13
    20d6:	5c 8b       	std	Y+20, r21	; 0x14
    20d8:	6d 8b       	std	Y+21, r22	; 0x15
    20da:	7e 8b       	std	Y+22, r23	; 0x16
    20dc:	43 70       	andi	r20, 0x03	; 3
    20de:	55 27       	eor	r21, r21
    20e0:	58 8f       	std	Y+24, r21	; 0x18
    20e2:	4f 8b       	std	Y+23, r20	; 0x17
    20e4:	07 54       	subi	r16, 0x47	; 71
    20e6:	16 48       	sbci	r17, 0x86	; 134
    20e8:	28 4c       	sbci	r18, 0xC8	; 200
    20ea:	31 46       	sbci	r19, 0x61	; 97
    20ec:	d9 01       	movw	r26, r18
    20ee:	c8 01       	movw	r24, r16
    20f0:	f2 e0       	ldi	r31, 0x02	; 2
    20f2:	b6 95       	lsr	r27
    20f4:	a7 95       	ror	r26
    20f6:	97 95       	ror	r25
    20f8:	87 95       	ror	r24
    20fa:	fa 95       	dec	r31
    20fc:	d1 f7       	brne	.-12     	;  0x20f2
    20fe:	ac 01       	movw	r20, r24
    2100:	bd 01       	movw	r22, r26
    2102:	43 70       	andi	r20, 0x03	; 3
    2104:	55 27       	eor	r21, r21
    2106:	66 27       	eor	r22, r22
    2108:	77 27       	eor	r23, r23
    210a:	49 87       	std	Y+9, r20	; 0x09
    210c:	5a 87       	std	Y+10, r21	; 0x0a
    210e:	6b 87       	std	Y+11, r22	; 0x0b
    2110:	7c 87       	std	Y+12, r23	; 0x0c
    2112:	3b 8e       	std	Y+27, r3	; 0x1b
    2114:	2a 8e       	std	Y+26, r2	; 0x1a
    2116:	40 e0       	ldi	r20, 0x00	; 0
    2118:	50 e0       	ldi	r21, 0x00	; 0
    211a:	ba 01       	movw	r22, r20
    211c:	46 01       	movw	r8, r12
    211e:	57 01       	movw	r10, r14
    2120:	b4 e0       	ldi	r27, 0x04	; 4
    2122:	88 0c       	add	r8, r8
    2124:	99 1c       	adc	r9, r9
    2126:	aa 1c       	adc	r10, r10
    2128:	bb 1c       	adc	r11, r11
    212a:	ba 95       	dec	r27
    212c:	d1 f7       	brne	.-12     	;  0x2122
    212e:	26 01       	movw	r4, r12
    2130:	37 01       	movw	r6, r14
    2132:	85 e0       	ldi	r24, 0x05	; 5
    2134:	76 94       	lsr	r7
    2136:	67 94       	ror	r6
    2138:	57 94       	ror	r5
    213a:	47 94       	ror	r4
    213c:	8a 95       	dec	r24
    213e:	d1 f7       	brne	.-12     	;  0x2134
    2140:	4f 86       	std	Y+15, r4	; 0x0f
    2142:	58 8a       	std	Y+16, r5	; 0x10
    2144:	69 8a       	std	Y+17, r6	; 0x11
    2146:	7a 8a       	std	Y+18, r7	; 0x12
    2148:	8b 89       	ldd	r24, Y+19	; 0x13
    214a:	9c 89       	ldd	r25, Y+20	; 0x14
    214c:	ad 89       	ldd	r26, Y+21	; 0x15
    214e:	be 89       	ldd	r27, Y+22	; 0x16
    2150:	48 17       	cp	r20, r24
    2152:	59 07       	cpc	r21, r25
    2154:	6a 07       	cpc	r22, r26
    2156:	7b 07       	cpc	r23, r27
    2158:	08 f0       	brcs	.+2      	;  0x215c
    215a:	63 c0       	rjmp	.+198    	;  0x2222
    215c:	ea 8d       	ldd	r30, Y+26	; 0x1a
    215e:	fb 8d       	ldd	r31, Y+27	; 0x1b
    2160:	84 81       	ldd	r24, Z+4	; 0x04
    2162:	95 81       	ldd	r25, Z+5	; 0x05
    2164:	a6 81       	ldd	r26, Z+6	; 0x06
    2166:	b7 81       	ldd	r27, Z+7	; 0x07
    2168:	3a 01       	movw	r6, r20
    216a:	f3 e0       	ldi	r31, 0x03	; 3
    216c:	6f 22       	and	r6, r31
    216e:	77 24       	eor	r7, r7
    2170:	49 84       	ldd	r4, Y+9	; 0x09
    2172:	5a 84       	ldd	r5, Y+10	; 0x0a
    2174:	64 24       	eor	r6, r4
    2176:	75 24       	eor	r7, r5
    2178:	66 0c       	add	r6, r6
    217a:	77 1c       	adc	r7, r7
    217c:	66 0c       	add	r6, r6
    217e:	77 1c       	adc	r7, r7
    2180:	4d 84       	ldd	r4, Y+13	; 0x0d
    2182:	5e 84       	ldd	r5, Y+14	; 0x0e
    2184:	64 0c       	add	r6, r4
    2186:	75 1c       	adc	r7, r5
    2188:	f3 01       	movw	r30, r6
    218a:	40 80       	ld	r4, Z
    218c:	51 80       	ldd	r5, Z+1	; 0x01
    218e:	62 80       	ldd	r6, Z+2	; 0x02
    2190:	73 80       	ldd	r7, Z+3	; 0x03
    2192:	c4 24       	eor	r12, r4
    2194:	d5 24       	eor	r13, r5
    2196:	e6 24       	eor	r14, r6
    2198:	f7 24       	eor	r15, r7
    219a:	2c 01       	movw	r4, r24
    219c:	3d 01       	movw	r6, r26
    219e:	40 26       	eor	r4, r16
    21a0:	51 26       	eor	r5, r17
    21a2:	62 26       	eor	r6, r18
    21a4:	73 26       	eor	r7, r19
    21a6:	c4 0c       	add	r12, r4
    21a8:	d5 1c       	adc	r13, r5
    21aa:	e6 1c       	adc	r14, r6
    21ac:	f7 1c       	adc	r15, r7
    21ae:	2c 01       	movw	r4, r24
    21b0:	3d 01       	movw	r6, r26
    21b2:	f3 e0       	ldi	r31, 0x03	; 3
    21b4:	76 94       	lsr	r7
    21b6:	67 94       	ror	r6
    21b8:	57 94       	ror	r5
    21ba:	47 94       	ror	r4
    21bc:	fa 95       	dec	r31
    21be:	d1 f7       	brne	.-12     	;  0x21b4
    21c0:	84 24       	eor	r8, r4
    21c2:	95 24       	eor	r9, r5
    21c4:	a6 24       	eor	r10, r6
    21c6:	b7 24       	eor	r11, r7
    21c8:	e2 e0       	ldi	r30, 0x02	; 2
    21ca:	88 0f       	add	r24, r24
    21cc:	99 1f       	adc	r25, r25
    21ce:	aa 1f       	adc	r26, r26
    21d0:	bb 1f       	adc	r27, r27
    21d2:	ea 95       	dec	r30
    21d4:	d1 f7       	brne	.-12     	;  0x21ca
    21d6:	4f 84       	ldd	r4, Y+15	; 0x0f
    21d8:	58 88       	ldd	r5, Y+16	; 0x10
    21da:	69 88       	ldd	r6, Y+17	; 0x11
    21dc:	7a 88       	ldd	r7, Y+18	; 0x12
    21de:	84 25       	eor	r24, r4
    21e0:	95 25       	eor	r25, r5
    21e2:	a6 25       	eor	r26, r6
    21e4:	b7 25       	eor	r27, r7
    21e6:	88 0d       	add	r24, r8
    21e8:	99 1d       	adc	r25, r9
    21ea:	aa 1d       	adc	r26, r10
    21ec:	bb 1d       	adc	r27, r11
    21ee:	c8 26       	eor	r12, r24
    21f0:	d9 26       	eor	r13, r25
    21f2:	ea 26       	eor	r14, r26
    21f4:	fb 26       	eor	r15, r27
    21f6:	ea 8d       	ldd	r30, Y+26	; 0x1a
    21f8:	fb 8d       	ldd	r31, Y+27	; 0x1b
    21fa:	80 81       	ld	r24, Z
    21fc:	91 81       	ldd	r25, Z+1	; 0x01
    21fe:	a2 81       	ldd	r26, Z+2	; 0x02
    2200:	b3 81       	ldd	r27, Z+3	; 0x03
    2202:	c8 0e       	add	r12, r24
    2204:	d9 1e       	adc	r13, r25
    2206:	ea 1e       	adc	r14, r26
    2208:	fb 1e       	adc	r15, r27
    220a:	df 01       	movw	r26, r30
    220c:	cd 92       	st	X+, r12
    220e:	dd 92       	st	X+, r13
    2210:	ed 92       	st	X+, r14
    2212:	fd 92       	st	X+, r15
    2214:	bb 8f       	std	Y+27, r27	; 0x1b
    2216:	aa 8f       	std	Y+26, r26	; 0x1a
    2218:	4f 5f       	subi	r20, 0xFF	; 255
    221a:	5f 4f       	sbci	r21, 0xFF	; 255
    221c:	6f 4f       	sbci	r22, 0xFF	; 255
    221e:	7f 4f       	sbci	r23, 0xFF	; 255
    2220:	7d cf       	rjmp	.-262    	;  0x211c
    2222:	d1 01       	movw	r26, r2
    2224:	4d 91       	ld	r20, X+
    2226:	5d 91       	ld	r21, X+
    2228:	6d 91       	ld	r22, X+
    222a:	7c 91       	ld	r23, X
    222c:	db 01       	movw	r26, r22
    222e:	ca 01       	movw	r24, r20
    2230:	e3 e0       	ldi	r30, 0x03	; 3
    2232:	b6 95       	lsr	r27
    2234:	a7 95       	ror	r26
    2236:	97 95       	ror	r25
    2238:	87 95       	ror	r24
    223a:	ea 95       	dec	r30
    223c:	d1 f7       	brne	.-12     	;  0x2232
    223e:	88 26       	eor	r8, r24
    2240:	99 26       	eor	r9, r25
    2242:	aa 26       	eor	r10, r26
    2244:	bb 26       	eor	r11, r27
    2246:	db 01       	movw	r26, r22
    2248:	ca 01       	movw	r24, r20
    224a:	f2 e0       	ldi	r31, 0x02	; 2
    224c:	88 0f       	add	r24, r24
    224e:	99 1f       	adc	r25, r25
    2250:	aa 1f       	adc	r26, r26
    2252:	bb 1f       	adc	r27, r27
    2254:	fa 95       	dec	r31
    2256:	d1 f7       	brne	.-12     	;  0x224c
    2258:	84 25       	eor	r24, r4
    225a:	95 25       	eor	r25, r5
    225c:	a6 25       	eor	r26, r6
    225e:	b7 25       	eor	r27, r7
    2260:	88 0e       	add	r8, r24
    2262:	99 1e       	adc	r9, r25
    2264:	aa 1e       	adc	r10, r26
    2266:	bb 1e       	adc	r11, r27
    2268:	ef 89       	ldd	r30, Y+23	; 0x17
    226a:	f8 8d       	ldd	r31, Y+24	; 0x18
    226c:	49 84       	ldd	r4, Y+9	; 0x09
    226e:	5a 84       	ldd	r5, Y+10	; 0x0a
    2270:	e4 25       	eor	r30, r4
    2272:	f5 25       	eor	r31, r5
    2274:	ee 0f       	add	r30, r30
    2276:	ff 1f       	adc	r31, r31
    2278:	ee 0f       	add	r30, r30
    227a:	ff 1f       	adc	r31, r31
    227c:	6d 84       	ldd	r6, Y+13	; 0x0d
    227e:	7e 84       	ldd	r7, Y+14	; 0x0e
    2280:	e6 0d       	add	r30, r6
    2282:	f7 1d       	adc	r31, r7
    2284:	80 81       	ld	r24, Z
    2286:	91 81       	ldd	r25, Z+1	; 0x01
    2288:	a2 81       	ldd	r26, Z+2	; 0x02
    228a:	b3 81       	ldd	r27, Z+3	; 0x03
    228c:	c8 26       	eor	r12, r24
    228e:	d9 26       	eor	r13, r25
    2290:	ea 26       	eor	r14, r26
    2292:	fb 26       	eor	r15, r27
    2294:	40 27       	eor	r20, r16
    2296:	51 27       	eor	r21, r17
    2298:	62 27       	eor	r22, r18
    229a:	73 27       	eor	r23, r19
    229c:	c4 0e       	add	r12, r20
    229e:	d5 1e       	adc	r13, r21
    22a0:	e6 1e       	adc	r14, r22
    22a2:	f7 1e       	adc	r15, r23
    22a4:	8c 24       	eor	r8, r12
    22a6:	9d 24       	eor	r9, r13
    22a8:	ae 24       	eor	r10, r14
    22aa:	bf 24       	eor	r11, r15
    22ac:	a9 81       	ldd	r26, Y+1	; 0x01
    22ae:	ba 81       	ldd	r27, Y+2	; 0x02
    22b0:	cd 90       	ld	r12, X+
    22b2:	dd 90       	ld	r13, X+
    22b4:	ed 90       	ld	r14, X+
    22b6:	fc 90       	ld	r15, X
    22b8:	13 97       	sbiw	r26, 0x03	; 3
    22ba:	c8 0c       	add	r12, r8
    22bc:	d9 1c       	adc	r13, r9
    22be:	ea 1c       	adc	r14, r10
    22c0:	fb 1c       	adc	r15, r11
    22c2:	fd 01       	movw	r30, r26
    22c4:	c0 82       	st	Z, r12
    22c6:	d1 82       	std	Z+1, r13	; 0x01
    22c8:	e2 82       	std	Z+2, r14	; 0x02
    22ca:	f3 82       	std	Z+3, r15	; 0x03
    22cc:	4d 81       	ldd	r20, Y+5	; 0x05
    22ce:	5e 81       	ldd	r21, Y+6	; 0x06
    22d0:	6f 81       	ldd	r22, Y+7	; 0x07
    22d2:	78 85       	ldd	r23, Y+8	; 0x08
    22d4:	41 50       	subi	r20, 0x01	; 1
    22d6:	51 09       	sbc	r21, r1
    22d8:	61 09       	sbc	r22, r1
    22da:	71 09       	sbc	r23, r1
    22dc:	4d 83       	std	Y+5, r20	; 0x05
    22de:	5e 83       	std	Y+6, r21	; 0x06
    22e0:	6f 83       	std	Y+7, r22	; 0x07
    22e2:	78 87       	std	Y+8, r23	; 0x08
    22e4:	4a 3f       	cpi	r20, 0xFA	; 250
    22e6:	5f 4f       	sbci	r21, 0xFF	; 255
    22e8:	6f 4f       	sbci	r22, 0xFF	; 255
    22ea:	7f 4f       	sbci	r23, 0xFF	; 255
    22ec:	09 f0       	breq	.+2      	;  0x22f0
    22ee:	fa ce       	rjmp	.-524    	;  0x20e4
    22f0:	54 c1       	rjmp	.+680    	;  0x259a
    22f2:	4f 3f       	cpi	r20, 0xFF	; 255
    22f4:	9f ef       	ldi	r25, 0xFF	; 255
    22f6:	59 07       	cpc	r21, r25
    22f8:	69 07       	cpc	r22, r25
    22fa:	79 07       	cpc	r23, r25
    22fc:	0c f0       	brlt	.+2      	;  0x2300
    22fe:	4d c1       	rjmp	.+666    	;  0x259a
    2300:	cc 24       	eor	r12, r12
    2302:	dd 24       	eor	r13, r13
    2304:	76 01       	movw	r14, r12
    2306:	c4 1a       	sub	r12, r20
    2308:	d5 0a       	sbc	r13, r21
    230a:	e6 0a       	sbc	r14, r22
    230c:	f7 0a       	sbc	r15, r23
    230e:	64 e3       	ldi	r22, 0x34	; 52
    2310:	70 e0       	ldi	r23, 0x00	; 0
    2312:	80 e0       	ldi	r24, 0x00	; 0
    2314:	90 e0       	ldi	r25, 0x00	; 0
    2316:	a7 01       	movw	r20, r14
    2318:	96 01       	movw	r18, r12
    231a:	0e 94 dc 30 	call	0x61b8	;  0x61b8
    231e:	29 01       	movw	r4, r18
    2320:	3a 01       	movw	r6, r20
    2322:	2a 5f       	subi	r18, 0xFA	; 250
    2324:	3f 4f       	sbci	r19, 0xFF	; 255
    2326:	4f 4f       	sbci	r20, 0xFF	; 255
    2328:	5f 4f       	sbci	r21, 0xFF	; 255
    232a:	69 eb       	ldi	r22, 0xB9	; 185
    232c:	79 e7       	ldi	r23, 0x79	; 121
    232e:	87 e3       	ldi	r24, 0x37	; 55
    2330:	9e e9       	ldi	r25, 0x9E	; 158
    2332:	0e 94 82 30 	call	0x6104	;  0x6104
    2336:	ab 01       	movw	r20, r22
    2338:	bc 01       	movw	r22, r24
    233a:	f1 01       	movw	r30, r2
    233c:	80 81       	ld	r24, Z
    233e:	91 81       	ldd	r25, Z+1	; 0x01
    2340:	a2 81       	ldd	r26, Z+2	; 0x02
    2342:	b3 81       	ldd	r27, Z+3	; 0x03
    2344:	f1 e0       	ldi	r31, 0x01	; 1
    2346:	cf 1a       	sub	r12, r31
    2348:	f0 ec       	ldi	r31, 0xC0	; 192
    234a:	df 0a       	sbc	r13, r31
    234c:	cc 0c       	add	r12, r12
    234e:	dd 1c       	adc	r13, r13
    2350:	cc 0c       	add	r12, r12
    2352:	dd 1c       	adc	r13, r13
    2354:	81 01       	movw	r16, r2
    2356:	0c 0d       	add	r16, r12
    2358:	1d 1d       	adc	r17, r13
    235a:	1c 8b       	std	Y+20, r17	; 0x14
    235c:	0b 8b       	std	Y+19, r16	; 0x13
    235e:	4d 82       	std	Y+5, r4	; 0x05
    2360:	5e 82       	std	Y+6, r5	; 0x06
    2362:	6f 82       	std	Y+7, r6	; 0x07
    2364:	78 86       	std	Y+8, r7	; 0x08
    2366:	80 94       	com	r8
    2368:	90 94       	com	r9
    236a:	a0 94       	com	r10
    236c:	b0 94       	com	r11
    236e:	8f 8a       	std	Y+23, r8	; 0x17
    2370:	99 8e       	std	Y+25, r9	; 0x19
    2372:	88 0c       	add	r8, r8
    2374:	99 1c       	adc	r9, r9
    2376:	88 0c       	add	r8, r8
    2378:	99 1c       	adc	r9, r9
    237a:	91 01       	movw	r18, r2
    237c:	28 0d       	add	r18, r8
    237e:	39 1d       	adc	r19, r9
    2380:	38 8b       	std	Y+16, r19	; 0x10
    2382:	2f 87       	std	Y+15, r18	; 0x0f
    2384:	6a 01       	movw	r12, r20
    2386:	7b 01       	movw	r14, r22
    2388:	f2 e0       	ldi	r31, 0x02	; 2
    238a:	f6 94       	lsr	r15
    238c:	e7 94       	ror	r14
    238e:	d7 94       	ror	r13
    2390:	c7 94       	ror	r12
    2392:	fa 95       	dec	r31
    2394:	d1 f7       	brne	.-12     	;  0x238a
    2396:	97 01       	movw	r18, r14
    2398:	86 01       	movw	r16, r12
    239a:	03 70       	andi	r16, 0x03	; 3
    239c:	11 27       	eor	r17, r17
    239e:	22 27       	eor	r18, r18
    23a0:	33 27       	eor	r19, r19
    23a2:	09 87       	std	Y+9, r16	; 0x09
    23a4:	1a 87       	std	Y+10, r17	; 0x0a
    23a6:	2b 87       	std	Y+11, r18	; 0x0b
    23a8:	3c 87       	std	Y+12, r19	; 0x0c
    23aa:	6f 88       	ldd	r6, Y+23	; 0x17
    23ac:	79 8c       	ldd	r7, Y+25	; 0x19
    23ae:	4f 84       	ldd	r4, Y+15	; 0x0f
    23b0:	58 88       	ldd	r5, Y+16	; 0x10
    23b2:	f2 01       	movw	r30, r4
    23b4:	32 91       	ld	r19, -Z
    23b6:	22 91       	ld	r18, -Z
    23b8:	12 91       	ld	r17, -Z
    23ba:	02 91       	ld	r16, -Z
    23bc:	2f 01       	movw	r4, r30
    23be:	09 83       	std	Y+1, r16	; 0x01
    23c0:	1a 83       	std	Y+2, r17	; 0x02
    23c2:	2b 83       	std	Y+3, r18	; 0x03
    23c4:	3c 83       	std	Y+4, r19	; 0x04
    23c6:	83 01       	movw	r16, r6
    23c8:	03 70       	andi	r16, 0x03	; 3
    23ca:	11 27       	eor	r17, r17
    23cc:	29 85       	ldd	r18, Y+9	; 0x09
    23ce:	3a 85       	ldd	r19, Y+10	; 0x0a
    23d0:	02 27       	eor	r16, r18
    23d2:	13 27       	eor	r17, r19
    23d4:	00 0f       	add	r16, r16
    23d6:	11 1f       	adc	r17, r17
    23d8:	00 0f       	add	r16, r16
    23da:	11 1f       	adc	r17, r17
    23dc:	ed 85       	ldd	r30, Y+13	; 0x0d
    23de:	fe 85       	ldd	r31, Y+14	; 0x0e
    23e0:	0e 0f       	add	r16, r30
    23e2:	1f 1f       	adc	r17, r31
    23e4:	f8 01       	movw	r30, r16
    23e6:	c0 80       	ld	r12, Z
    23e8:	d1 80       	ldd	r13, Z+1	; 0x01
    23ea:	e2 80       	ldd	r14, Z+2	; 0x02
    23ec:	f3 80       	ldd	r15, Z+3	; 0x03
    23ee:	09 81       	ldd	r16, Y+1	; 0x01
    23f0:	1a 81       	ldd	r17, Y+2	; 0x02
    23f2:	2b 81       	ldd	r18, Y+3	; 0x03
    23f4:	3c 81       	ldd	r19, Y+4	; 0x04
    23f6:	c0 26       	eor	r12, r16
    23f8:	d1 26       	eor	r13, r17
    23fa:	e2 26       	eor	r14, r18
    23fc:	f3 26       	eor	r15, r19
    23fe:	8c 01       	movw	r16, r24
    2400:	9d 01       	movw	r18, r26
    2402:	04 27       	eor	r16, r20
    2404:	15 27       	eor	r17, r21
    2406:	26 27       	eor	r18, r22
    2408:	37 27       	eor	r19, r23
    240a:	c0 0e       	add	r12, r16
    240c:	d1 1e       	adc	r13, r17
    240e:	e2 1e       	adc	r14, r18
    2410:	f3 1e       	adc	r15, r19
    2412:	4c 01       	movw	r8, r24
    2414:	5d 01       	movw	r10, r26
    2416:	33 e0       	ldi	r19, 0x03	; 3
    2418:	b6 94       	lsr	r11
    241a:	a7 94       	ror	r10
    241c:	97 94       	ror	r9
    241e:	87 94       	ror	r8
    2420:	3a 95       	dec	r19
    2422:	d1 f7       	brne	.-12     	;  0x2418
    2424:	09 81       	ldd	r16, Y+1	; 0x01
    2426:	1a 81       	ldd	r17, Y+2	; 0x02
    2428:	2b 81       	ldd	r18, Y+3	; 0x03
    242a:	3c 81       	ldd	r19, Y+4	; 0x04
    242c:	e4 e0       	ldi	r30, 0x04	; 4
    242e:	00 0f       	add	r16, r16
    2430:	11 1f       	adc	r17, r17
    2432:	22 1f       	adc	r18, r18
    2434:	33 1f       	adc	r19, r19
    2436:	ea 95       	dec	r30
    2438:	d1 f7       	brne	.-12     	;  0x242e
    243a:	80 26       	eor	r8, r16
    243c:	91 26       	eor	r9, r17
    243e:	a2 26       	eor	r10, r18
    2440:	b3 26       	eor	r11, r19
    2442:	f2 e0       	ldi	r31, 0x02	; 2
    2444:	88 0f       	add	r24, r24
    2446:	99 1f       	adc	r25, r25
    2448:	aa 1f       	adc	r26, r26
    244a:	bb 1f       	adc	r27, r27
    244c:	fa 95       	dec	r31
    244e:	d1 f7       	brne	.-12     	;  0x2444
    2450:	09 81       	ldd	r16, Y+1	; 0x01
    2452:	1a 81       	ldd	r17, Y+2	; 0x02
    2454:	2b 81       	ldd	r18, Y+3	; 0x03
    2456:	3c 81       	ldd	r19, Y+4	; 0x04
    2458:	e5 e0       	ldi	r30, 0x05	; 5
    245a:	36 95       	lsr	r19
    245c:	27 95       	ror	r18
    245e:	17 95       	ror	r17
    2460:	07 95       	ror	r16
    2462:	ea 95       	dec	r30
    2464:	d1 f7       	brne	.-12     	;  0x245a
    2466:	80 27       	eor	r24, r16
    2468:	91 27       	eor	r25, r17
    246a:	a2 27       	eor	r26, r18
    246c:	b3 27       	eor	r27, r19
    246e:	88 0d       	add	r24, r8
    2470:	99 1d       	adc	r25, r9
    2472:	aa 1d       	adc	r26, r10
    2474:	bb 1d       	adc	r27, r11
    2476:	c8 26       	eor	r12, r24
    2478:	d9 26       	eor	r13, r25
    247a:	ea 26       	eor	r14, r26
    247c:	fb 26       	eor	r15, r27
    247e:	f2 01       	movw	r30, r4
    2480:	84 81       	ldd	r24, Z+4	; 0x04
    2482:	95 81       	ldd	r25, Z+5	; 0x05
    2484:	a6 81       	ldd	r26, Z+6	; 0x06
    2486:	b7 81       	ldd	r27, Z+7	; 0x07
    2488:	8c 19       	sub	r24, r12
    248a:	9d 09       	sbc	r25, r13
    248c:	ae 09       	sbc	r26, r14
    248e:	bf 09       	sbc	r27, r15
    2490:	84 83       	std	Z+4, r24	; 0x04
    2492:	95 83       	std	Z+5, r25	; 0x05
    2494:	a6 83       	std	Z+6, r26	; 0x06
    2496:	b7 83       	std	Z+7, r27	; 0x07
    2498:	f1 e0       	ldi	r31, 0x01	; 1
    249a:	6f 1a       	sub	r6, r31
    249c:	71 08       	sbc	r7, r1
    249e:	42 14       	cp	r4, r2
    24a0:	53 04       	cpc	r5, r3
    24a2:	09 f0       	breq	.+2      	;  0x24a6
    24a4:	86 cf       	rjmp	.-244    	;  0x23b2
    24a6:	eb 89       	ldd	r30, Y+19	; 0x13
    24a8:	fc 89       	ldd	r31, Y+20	; 0x14
    24aa:	c0 80       	ld	r12, Z
    24ac:	d1 80       	ldd	r13, Z+1	; 0x01
    24ae:	e2 80       	ldd	r14, Z+2	; 0x02
    24b0:	f3 80       	ldd	r15, Z+3	; 0x03
    24b2:	4c 01       	movw	r8, r24
    24b4:	5d 01       	movw	r10, r26
    24b6:	23 e0       	ldi	r18, 0x03	; 3
    24b8:	b6 94       	lsr	r11
    24ba:	a7 94       	ror	r10
    24bc:	97 94       	ror	r9
    24be:	87 94       	ror	r8
    24c0:	2a 95       	dec	r18
    24c2:	d1 f7       	brne	.-12     	;  0x24b8
    24c4:	97 01       	movw	r18, r14
    24c6:	86 01       	movw	r16, r12
    24c8:	e4 e0       	ldi	r30, 0x04	; 4
    24ca:	00 0f       	add	r16, r16
    24cc:	11 1f       	adc	r17, r17
    24ce:	22 1f       	adc	r18, r18
    24d0:	33 1f       	adc	r19, r19
    24d2:	ea 95       	dec	r30
    24d4:	d1 f7       	brne	.-12     	;  0x24ca
    24d6:	80 26       	eor	r8, r16
    24d8:	91 26       	eor	r9, r17
    24da:	a2 26       	eor	r10, r18
    24dc:	b3 26       	eor	r11, r19
    24de:	2c 01       	movw	r4, r24
    24e0:	3d 01       	movw	r6, r26
    24e2:	f2 e0       	ldi	r31, 0x02	; 2
    24e4:	44 0c       	add	r4, r4
    24e6:	55 1c       	adc	r5, r5
    24e8:	66 1c       	adc	r6, r6
    24ea:	77 1c       	adc	r7, r7
    24ec:	fa 95       	dec	r31
    24ee:	d1 f7       	brne	.-12     	;  0x24e4
    24f0:	97 01       	movw	r18, r14
    24f2:	86 01       	movw	r16, r12
    24f4:	e5 e0       	ldi	r30, 0x05	; 5
    24f6:	36 95       	lsr	r19
    24f8:	27 95       	ror	r18
    24fa:	17 95       	ror	r17
    24fc:	07 95       	ror	r16
    24fe:	ea 95       	dec	r30
    2500:	d1 f7       	brne	.-12     	;  0x24f6
    2502:	04 25       	eor	r16, r4
    2504:	15 25       	eor	r17, r5
    2506:	26 25       	eor	r18, r6
    2508:	37 25       	eor	r19, r7
    250a:	08 0d       	add	r16, r8
    250c:	19 1d       	adc	r17, r9
    250e:	2a 1d       	adc	r18, r10
    2510:	3b 1d       	adc	r19, r11
    2512:	84 27       	eor	r24, r20
    2514:	95 27       	eor	r25, r21
    2516:	a6 27       	eor	r26, r22
    2518:	b7 27       	eor	r27, r23
    251a:	a9 84       	ldd	r10, Y+9	; 0x09
    251c:	ba 84       	ldd	r11, Y+10	; 0x0a
    251e:	aa 0c       	add	r10, r10
    2520:	bb 1c       	adc	r11, r11
    2522:	aa 0c       	add	r10, r10
    2524:	bb 1c       	adc	r11, r11
    2526:	4d 84       	ldd	r4, Y+13	; 0x0d
    2528:	5e 84       	ldd	r5, Y+14	; 0x0e
    252a:	a4 0c       	add	r10, r4
    252c:	b5 1c       	adc	r11, r5
    252e:	f5 01       	movw	r30, r10
    2530:	80 80       	ld	r8, Z
    2532:	91 80       	ldd	r9, Z+1	; 0x01
    2534:	a2 80       	ldd	r10, Z+2	; 0x02
    2536:	b3 80       	ldd	r11, Z+3	; 0x03
    2538:	c8 24       	eor	r12, r8
    253a:	d9 24       	eor	r13, r9
    253c:	ea 24       	eor	r14, r10
    253e:	fb 24       	eor	r15, r11
    2540:	8c 0d       	add	r24, r12
    2542:	9d 1d       	adc	r25, r13
    2544:	ae 1d       	adc	r26, r14
    2546:	bf 1d       	adc	r27, r15
    2548:	80 27       	eor	r24, r16
    254a:	91 27       	eor	r25, r17
    254c:	a2 27       	eor	r26, r18
    254e:	b3 27       	eor	r27, r19
    2550:	49 80       	ldd	r4, Y+1	; 0x01
    2552:	5a 80       	ldd	r5, Y+2	; 0x02
    2554:	6b 80       	ldd	r6, Y+3	; 0x03
    2556:	7c 80       	ldd	r7, Y+4	; 0x04
    2558:	48 1a       	sub	r4, r24
    255a:	59 0a       	sbc	r5, r25
    255c:	6a 0a       	sbc	r6, r26
    255e:	7b 0a       	sbc	r7, r27
    2560:	d3 01       	movw	r26, r6
    2562:	c2 01       	movw	r24, r4
    2564:	f1 01       	movw	r30, r2
    2566:	40 82       	st	Z, r4
    2568:	51 82       	std	Z+1, r5	; 0x01
    256a:	62 82       	std	Z+2, r6	; 0x02
    256c:	73 82       	std	Z+3, r7	; 0x03
    256e:	49 5b       	subi	r20, 0xB9	; 185
    2570:	59 47       	sbci	r21, 0x79	; 121
    2572:	67 43       	sbci	r22, 0x37	; 55
    2574:	7e 49       	sbci	r23, 0x9E	; 158
    2576:	0d 81       	ldd	r16, Y+5	; 0x05
    2578:	1e 81       	ldd	r17, Y+6	; 0x06
    257a:	2f 81       	ldd	r18, Y+7	; 0x07
    257c:	38 85       	ldd	r19, Y+8	; 0x08
    257e:	01 50       	subi	r16, 0x01	; 1
    2580:	11 09       	sbc	r17, r1
    2582:	21 09       	sbc	r18, r1
    2584:	31 09       	sbc	r19, r1
    2586:	0d 83       	std	Y+5, r16	; 0x05
    2588:	1e 83       	std	Y+6, r17	; 0x06
    258a:	2f 83       	std	Y+7, r18	; 0x07
    258c:	38 87       	std	Y+8, r19	; 0x08
    258e:	0a 3f       	cpi	r16, 0xFA	; 250
    2590:	1f 4f       	sbci	r17, 0xFF	; 255
    2592:	2f 4f       	sbci	r18, 0xFF	; 255
    2594:	3f 4f       	sbci	r19, 0xFF	; 255
    2596:	09 f0       	breq	.+2      	;  0x259a
    2598:	f5 ce       	rjmp	.-534    	;  0x2384
    259a:	6b 96       	adiw	r28, 0x1b	; 27
    259c:	0f b6       	in	r0, 0x3f	; 63
    259e:	f8 94       	cli
    25a0:	de bf       	out	0x3e, r29	; 62
    25a2:	0f be       	out	0x3f, r0	; 63
    25a4:	cd bf       	out	0x3d, r28	; 61
    25a6:	df 91       	pop	r29
    25a8:	cf 91       	pop	r28
    25aa:	1f 91       	pop	r17
    25ac:	0f 91       	pop	r16
    25ae:	ff 90       	pop	r15
    25b0:	ef 90       	pop	r14
    25b2:	df 90       	pop	r13
    25b4:	cf 90       	pop	r12
    25b6:	bf 90       	pop	r11
    25b8:	af 90       	pop	r10
    25ba:	9f 90       	pop	r9
    25bc:	8f 90       	pop	r8
    25be:	7f 90       	pop	r7
    25c0:	6f 90       	pop	r6
    25c2:	5f 90       	pop	r5
    25c4:	4f 90       	pop	r4
    25c6:	3f 90       	pop	r3
    25c8:	2f 90       	pop	r2
    25ca:	08 95       	ret
    25cc:	0f 93       	push	r16
    25ce:	1f 93       	push	r17
    25d0:	00 97       	sbiw	r24, 0x00	; 0
    25d2:	c9 f0       	breq	.+50     	;  0x2606
    25d4:	8a 01       	movw	r16, r20
    25d6:	9b 01       	movw	r18, r22
    25d8:	01 50       	subi	r16, 0x01	; 1
    25da:	11 09       	sbc	r17, r1
    25dc:	21 09       	sbc	r18, r1
    25de:	31 09       	sbc	r19, r1
    25e0:	00 31       	cpi	r16, 0x10	; 16
    25e2:	11 05       	cpc	r17, r1
    25e4:	21 05       	cpc	r18, r1
    25e6:	31 05       	cpc	r19, r1
    25e8:	70 f4       	brcc	.+28     	;  0x2606
    25ea:	20 e1       	ldi	r18, 0x10	; 16
    25ec:	ec e5       	ldi	r30, 0x5C	; 92
    25ee:	f3 e0       	ldi	r31, 0x03	; 3
    25f0:	df 01       	movw	r26, r30
    25f2:	1d 92       	st	X+, r1
    25f4:	2a 95       	dec	r18
    25f6:	e9 f7       	brne	.-6      	;  0x25f2
    25f8:	bc 01       	movw	r22, r24
    25fa:	cf 01       	movw	r24, r30
    25fc:	0e 94 16 33 	call	0x662c	;  0x662c
    2600:	80 e0       	ldi	r24, 0x00	; 0
    2602:	90 e0       	ldi	r25, 0x00	; 0
    2604:	02 c0       	rjmp	.+4      	;  0x260a
    2606:	82 e0       	ldi	r24, 0x02	; 2
    2608:	90 e0       	ldi	r25, 0x00	; 0
    260a:	1f 91       	pop	r17
    260c:	0f 91       	pop	r16
    260e:	08 95       	ret
    2610:	4f 92       	push	r4
    2612:	5f 92       	push	r5
    2614:	6f 92       	push	r6
    2616:	7f 92       	push	r7
    2618:	af 92       	push	r10
    261a:	bf 92       	push	r11
    261c:	cf 92       	push	r12
    261e:	df 92       	push	r13
    2620:	ef 92       	push	r14
    2622:	ff 92       	push	r15
    2624:	0f 93       	push	r16
    2626:	1f 93       	push	r17
    2628:	cf 93       	push	r28
    262a:	df 93       	push	r29
    262c:	59 01       	movw	r10, r18
    262e:	e8 01       	movw	r28, r16
    2630:	00 97       	sbiw	r24, 0x00	; 0
    2632:	09 f4       	brne	.+2      	;  0x2636
    2634:	71 c0       	rjmp	.+226    	;  0x2718
    2636:	8a 01       	movw	r16, r20
    2638:	9b 01       	movw	r18, r22
    263a:	01 50       	subi	r16, 0x01	; 1
    263c:	11 09       	sbc	r17, r1
    263e:	21 09       	sbc	r18, r1
    2640:	31 09       	sbc	r19, r1
    2642:	00 35       	cpi	r16, 0x50	; 80
    2644:	11 05       	cpc	r17, r1
    2646:	21 05       	cpc	r18, r1
    2648:	31 05       	cpc	r19, r1
    264a:	08 f0       	brcs	.+2      	;  0x264e
    264c:	65 c0       	rjmp	.+202    	;  0x2718
    264e:	a1 14       	cp	r10, r1
    2650:	b1 04       	cpc	r11, r1
    2652:	09 f4       	brne	.+2      	;  0x2656
    2654:	61 c0       	rjmp	.+194    	;  0x2718
    2656:	08 81       	ld	r16, Y
    2658:	19 81       	ldd	r17, Y+1	; 0x01
    265a:	2a 81       	ldd	r18, Y+2	; 0x02
    265c:	3b 81       	ldd	r19, Y+3	; 0x03
    265e:	10 16       	cp	r1, r16
    2660:	11 06       	cpc	r1, r17
    2662:	12 06       	cpc	r1, r18
    2664:	13 06       	cpc	r1, r19
    2666:	0c f0       	brlt	.+2      	;  0x266a
    2668:	57 c0       	rjmp	.+174    	;  0x2718
    266a:	04 17       	cp	r16, r20
    266c:	15 07       	cpc	r17, r21
    266e:	26 07       	cpc	r18, r22
    2670:	37 07       	cpc	r19, r23
    2672:	0c f4       	brge	.+2      	;  0x2676
    2674:	51 c0       	rjmp	.+162    	;  0x2718
    2676:	6a 01       	movw	r12, r20
    2678:	7b 01       	movw	r14, r22
    267a:	e2 e0       	ldi	r30, 0x02	; 2
    267c:	f5 94       	asr	r15
    267e:	e7 94       	ror	r14
    2680:	d7 94       	ror	r13
    2682:	c7 94       	ror	r12
    2684:	ea 95       	dec	r30
    2686:	d1 f7       	brne	.-12     	;  0x267c
    2688:	2a 01       	movw	r4, r20
    268a:	3b 01       	movw	r6, r22
    268c:	a3 e0       	ldi	r26, 0x03	; 3
    268e:	4a 22       	and	r4, r26
    2690:	55 24       	eor	r5, r5
    2692:	66 24       	eor	r6, r6
    2694:	77 24       	eor	r7, r7
    2696:	45 28       	or	r4, r5
    2698:	46 28       	or	r4, r6
    269a:	47 28       	or	r4, r7
    269c:	59 f0       	breq	.+22     	;  0x26b4
    269e:	bf ef       	ldi	r27, 0xFF	; 255
    26a0:	cb 1a       	sub	r12, r27
    26a2:	db 0a       	sbc	r13, r27
    26a4:	eb 0a       	sbc	r14, r27
    26a6:	fb 0a       	sbc	r15, r27
    26a8:	e5 e1       	ldi	r30, 0x15	; 21
    26aa:	ce 16       	cp	r12, r30
    26ac:	d1 04       	cpc	r13, r1
    26ae:	e1 04       	cpc	r14, r1
    26b0:	f1 04       	cpc	r15, r1
    26b2:	a9 f1       	breq	.+106    	;  0x271e
    26b4:	26 01       	movw	r4, r12
    26b6:	37 01       	movw	r6, r14
    26b8:	62 e0       	ldi	r22, 0x02	; 2
    26ba:	44 0c       	add	r4, r4
    26bc:	55 1c       	adc	r5, r5
    26be:	66 1c       	adc	r6, r6
    26c0:	77 1c       	adc	r7, r7
    26c2:	6a 95       	dec	r22
    26c4:	d1 f7       	brne	.-12     	;  0x26ba
    26c6:	04 15       	cp	r16, r4
    26c8:	15 05       	cpc	r17, r5
    26ca:	26 05       	cpc	r18, r6
    26cc:	37 05       	cpc	r19, r7
    26ce:	3c f1       	brlt	.+78     	;  0x271e
    26d0:	20 e5       	ldi	r18, 0x50	; 80
    26d2:	ec e6       	ldi	r30, 0x6C	; 108
    26d4:	f3 e0       	ldi	r31, 0x03	; 3
    26d6:	df 01       	movw	r26, r30
    26d8:	1d 92       	st	X+, r1
    26da:	2a 95       	dec	r18
    26dc:	e9 f7       	brne	.-6      	;  0x26d8
    26de:	bc 01       	movw	r22, r24
    26e0:	cf 01       	movw	r24, r30
    26e2:	0e 94 16 33 	call	0x662c	;  0x662c
    26e6:	2c e5       	ldi	r18, 0x5C	; 92
    26e8:	33 e0       	ldi	r19, 0x03	; 3
    26ea:	b7 01       	movw	r22, r14
    26ec:	a6 01       	movw	r20, r12
    26ee:	8c e6       	ldi	r24, 0x6C	; 108
    26f0:	93 e0       	ldi	r25, 0x03	; 3
    26f2:	0e 94 1f 10 	call	0x203e	;  0x203e
    26f6:	a6 01       	movw	r20, r12
    26f8:	44 0f       	add	r20, r20
    26fa:	55 1f       	adc	r21, r21
    26fc:	44 0f       	add	r20, r20
    26fe:	55 1f       	adc	r21, r21
    2700:	6c e6       	ldi	r22, 0x6C	; 108
    2702:	73 e0       	ldi	r23, 0x03	; 3
    2704:	c5 01       	movw	r24, r10
    2706:	0e 94 16 33 	call	0x662c	;  0x662c
    270a:	48 82       	st	Y, r4
    270c:	59 82       	std	Y+1, r5	; 0x01
    270e:	6a 82       	std	Y+2, r6	; 0x02
    2710:	7b 82       	std	Y+3, r7	; 0x03
    2712:	80 e0       	ldi	r24, 0x00	; 0
    2714:	90 e0       	ldi	r25, 0x00	; 0
    2716:	05 c0       	rjmp	.+10     	;  0x2722
    2718:	82 e0       	ldi	r24, 0x02	; 2
    271a:	90 e0       	ldi	r25, 0x00	; 0
    271c:	02 c0       	rjmp	.+4      	;  0x2722
    271e:	83 e0       	ldi	r24, 0x03	; 3
    2720:	90 e0       	ldi	r25, 0x00	; 0
    2722:	df 91       	pop	r29
    2724:	cf 91       	pop	r28
    2726:	1f 91       	pop	r17
    2728:	0f 91       	pop	r16
    272a:	ff 90       	pop	r15
    272c:	ef 90       	pop	r14
    272e:	df 90       	pop	r13
    2730:	cf 90       	pop	r12
    2732:	bf 90       	pop	r11
    2734:	af 90       	pop	r10
    2736:	7f 90       	pop	r7
    2738:	6f 90       	pop	r6
    273a:	5f 90       	pop	r5
    273c:	4f 90       	pop	r4
    273e:	08 95       	ret
    2740:	cf 93       	push	r28
    2742:	df 93       	push	r29
    2744:	fc 01       	movw	r30, r24
    2746:	10 82       	st	Z, r1
    2748:	fb 01       	movw	r30, r22
    274a:	44 81       	ldd	r20, Z+4	; 0x04
    274c:	55 81       	ldd	r21, Z+5	; 0x05
    274e:	41 31       	cpi	r20, 0x11	; 17
    2750:	51 05       	cpc	r21, r1
    2752:	50 f4       	brcc	.+20     	;  0x2768
    2754:	ec 01       	movw	r28, r24
    2756:	60 e0       	ldi	r22, 0x00	; 0
    2758:	70 e0       	ldi	r23, 0x00	; 0
    275a:	80 81       	ld	r24, Z
    275c:	91 81       	ldd	r25, Z+1	; 0x01
    275e:	0e 94 e6 12 	call	0x25cc	;  0x25cc
    2762:	81 e0       	ldi	r24, 0x01	; 1
    2764:	88 83       	st	Y, r24
    2766:	01 c0       	rjmp	.+2      	;  0x276a
    2768:	80 e0       	ldi	r24, 0x00	; 0
    276a:	df 91       	pop	r29
    276c:	cf 91       	pop	r28
    276e:	08 95       	ret
    2770:	8f 92       	push	r8
    2772:	9f 92       	push	r9
    2774:	af 92       	push	r10
    2776:	bf 92       	push	r11
    2778:	cf 92       	push	r12
    277a:	df 92       	push	r13
    277c:	ef 92       	push	r14
    277e:	ff 92       	push	r15
    2780:	0f 93       	push	r16
    2782:	1f 93       	push	r17
    2784:	cf 93       	push	r28
    2786:	df 93       	push	r29
    2788:	cd b7       	in	r28, 0x3d	; 61
    278a:	de b7       	in	r29, 0x3e	; 62
    278c:	2a 97       	sbiw	r28, 0x0a	; 10
    278e:	0f b6       	in	r0, 0x3f	; 63
    2790:	f8 94       	cli
    2792:	de bf       	out	0x3e, r29	; 62
    2794:	0f be       	out	0x3f, r0	; 63
    2796:	cd bf       	out	0x3d, r28	; 61
    2798:	7c 01       	movw	r14, r24
    279a:	fa 01       	movw	r30, r20
    279c:	db 01       	movw	r26, r22
    279e:	8c 91       	ld	r24, X
    27a0:	88 23       	and	r24, r24
    27a2:	09 f4       	brne	.+2      	;  0x27a6
    27a4:	71 c0       	rjmp	.+226    	;  0x2888
    27a6:	44 81       	ldd	r20, Z+4	; 0x04
    27a8:	55 81       	ldd	r21, Z+5	; 0x05
    27aa:	ca 01       	movw	r24, r20
    27ac:	01 97       	sbiw	r24, 0x01	; 1
    27ae:	8f 34       	cpi	r24, 0x4F	; 79
    27b0:	91 05       	cpc	r25, r1
    27b2:	08 f0       	brcs	.+2      	;  0x27b6
    27b4:	69 c0       	rjmp	.+210    	;  0x2888
    27b6:	80 e5       	ldi	r24, 0x50	; 80
    27b8:	90 e0       	ldi	r25, 0x00	; 0
    27ba:	a0 e0       	ldi	r26, 0x00	; 0
    27bc:	b0 e0       	ldi	r27, 0x00	; 0
    27be:	8f 83       	std	Y+7, r24	; 0x07
    27c0:	98 87       	std	Y+8, r25	; 0x08
    27c2:	a9 87       	std	Y+9, r26	; 0x09
    27c4:	ba 87       	std	Y+10, r27	; 0x0a
    27c6:	6b 01       	movw	r12, r22
    27c8:	bf ef       	ldi	r27, 0xFF	; 255
    27ca:	cb 1a       	sub	r12, r27
    27cc:	db 0a       	sbc	r13, r27
    27ce:	60 e0       	ldi	r22, 0x00	; 0
    27d0:	70 e0       	ldi	r23, 0x00	; 0
    27d2:	8e 01       	movw	r16, r28
    27d4:	09 5f       	subi	r16, 0xF9	; 249
    27d6:	1f 4f       	sbci	r17, 0xFF	; 255
    27d8:	96 01       	movw	r18, r12
    27da:	80 81       	ld	r24, Z
    27dc:	91 81       	ldd	r25, Z+1	; 0x01
    27de:	0e 94 08 13 	call	0x2610	;  0x2610
    27e2:	89 2b       	or	r24, r25
    27e4:	09 f0       	breq	.+2      	;  0x27e8
    27e6:	50 c0       	rjmp	.+160    	;  0x2888
    27e8:	61 eb       	ldi	r22, 0xB1	; 177
    27ea:	71 e0       	ldi	r23, 0x01	; 1
    27ec:	ce 01       	movw	r24, r28
    27ee:	01 96       	adiw	r24, 0x01	; 1
    27f0:	0e 94 03 22 	call	0x4406	;  0x4406
    27f4:	6f 81       	ldd	r22, Y+7	; 0x07
    27f6:	78 85       	ldd	r23, Y+8	; 0x08
    27f8:	66 0f       	add	r22, r22
    27fa:	77 1f       	adc	r23, r23
    27fc:	6f 5f       	subi	r22, 0xFF	; 255
    27fe:	7f 4f       	sbci	r23, 0xFF	; 255
    2800:	ce 01       	movw	r24, r28
    2802:	01 96       	adiw	r24, 0x01	; 1
    2804:	0e 94 c6 21 	call	0x438c	;  0x438c
    2808:	61 eb       	ldi	r22, 0xB1	; 177
    280a:	71 e0       	ldi	r23, 0x01	; 1
    280c:	ce 01       	movw	r24, r28
    280e:	01 96       	adiw	r24, 0x01	; 1
    2810:	0e 94 59 22 	call	0x44b2	;  0x44b2
    2814:	86 01       	movw	r16, r12
    2816:	81 2c       	mov	r8, r1
    2818:	91 2c       	mov	r9, r1
    281a:	54 01       	movw	r10, r8
    281c:	8f 81       	ldd	r24, Y+7	; 0x07
    281e:	98 85       	ldd	r25, Y+8	; 0x08
    2820:	a9 85       	ldd	r26, Y+9	; 0x09
    2822:	ba 85       	ldd	r27, Y+10	; 0x0a
    2824:	88 16       	cp	r8, r24
    2826:	99 06       	cpc	r9, r25
    2828:	aa 06       	cpc	r10, r26
    282a:	bb 06       	cpc	r11, r27
    282c:	14 f5       	brge	.+68     	;  0x2872
    282e:	68 01       	movw	r12, r16
    2830:	f8 01       	movw	r30, r16
    2832:	60 81       	ld	r22, Z
    2834:	62 95       	swap	r22
    2836:	6f 70       	andi	r22, 0x0F	; 15
    2838:	6a 30       	cpi	r22, 0x0A	; 10
    283a:	10 f0       	brcs	.+4      	;  0x2840
    283c:	69 5c       	subi	r22, 0xC9	; 201
    283e:	01 c0       	rjmp	.+2      	;  0x2842
    2840:	60 5d       	subi	r22, 0xD0	; 208
    2842:	ce 01       	movw	r24, r28
    2844:	01 96       	adiw	r24, 0x01	; 1
    2846:	0e 94 c8 22 	call	0x4590	;  0x4590
    284a:	0f 5f       	subi	r16, 0xFF	; 255
    284c:	1f 4f       	sbci	r17, 0xFF	; 255
    284e:	d6 01       	movw	r26, r12
    2850:	6c 91       	ld	r22, X
    2852:	6f 70       	andi	r22, 0x0F	; 15
    2854:	6a 30       	cpi	r22, 0x0A	; 10
    2856:	10 f0       	brcs	.+4      	;  0x285c
    2858:	69 5c       	subi	r22, 0xC9	; 201
    285a:	01 c0       	rjmp	.+2      	;  0x285e
    285c:	60 5d       	subi	r22, 0xD0	; 208
    285e:	ce 01       	movw	r24, r28
    2860:	01 96       	adiw	r24, 0x01	; 1
    2862:	0e 94 c8 22 	call	0x4590	;  0x4590
    2866:	bf ef       	ldi	r27, 0xFF	; 255
    2868:	8b 1a       	sub	r8, r27
    286a:	9b 0a       	sbc	r9, r27
    286c:	ab 0a       	sbc	r10, r27
    286e:	bb 0a       	sbc	r11, r27
    2870:	d5 cf       	rjmp	.-86     	;  0x281c
    2872:	be 01       	movw	r22, r28
    2874:	6f 5f       	subi	r22, 0xFF	; 255
    2876:	7f 4f       	sbci	r23, 0xFF	; 255
    2878:	c7 01       	movw	r24, r14
    287a:	0e 94 70 21 	call	0x42e0	;  0x42e0
    287e:	ce 01       	movw	r24, r28
    2880:	01 96       	adiw	r24, 0x01	; 1
    2882:	0e 94 95 21 	call	0x432a	;  0x432a
    2886:	05 c0       	rjmp	.+10     	;  0x2892
    2888:	63 e5       	ldi	r22, 0x53	; 83
    288a:	73 e0       	ldi	r23, 0x03	; 3
    288c:	c7 01       	movw	r24, r14
    288e:	0e 94 91 22 	call	0x4522	;  0x4522
    2892:	c7 01       	movw	r24, r14
    2894:	2a 96       	adiw	r28, 0x0a	; 10
    2896:	0f b6       	in	r0, 0x3f	; 63
    2898:	f8 94       	cli
    289a:	de bf       	out	0x3e, r29	; 62
    289c:	0f be       	out	0x3f, r0	; 63
    289e:	cd bf       	out	0x3d, r28	; 61
    28a0:	df 91       	pop	r29
    28a2:	cf 91       	pop	r28
    28a4:	1f 91       	pop	r17
    28a6:	0f 91       	pop	r16
    28a8:	ff 90       	pop	r15
    28aa:	ef 90       	pop	r14
    28ac:	df 90       	pop	r13
    28ae:	cf 90       	pop	r12
    28b0:	bf 90       	pop	r11
    28b2:	af 90       	pop	r10
    28b4:	9f 90       	pop	r9
    28b6:	8f 90       	pop	r8
    28b8:	08 95       	ret
    28ba:	10 92 0b 03 	sts	0x030B, r1
    28be:	08 95       	ret
    28c0:	cf 93       	push	r28
    28c2:	df 93       	push	r29
    28c4:	1f 92       	push	r1
    28c6:	cd b7       	in	r28, 0x3d	; 61
    28c8:	de b7       	in	r29, 0x3e	; 62
    28ca:	69 83       	std	Y+1, r22	; 0x01
    28cc:	dc 01       	movw	r26, r24
    28ce:	ed 91       	ld	r30, X+
    28d0:	fc 91       	ld	r31, X
    28d2:	02 80       	ldd	r0, Z+2	; 0x02
    28d4:	f3 81       	ldd	r31, Z+3	; 0x03
    28d6:	e0 2d       	mov	r30, r0
    28d8:	41 e0       	ldi	r20, 0x01	; 1
    28da:	50 e0       	ldi	r21, 0x00	; 0
    28dc:	be 01       	movw	r22, r28
    28de:	6f 5f       	subi	r22, 0xFF	; 255
    28e0:	7f 4f       	sbci	r23, 0xFF	; 255
    28e2:	09 95       	icall
    28e4:	0f 90       	pop	r0
    28e6:	df 91       	pop	r29
    28e8:	cf 91       	pop	r28
    28ea:	08 95       	ret
    28ec:	cf 93       	push	r28
    28ee:	df 93       	push	r29
    28f0:	ec 01       	movw	r28, r24
    28f2:	8c 85       	ldd	r24, Y+12	; 0x0c
    28f4:	9d 85       	ldd	r25, Y+13	; 0x0d
    28f6:	97 ff       	sbrs	r25, 7
    28f8:	05 c0       	rjmp	.+10     	;  0x2904
    28fa:	82 e0       	ldi	r24, 0x02	; 2
    28fc:	0e 94 a4 1a 	call	0x3548	;  0x3548
    2900:	9d 87       	std	Y+13, r25	; 0x0d
    2902:	8c 87       	std	Y+12, r24	; 0x0c
    2904:	8c 85       	ldd	r24, Y+12	; 0x0c
    2906:	9d 85       	ldd	r25, Y+13	; 0x0d
    2908:	df 91       	pop	r29
    290a:	cf 91       	pop	r28
    290c:	08 95       	ret
    290e:	83 e0       	ldi	r24, 0x03	; 3
    2910:	0c 94 c7 1b 	jmp	0x378e	;  0x378e
    2914:	fc 01       	movw	r30, r24
    2916:	84 85       	ldd	r24, Z+12	; 0x0c
    2918:	95 85       	ldd	r25, Z+13	; 0x0d
    291a:	97 fd       	sbrc	r25, 7
    291c:	06 c0       	rjmp	.+12     	;  0x292a
    291e:	82 e0       	ldi	r24, 0x02	; 2
    2920:	0e 94 4e 1a 	call	0x349c	;  0x349c
    2924:	90 e0       	ldi	r25, 0x00	; 0
    2926:	01 96       	adiw	r24, 0x01	; 1
    2928:	08 95       	ret
    292a:	82 e0       	ldi	r24, 0x02	; 2
    292c:	0e 94 4e 1a 	call	0x349c	;  0x349c
    2930:	90 e0       	ldi	r25, 0x00	; 0
    2932:	08 95       	ret
    2934:	fc 01       	movw	r30, r24
    2936:	84 85       	ldd	r24, Z+12	; 0x0c
    2938:	95 85       	ldd	r25, Z+13	; 0x0d
    293a:	97 fd       	sbrc	r25, 7
    293c:	05 c0       	rjmp	.+10     	;  0x2948
    293e:	2f ef       	ldi	r18, 0xFF	; 255
    2940:	3f ef       	ldi	r19, 0xFF	; 255
    2942:	35 87       	std	Z+13, r19	; 0x0d
    2944:	24 87       	std	Z+12, r18	; 0x0c
    2946:	08 95       	ret
    2948:	82 e0       	ldi	r24, 0x02	; 2
    294a:	0c 94 a4 1a 	jmp	0x3548	;  0x3548
    294e:	cf 93       	push	r28
    2950:	df 93       	push	r29
    2952:	ec 01       	movw	r28, r24
    2954:	80 91 14 01 	lds	r24, 0x0114
    2958:	88 23       	and	r24, r24
    295a:	31 f0       	breq	.+12     	;  0x2968
    295c:	83 e0       	ldi	r24, 0x03	; 3
    295e:	0e 94 d5 1a 	call	0x35aa	;  0x35aa
    2962:	18 16       	cp	r1, r24
    2964:	19 06       	cpc	r1, r25
    2966:	34 f0       	brlt	.+12     	;  0x2974
    2968:	81 e0       	ldi	r24, 0x01	; 1
    296a:	90 e0       	ldi	r25, 0x00	; 0
    296c:	9b 83       	std	Y+3, r25	; 0x03
    296e:	8a 83       	std	Y+2, r24	; 0x02
    2970:	80 e0       	ldi	r24, 0x00	; 0
    2972:	90 e0       	ldi	r25, 0x00	; 0
    2974:	df 91       	pop	r29
    2976:	cf 91       	pop	r28
    2978:	08 95       	ret
    297a:	fc 01       	movw	r30, r24
    297c:	90 81       	ld	r25, Z
    297e:	9e 5f       	subi	r25, 0xFE	; 254
    2980:	90 83       	st	Z, r25
    2982:	42 e4       	ldi	r20, 0x42	; 66
    2984:	50 e0       	ldi	r21, 0x00	; 0
    2986:	6a e5       	ldi	r22, 0x5A	; 90
    2988:	73 e0       	ldi	r23, 0x03	; 3
    298a:	80 e8       	ldi	r24, 0x80	; 128
    298c:	0c 94 6d 1b 	jmp	0x36da	;  0x36da
    2990:	fc 01       	movw	r30, r24
    2992:	81 81       	ldd	r24, Z+1	; 0x01
    2994:	90 81       	ld	r25, Z
    2996:	91 3a       	cpi	r25, 0xA1	; 161
    2998:	59 f4       	brne	.+22     	;  0x29b0
    299a:	81 32       	cpi	r24, 0x21	; 33
    299c:	09 f0       	breq	.+2      	;  0x29a0
    299e:	48 c0       	rjmp	.+144    	;  0x2a30
    29a0:	47 e0       	ldi	r20, 0x07	; 7
    29a2:	50 e0       	ldi	r21, 0x00	; 0
    29a4:	6d e0       	ldi	r22, 0x0D	; 13
    29a6:	71 e0       	ldi	r23, 0x01	; 1
    29a8:	80 e0       	ldi	r24, 0x00	; 0
    29aa:	0e 94 6d 1b 	call	0x36da	;  0x36da
    29ae:	73 c0       	rjmp	.+230    	;  0x2a96
    29b0:	91 32       	cpi	r25, 0x21	; 33
    29b2:	f1 f5       	brne	.+124    	;  0x2a30
    29b4:	83 32       	cpi	r24, 0x23	; 35
    29b6:	91 f4       	brne	.+36     	;  0x29dc
    29b8:	93 81       	ldd	r25, Z+3	; 0x03
    29ba:	89 2f       	mov	r24, r25
    29bc:	90 e0       	ldi	r25, 0x00	; 0
    29be:	98 2f       	mov	r25, r24
    29c0:	88 27       	eor	r24, r24
    29c2:	22 81       	ldd	r18, Z+2	; 0x02
    29c4:	82 2b       	or	r24, r18
    29c6:	a0 e0       	ldi	r26, 0x00	; 0
    29c8:	b0 e0       	ldi	r27, 0x00	; 0
    29ca:	80 93 09 01 	sts	0x0109, r24
    29ce:	90 93 0a 01 	sts	0x010A, r25
    29d2:	a0 93 0b 01 	sts	0x010B, r26
    29d6:	b0 93 0c 01 	sts	0x010C, r27
    29da:	5d c0       	rjmp	.+186    	;  0x2a96
    29dc:	80 32       	cpi	r24, 0x20	; 32
    29de:	39 f4       	brne	.+14     	;  0x29ee
    29e0:	67 e0       	ldi	r22, 0x07	; 7
    29e2:	70 e0       	ldi	r23, 0x00	; 0
    29e4:	8d e0       	ldi	r24, 0x0D	; 13
    29e6:	91 e0       	ldi	r25, 0x01	; 1
    29e8:	0e 94 94 1b 	call	0x3728	;  0x3728
    29ec:	06 c0       	rjmp	.+12     	;  0x29fa
    29ee:	82 32       	cpi	r24, 0x22	; 34
    29f0:	09 f0       	breq	.+2      	;  0x29f4
    29f2:	51 c0       	rjmp	.+162    	;  0x2a96
    29f4:	82 81       	ldd	r24, Z+2	; 0x02
    29f6:	80 93 14 01 	sts	0x0114, r24
    29fa:	80 91 0c 04 	lds	r24, 0x040C
    29fe:	88 23       	and	r24, r24
    2a00:	19 f0       	breq	.+6      	;  0x2a08
    2a02:	ee ef       	ldi	r30, 0xFE	; 254
    2a04:	fa e0       	ldi	r31, 0x0A	; 10
    2a06:	02 c0       	rjmp	.+4      	;  0x2a0c
    2a08:	e0 e0       	ldi	r30, 0x00	; 0
    2a0a:	f8 e0       	ldi	r31, 0x08	; 8
    2a0c:	80 91 0d 01 	lds	r24, 0x010D
    2a10:	90 91 0e 01 	lds	r25, 0x010E
    2a14:	a0 91 0f 01 	lds	r26, 0x010F
    2a18:	b0 91 10 01 	lds	r27, 0x0110
    2a1c:	80 3b       	cpi	r24, 0xB0	; 176
    2a1e:	94 40       	sbci	r25, 0x04	; 4
    2a20:	a1 05       	cpc	r26, r1
    2a22:	b1 05       	cpc	r27, r1
    2a24:	39 f4       	brne	.+14     	;  0x2a34
    2a26:	80 91 14 01 	lds	r24, 0x0114
    2a2a:	80 ff       	sbrs	r24, 0
    2a2c:	1c c0       	rjmp	.+56     	;  0x2a66
    2a2e:	02 c0       	rjmp	.+4      	;  0x2a34
    2a30:	80 e0       	ldi	r24, 0x00	; 0
    2a32:	08 95       	ret
    2a34:	88 e1       	ldi	r24, 0x18	; 24
    2a36:	0f b6       	in	r0, 0x3f	; 63
    2a38:	f8 94       	cli
    2a3a:	80 93 60 00 	sts	0x0060, r24
    2a3e:	10 92 60 00 	sts	0x0060, r1
    2a42:	0f be       	out	0x3f, r0	; 63
    2a44:	a8 95       	wdr
    2a46:	ee 3f       	cpi	r30, 0xFE	; 254
    2a48:	8a e0       	ldi	r24, 0x0A	; 10
    2a4a:	f8 07       	cpc	r31, r24
    2a4c:	39 f0       	breq	.+14     	;  0x2a5c
    2a4e:	80 91 fe 0a 	lds	r24, 0x0AFE
    2a52:	90 91 ff 0a 	lds	r25, 0x0AFF
    2a56:	91 83       	std	Z+1, r25	; 0x01
    2a58:	80 83       	st	Z, r24
    2a5a:	1d c0       	rjmp	.+58     	;  0x2a96
    2a5c:	10 92 ff 0a 	sts	0x0AFF, r1
    2a60:	10 92 fe 0a 	sts	0x0AFE, r1
    2a64:	18 c0       	rjmp	.+48     	;  0x2a96
    2a66:	ee 3f       	cpi	r30, 0xFE	; 254
    2a68:	2a e0       	ldi	r18, 0x0A	; 10
    2a6a:	f2 07       	cpc	r31, r18
    2a6c:	31 f0       	breq	.+12     	;  0x2a7a
    2a6e:	80 81       	ld	r24, Z
    2a70:	91 81       	ldd	r25, Z+1	; 0x01
    2a72:	90 93 ff 0a 	sts	0x0AFF, r25
    2a76:	80 93 fe 0a 	sts	0x0AFE, r24
    2a7a:	87 e7       	ldi	r24, 0x77	; 119
    2a7c:	97 e7       	ldi	r25, 0x77	; 119
    2a7e:	91 83       	std	Z+1, r25	; 0x01
    2a80:	80 83       	st	Z, r24
    2a82:	9b e0       	ldi	r25, 0x0B	; 11
    2a84:	88 e1       	ldi	r24, 0x18	; 24
    2a86:	0f b6       	in	r0, 0x3f	; 63
    2a88:	f8 94       	cli
    2a8a:	a8 95       	wdr
    2a8c:	80 93 60 00 	sts	0x0060, r24
    2a90:	0f be       	out	0x3f, r0	; 63
    2a92:	90 93 60 00 	sts	0x0060, r25
    2a96:	81 e0       	ldi	r24, 0x01	; 1
    2a98:	08 95       	ret
    2a9a:	ec eb       	ldi	r30, 0xBC	; 188
    2a9c:	f3 e0       	ldi	r31, 0x03	; 3
    2a9e:	13 82       	std	Z+3, r1	; 0x03
    2aa0:	12 82       	std	Z+2, r1	; 0x02
    2aa2:	88 ee       	ldi	r24, 0xE8	; 232
    2aa4:	93 e0       	ldi	r25, 0x03	; 3
    2aa6:	a0 e0       	ldi	r26, 0x00	; 0
    2aa8:	b0 e0       	ldi	r27, 0x00	; 0
    2aaa:	84 83       	std	Z+4, r24	; 0x04
    2aac:	95 83       	std	Z+5, r25	; 0x05
    2aae:	a6 83       	std	Z+6, r26	; 0x06
    2ab0:	b7 83       	std	Z+7, r27	; 0x07
    2ab2:	81 e8       	ldi	r24, 0x81	; 129
    2ab4:	91 e0       	ldi	r25, 0x01	; 1
    2ab6:	91 83       	std	Z+1, r25	; 0x01
    2ab8:	80 83       	st	Z, r24
    2aba:	8f ef       	ldi	r24, 0xFF	; 255
    2abc:	9f ef       	ldi	r25, 0xFF	; 255
    2abe:	95 87       	std	Z+13, r25	; 0x0d
    2ac0:	84 87       	std	Z+12, r24	; 0x0c
    2ac2:	08 95       	ret
    2ac4:	fc 01       	movw	r30, r24
    2ac6:	91 8d       	ldd	r25, Z+25	; 0x19
    2ac8:	22 8d       	ldd	r18, Z+26	; 0x1a
    2aca:	89 2f       	mov	r24, r25
    2acc:	90 e0       	ldi	r25, 0x00	; 0
    2ace:	80 5c       	subi	r24, 0xC0	; 192
    2ad0:	9f 4f       	sbci	r25, 0xFF	; 255
    2ad2:	82 1b       	sub	r24, r18
    2ad4:	91 09       	sbc	r25, r1
    2ad6:	8f 73       	andi	r24, 0x3F	; 63
    2ad8:	99 27       	eor	r25, r25
    2ada:	08 95       	ret
    2adc:	fc 01       	movw	r30, r24
    2ade:	91 8d       	ldd	r25, Z+25	; 0x19
    2ae0:	82 8d       	ldd	r24, Z+26	; 0x1a
    2ae2:	98 17       	cp	r25, r24
    2ae4:	31 f0       	breq	.+12     	;  0x2af2
    2ae6:	82 8d       	ldd	r24, Z+26	; 0x1a
    2ae8:	e8 0f       	add	r30, r24
    2aea:	f1 1d       	adc	r31, r1
    2aec:	85 8d       	ldd	r24, Z+29	; 0x1d
    2aee:	90 e0       	ldi	r25, 0x00	; 0
    2af0:	08 95       	ret
    2af2:	8f ef       	ldi	r24, 0xFF	; 255
    2af4:	9f ef       	ldi	r25, 0xFF	; 255
    2af6:	08 95       	ret
    2af8:	fc 01       	movw	r30, r24
    2afa:	91 8d       	ldd	r25, Z+25	; 0x19
    2afc:	82 8d       	ldd	r24, Z+26	; 0x1a
    2afe:	98 17       	cp	r25, r24
    2b00:	61 f0       	breq	.+24     	;  0x2b1a
    2b02:	82 8d       	ldd	r24, Z+26	; 0x1a
    2b04:	df 01       	movw	r26, r30
    2b06:	a8 0f       	add	r26, r24
    2b08:	b1 1d       	adc	r27, r1
    2b0a:	5d 96       	adiw	r26, 0x1d	; 29
    2b0c:	8c 91       	ld	r24, X
    2b0e:	92 8d       	ldd	r25, Z+26	; 0x1a
    2b10:	9f 5f       	subi	r25, 0xFF	; 255
    2b12:	9f 73       	andi	r25, 0x3F	; 63
    2b14:	92 8f       	std	Z+26, r25	; 0x1a
    2b16:	90 e0       	ldi	r25, 0x00	; 0
    2b18:	08 95       	ret
    2b1a:	8f ef       	ldi	r24, 0xFF	; 255
    2b1c:	9f ef       	ldi	r25, 0xFF	; 255
    2b1e:	08 95       	ret
    2b20:	80 e8       	ldi	r24, 0x80	; 128
    2b22:	96 e1       	ldi	r25, 0x16	; 22
    2b24:	89 2b       	or	r24, r25
    2b26:	49 f0       	breq	.+18     	;  0x2b3a
    2b28:	80 e0       	ldi	r24, 0x00	; 0
    2b2a:	90 e0       	ldi	r25, 0x00	; 0
    2b2c:	89 2b       	or	r24, r25
    2b2e:	29 f0       	breq	.+10     	;  0x2b3a
    2b30:	0e 94 80 16 	call	0x2d00	;  0x2d00
    2b34:	81 11       	cpse	r24, r1
    2b36:	0c 94 00 00 	jmp	0	;  0x0
    2b3a:	08 95       	ret
    2b3c:	fc 01       	movw	r30, r24
    2b3e:	84 8d       	ldd	r24, Z+28	; 0x1c
    2b40:	df 01       	movw	r26, r30
    2b42:	a8 0f       	add	r26, r24
    2b44:	b1 1d       	adc	r27, r1
    2b46:	a3 5a       	subi	r26, 0xA3	; 163
    2b48:	bf 4f       	sbci	r27, 0xFF	; 255
    2b4a:	2c 91       	ld	r18, X
    2b4c:	84 8d       	ldd	r24, Z+28	; 0x1c
    2b4e:	90 e0       	ldi	r25, 0x00	; 0
    2b50:	01 96       	adiw	r24, 0x01	; 1
    2b52:	8f 73       	andi	r24, 0x3F	; 63
    2b54:	99 27       	eor	r25, r25
    2b56:	84 8f       	std	Z+28, r24	; 0x1c
    2b58:	a6 89       	ldd	r26, Z+22	; 0x16
    2b5a:	b7 89       	ldd	r27, Z+23	; 0x17
    2b5c:	2c 93       	st	X, r18
    2b5e:	a0 89       	ldd	r26, Z+16	; 0x10
    2b60:	b1 89       	ldd	r27, Z+17	; 0x11
    2b62:	8c 91       	ld	r24, X
    2b64:	80 64       	ori	r24, 0x40	; 64
    2b66:	8c 93       	st	X, r24
    2b68:	93 8d       	ldd	r25, Z+27	; 0x1b
    2b6a:	84 8d       	ldd	r24, Z+28	; 0x1c
    2b6c:	98 13       	cpse	r25, r24
    2b6e:	06 c0       	rjmp	.+12     	;  0x2b7c
    2b70:	02 88       	ldd	r0, Z+18	; 0x12
    2b72:	f3 89       	ldd	r31, Z+19	; 0x13
    2b74:	e0 2d       	mov	r30, r0
    2b76:	80 81       	ld	r24, Z
    2b78:	8f 7d       	andi	r24, 0xDF	; 223
    2b7a:	80 83       	st	Z, r24
    2b7c:	08 95       	ret
    2b7e:	cf 93       	push	r28
    2b80:	df 93       	push	r29
    2b82:	ec 01       	movw	r28, r24
    2b84:	88 8d       	ldd	r24, Y+24	; 0x18
    2b86:	88 23       	and	r24, r24
    2b88:	c9 f0       	breq	.+50     	;  0x2bbc
    2b8a:	ea 89       	ldd	r30, Y+18	; 0x12
    2b8c:	fb 89       	ldd	r31, Y+19	; 0x13
    2b8e:	80 81       	ld	r24, Z
    2b90:	85 fd       	sbrc	r24, 5
    2b92:	05 c0       	rjmp	.+10     	;  0x2b9e
    2b94:	a8 89       	ldd	r26, Y+16	; 0x10
    2b96:	b9 89       	ldd	r27, Y+17	; 0x11
    2b98:	8c 91       	ld	r24, X
    2b9a:	86 fd       	sbrc	r24, 6
    2b9c:	0f c0       	rjmp	.+30     	;  0x2bbc
    2b9e:	0f b6       	in	r0, 0x3f	; 63
    2ba0:	07 fc       	sbrc	r0, 7
    2ba2:	f5 cf       	rjmp	.-22     	;  0x2b8e
    2ba4:	80 81       	ld	r24, Z
    2ba6:	85 ff       	sbrs	r24, 5
    2ba8:	f2 cf       	rjmp	.-28     	;  0x2b8e
    2baa:	a8 89       	ldd	r26, Y+16	; 0x10
    2bac:	b9 89       	ldd	r27, Y+17	; 0x11
    2bae:	8c 91       	ld	r24, X
    2bb0:	85 ff       	sbrs	r24, 5
    2bb2:	ed cf       	rjmp	.-38     	;  0x2b8e
    2bb4:	ce 01       	movw	r24, r28
    2bb6:	0e 94 9e 15 	call	0x2b3c	;  0x2b3c
    2bba:	e7 cf       	rjmp	.-50     	;  0x2b8a
    2bbc:	df 91       	pop	r29
    2bbe:	cf 91       	pop	r28
    2bc0:	08 95       	ret
    2bc2:	ef 92       	push	r14
    2bc4:	ff 92       	push	r15
    2bc6:	0f 93       	push	r16
    2bc8:	1f 93       	push	r17
    2bca:	cf 93       	push	r28
    2bcc:	df 93       	push	r29
    2bce:	ec 01       	movw	r28, r24
    2bd0:	81 e0       	ldi	r24, 0x01	; 1
    2bd2:	88 8f       	std	Y+24, r24	; 0x18
    2bd4:	9b 8d       	ldd	r25, Y+27	; 0x1b
    2bd6:	8c 8d       	ldd	r24, Y+28	; 0x1c
    2bd8:	98 13       	cpse	r25, r24
    2bda:	05 c0       	rjmp	.+10     	;  0x2be6
    2bdc:	e8 89       	ldd	r30, Y+16	; 0x10
    2bde:	f9 89       	ldd	r31, Y+17	; 0x11
    2be0:	80 81       	ld	r24, Z
    2be2:	85 fd       	sbrc	r24, 5
    2be4:	24 c0       	rjmp	.+72     	;  0x2c2e
    2be6:	f6 2e       	mov	r15, r22
    2be8:	0b 8d       	ldd	r16, Y+27	; 0x1b
    2bea:	10 e0       	ldi	r17, 0x00	; 0
    2bec:	0f 5f       	subi	r16, 0xFF	; 255
    2bee:	1f 4f       	sbci	r17, 0xFF	; 255
    2bf0:	0f 73       	andi	r16, 0x3F	; 63
    2bf2:	11 27       	eor	r17, r17
    2bf4:	e0 2e       	mov	r14, r16
    2bf6:	8c 8d       	ldd	r24, Y+28	; 0x1c
    2bf8:	e8 12       	cpse	r14, r24
    2bfa:	0c c0       	rjmp	.+24     	;  0x2c14
    2bfc:	0f b6       	in	r0, 0x3f	; 63
    2bfe:	07 fc       	sbrc	r0, 7
    2c00:	fa cf       	rjmp	.-12     	;  0x2bf6
    2c02:	e8 89       	ldd	r30, Y+16	; 0x10
    2c04:	f9 89       	ldd	r31, Y+17	; 0x11
    2c06:	80 81       	ld	r24, Z
    2c08:	85 ff       	sbrs	r24, 5
    2c0a:	f5 cf       	rjmp	.-22     	;  0x2bf6
    2c0c:	ce 01       	movw	r24, r28
    2c0e:	0e 94 9e 15 	call	0x2b3c	;  0x2b3c
    2c12:	f1 cf       	rjmp	.-30     	;  0x2bf6
    2c14:	8b 8d       	ldd	r24, Y+27	; 0x1b
    2c16:	fe 01       	movw	r30, r28
    2c18:	e8 0f       	add	r30, r24
    2c1a:	f1 1d       	adc	r31, r1
    2c1c:	e3 5a       	subi	r30, 0xA3	; 163
    2c1e:	ff 4f       	sbci	r31, 0xFF	; 255
    2c20:	f0 82       	st	Z, r15
    2c22:	0b 8f       	std	Y+27, r16	; 0x1b
    2c24:	ea 89       	ldd	r30, Y+18	; 0x12
    2c26:	fb 89       	ldd	r31, Y+19	; 0x13
    2c28:	80 81       	ld	r24, Z
    2c2a:	80 62       	ori	r24, 0x20	; 32
    2c2c:	07 c0       	rjmp	.+14     	;  0x2c3c
    2c2e:	ee 89       	ldd	r30, Y+22	; 0x16
    2c30:	ff 89       	ldd	r31, Y+23	; 0x17
    2c32:	60 83       	st	Z, r22
    2c34:	e8 89       	ldd	r30, Y+16	; 0x10
    2c36:	f9 89       	ldd	r31, Y+17	; 0x11
    2c38:	80 81       	ld	r24, Z
    2c3a:	80 64       	ori	r24, 0x40	; 64
    2c3c:	80 83       	st	Z, r24
    2c3e:	81 e0       	ldi	r24, 0x01	; 1
    2c40:	90 e0       	ldi	r25, 0x00	; 0
    2c42:	df 91       	pop	r29
    2c44:	cf 91       	pop	r28
    2c46:	1f 91       	pop	r17
    2c48:	0f 91       	pop	r16
    2c4a:	ff 90       	pop	r15
    2c4c:	ef 90       	pop	r14
    2c4e:	08 95       	ret
    2c50:	1f 92       	push	r1
    2c52:	0f 92       	push	r0
    2c54:	0f b6       	in	r0, 0x3f	; 63
    2c56:	0f 92       	push	r0
    2c58:	11 24       	eor	r1, r1
    2c5a:	2f 93       	push	r18
    2c5c:	8f 93       	push	r24
    2c5e:	9f 93       	push	r25
    2c60:	ef 93       	push	r30
    2c62:	ff 93       	push	r31
    2c64:	e0 91 1d 04 	lds	r30, 0x041D
    2c68:	f0 91 1e 04 	lds	r31, 0x041E
    2c6c:	80 81       	ld	r24, Z
    2c6e:	e0 91 23 04 	lds	r30, 0x0423
    2c72:	f0 91 24 04 	lds	r31, 0x0424
    2c76:	82 fd       	sbrc	r24, 2
    2c78:	12 c0       	rjmp	.+36     	;  0x2c9e
    2c7a:	90 81       	ld	r25, Z
    2c7c:	80 91 26 04 	lds	r24, 0x0426
    2c80:	8f 5f       	subi	r24, 0xFF	; 255
    2c82:	8f 73       	andi	r24, 0x3F	; 63
    2c84:	20 91 27 04 	lds	r18, 0x0427
    2c88:	82 17       	cp	r24, r18
    2c8a:	51 f0       	breq	.+20     	;  0x2ca0
    2c8c:	e0 91 26 04 	lds	r30, 0x0426
    2c90:	f0 e0       	ldi	r31, 0x00	; 0
    2c92:	e3 5f       	subi	r30, 0xF3	; 243
    2c94:	fb 4f       	sbci	r31, 0xFB	; 251
    2c96:	95 8f       	std	Z+29, r25	; 0x1d
    2c98:	80 93 26 04 	sts	0x0426, r24
    2c9c:	01 c0       	rjmp	.+2      	;  0x2ca0
    2c9e:	80 81       	ld	r24, Z
    2ca0:	ff 91       	pop	r31
    2ca2:	ef 91       	pop	r30
    2ca4:	9f 91       	pop	r25
    2ca6:	8f 91       	pop	r24
    2ca8:	2f 91       	pop	r18
    2caa:	0f 90       	pop	r0
    2cac:	0f be       	out	0x3f, r0	; 63
    2cae:	0f 90       	pop	r0
    2cb0:	1f 90       	pop	r1
    2cb2:	18 95       	reti
    2cb4:	1f 92       	push	r1
    2cb6:	0f 92       	push	r0
    2cb8:	0f b6       	in	r0, 0x3f	; 63
    2cba:	0f 92       	push	r0
    2cbc:	11 24       	eor	r1, r1
    2cbe:	2f 93       	push	r18
    2cc0:	3f 93       	push	r19
    2cc2:	4f 93       	push	r20
    2cc4:	5f 93       	push	r21
    2cc6:	6f 93       	push	r22
    2cc8:	7f 93       	push	r23
    2cca:	8f 93       	push	r24
    2ccc:	9f 93       	push	r25
    2cce:	af 93       	push	r26
    2cd0:	bf 93       	push	r27
    2cd2:	ef 93       	push	r30
    2cd4:	ff 93       	push	r31
    2cd6:	8d e0       	ldi	r24, 0x0D	; 13
    2cd8:	94 e0       	ldi	r25, 0x04	; 4
    2cda:	0e 94 9e 15 	call	0x2b3c	;  0x2b3c
    2cde:	ff 91       	pop	r31
    2ce0:	ef 91       	pop	r30
    2ce2:	bf 91       	pop	r27
    2ce4:	af 91       	pop	r26
    2ce6:	9f 91       	pop	r25
    2ce8:	8f 91       	pop	r24
    2cea:	7f 91       	pop	r23
    2cec:	6f 91       	pop	r22
    2cee:	5f 91       	pop	r21
    2cf0:	4f 91       	pop	r20
    2cf2:	3f 91       	pop	r19
    2cf4:	2f 91       	pop	r18
    2cf6:	0f 90       	pop	r0
    2cf8:	0f be       	out	0x3f, r0	; 63
    2cfa:	0f 90       	pop	r0
    2cfc:	1f 90       	pop	r1
    2cfe:	18 95       	reti
    2d00:	8d e0       	ldi	r24, 0x0D	; 13
    2d02:	94 e0       	ldi	r25, 0x04	; 4
    2d04:	0e 94 62 15 	call	0x2ac4	;  0x2ac4
    2d08:	21 e0       	ldi	r18, 0x01	; 1
    2d0a:	89 2b       	or	r24, r25
    2d0c:	09 f4       	brne	.+2      	;  0x2d10
    2d0e:	20 e0       	ldi	r18, 0x00	; 0
    2d10:	82 2f       	mov	r24, r18
    2d12:	08 95       	ret
    2d14:	ed e0       	ldi	r30, 0x0D	; 13
    2d16:	f4 e0       	ldi	r31, 0x04	; 4
    2d18:	13 82       	std	Z+3, r1	; 0x03
    2d1a:	12 82       	std	Z+2, r1	; 0x02
    2d1c:	88 ee       	ldi	r24, 0xE8	; 232
    2d1e:	93 e0       	ldi	r25, 0x03	; 3
    2d20:	a0 e0       	ldi	r26, 0x00	; 0
    2d22:	b0 e0       	ldi	r27, 0x00	; 0
    2d24:	84 83       	std	Z+4, r24	; 0x04
    2d26:	95 83       	std	Z+5, r25	; 0x05
    2d28:	a6 83       	std	Z+6, r26	; 0x06
    2d2a:	b7 83       	std	Z+7, r27	; 0x07
    2d2c:	81 e9       	ldi	r24, 0x91	; 145
    2d2e:	91 e0       	ldi	r25, 0x01	; 1
    2d30:	91 83       	std	Z+1, r25	; 0x01
    2d32:	80 83       	st	Z, r24
    2d34:	8d ec       	ldi	r24, 0xCD	; 205
    2d36:	90 e0       	ldi	r25, 0x00	; 0
    2d38:	95 87       	std	Z+13, r25	; 0x0d
    2d3a:	84 87       	std	Z+12, r24	; 0x0c
    2d3c:	8c ec       	ldi	r24, 0xCC	; 204
    2d3e:	90 e0       	ldi	r25, 0x00	; 0
    2d40:	97 87       	std	Z+15, r25	; 0x0f
    2d42:	86 87       	std	Z+14, r24	; 0x0e
    2d44:	88 ec       	ldi	r24, 0xC8	; 200
    2d46:	90 e0       	ldi	r25, 0x00	; 0
    2d48:	91 8b       	std	Z+17, r25	; 0x11
    2d4a:	80 8b       	std	Z+16, r24	; 0x10
    2d4c:	89 ec       	ldi	r24, 0xC9	; 201
    2d4e:	90 e0       	ldi	r25, 0x00	; 0
    2d50:	93 8b       	std	Z+19, r25	; 0x13
    2d52:	82 8b       	std	Z+18, r24	; 0x12
    2d54:	8a ec       	ldi	r24, 0xCA	; 202
    2d56:	90 e0       	ldi	r25, 0x00	; 0
    2d58:	95 8b       	std	Z+21, r25	; 0x15
    2d5a:	84 8b       	std	Z+20, r24	; 0x14
    2d5c:	8e ec       	ldi	r24, 0xCE	; 206
    2d5e:	90 e0       	ldi	r25, 0x00	; 0
    2d60:	97 8b       	std	Z+23, r25	; 0x17
    2d62:	86 8b       	std	Z+22, r24	; 0x16
    2d64:	11 8e       	std	Z+25, r1	; 0x19
    2d66:	12 8e       	std	Z+26, r1	; 0x1a
    2d68:	13 8e       	std	Z+27, r1	; 0x1b
    2d6a:	14 8e       	std	Z+28, r1	; 0x1c
    2d6c:	08 95       	ret
    2d6e:	dc 01       	movw	r26, r24
    2d70:	fb 01       	movw	r30, r22
    2d72:	88 e4       	ldi	r24, 0x48	; 72
    2d74:	80 83       	st	Z, r24
    2d76:	89 e4       	ldi	r24, 0x49	; 73
    2d78:	81 83       	std	Z+1, r24	; 0x01
    2d7a:	84 e4       	ldi	r24, 0x44	; 68
    2d7c:	82 83       	std	Z+2, r24	; 0x02
    2d7e:	1d 96       	adiw	r26, 0x0d	; 13
    2d80:	9c 91       	ld	r25, X
    2d82:	1d 97       	sbiw	r26, 0x0d	; 13
    2d84:	9f 70       	andi	r25, 0x0F	; 15
    2d86:	9f 5b       	subi	r25, 0xBF	; 191
    2d88:	93 83       	std	Z+3, r25	; 0x03
    2d8a:	1d 96       	adiw	r26, 0x0d	; 13
    2d8c:	8d 91       	ld	r24, X+
    2d8e:	9c 91       	ld	r25, X
    2d90:	1e 97       	sbiw	r26, 0x0e	; 14
    2d92:	24 e0       	ldi	r18, 0x04	; 4
    2d94:	96 95       	lsr	r25
    2d96:	87 95       	ror	r24
    2d98:	2a 95       	dec	r18
    2d9a:	e1 f7       	brne	.-8      	;  0x2d94
    2d9c:	8f 70       	andi	r24, 0x0F	; 15
    2d9e:	8f 5b       	subi	r24, 0xBF	; 191
    2da0:	84 83       	std	Z+4, r24	; 0x04
    2da2:	85 e0       	ldi	r24, 0x05	; 5
    2da4:	08 95       	ret
    2da6:	cf 93       	push	r28
    2da8:	df 93       	push	r29
    2daa:	cd b7       	in	r28, 0x3d	; 61
    2dac:	de b7       	in	r29, 0x3e	; 62
    2dae:	69 97       	sbiw	r28, 0x19	; 25
    2db0:	0f b6       	in	r0, 0x3f	; 63
    2db2:	f8 94       	cli
    2db4:	de bf       	out	0x3e, r29	; 62
    2db6:	0f be       	out	0x3f, r0	; 63
    2db8:	cd bf       	out	0x3d, r28	; 61
    2dba:	fc 01       	movw	r30, r24
    2dbc:	db 01       	movw	r26, r22
    2dbe:	8c 91       	ld	r24, X
    2dc0:	8f 5f       	subi	r24, 0xFF	; 255
    2dc2:	8c 93       	st	X, r24
    2dc4:	be 01       	movw	r22, r28
    2dc6:	6f 5f       	subi	r22, 0xFF	; 255
    2dc8:	7f 4f       	sbci	r23, 0xFF	; 255
    2dca:	89 e1       	ldi	r24, 0x19	; 25
    2dcc:	db 01       	movw	r26, r22
    2dce:	1d 92       	st	X+, r1
    2dd0:	8a 95       	dec	r24
    2dd2:	e9 f7       	brne	.-6      	;  0x2dce
    2dd4:	29 e0       	ldi	r18, 0x09	; 9
    2dd6:	29 83       	std	Y+1, r18	; 0x01
    2dd8:	84 e0       	ldi	r24, 0x04	; 4
    2dda:	8a 83       	std	Y+2, r24	; 0x02
    2ddc:	91 e0       	ldi	r25, 0x01	; 1
    2dde:	9d 83       	std	Y+5, r25	; 0x05
    2de0:	83 e0       	ldi	r24, 0x03	; 3
    2de2:	8e 83       	std	Y+6, r24	; 0x06
    2de4:	2a 87       	std	Y+10, r18	; 0x0a
    2de6:	21 e2       	ldi	r18, 0x21	; 33
    2de8:	2b 87       	std	Y+11, r18	; 0x0b
    2dea:	9c 87       	std	Y+12, r25	; 0x0c
    2dec:	9d 87       	std	Y+13, r25	; 0x0d
    2dee:	9f 87       	std	Y+15, r25	; 0x0f
    2df0:	22 e2       	ldi	r18, 0x22	; 34
    2df2:	28 8b       	std	Y+16, r18	; 0x10
    2df4:	27 e0       	ldi	r18, 0x07	; 7
    2df6:	2b 8b       	std	Y+19, r18	; 0x13
    2df8:	25 e0       	ldi	r18, 0x05	; 5
    2dfa:	2c 8b       	std	Y+20, r18	; 0x14
    2dfc:	8e 8b       	std	Y+22, r24	; 0x16
    2dfe:	20 e4       	ldi	r18, 0x40	; 64
    2e00:	30 e0       	ldi	r19, 0x00	; 0
    2e02:	38 8f       	std	Y+24, r19	; 0x18
    2e04:	2f 8b       	std	Y+23, r18	; 0x17
    2e06:	99 8f       	std	Y+25, r25	; 0x19
    2e08:	82 81       	ldd	r24, Z+2	; 0x02
    2e0a:	8b 83       	std	Y+3, r24	; 0x03
    2e0c:	95 85       	ldd	r25, Z+13	; 0x0d
    2e0e:	86 85       	ldd	r24, Z+14	; 0x0e
    2e10:	99 8b       	std	Y+17, r25	; 0x11
    2e12:	8a 8b       	std	Y+18, r24	; 0x12
    2e14:	83 81       	ldd	r24, Z+3	; 0x03
    2e16:	80 68       	ori	r24, 0x80	; 128
    2e18:	8d 8b       	std	Y+21, r24	; 0x15
    2e1a:	49 e1       	ldi	r20, 0x19	; 25
    2e1c:	50 e0       	ldi	r21, 0x00	; 0
    2e1e:	80 e0       	ldi	r24, 0x00	; 0
    2e20:	0e 94 6d 1b 	call	0x36da	;  0x36da
    2e24:	69 96       	adiw	r28, 0x19	; 25
    2e26:	0f b6       	in	r0, 0x3f	; 63
    2e28:	f8 94       	cli
    2e2a:	de bf       	out	0x3e, r29	; 62
    2e2c:	0f be       	out	0x3f, r0	; 63
    2e2e:	cd bf       	out	0x3d, r28	; 61
    2e30:	df 91       	pop	r29
    2e32:	cf 91       	pop	r28
    2e34:	08 95       	ret
    2e36:	dc 01       	movw	r26, r24
    2e38:	fb 01       	movw	r30, r22
    2e3a:	12 96       	adiw	r26, 0x02	; 2
    2e3c:	8c 91       	ld	r24, X
    2e3e:	12 97       	sbiw	r26, 0x02	; 2
    2e40:	90 e0       	ldi	r25, 0x00	; 0
    2e42:	24 81       	ldd	r18, Z+4	; 0x04
    2e44:	35 81       	ldd	r19, Z+5	; 0x05
    2e46:	82 17       	cp	r24, r18
    2e48:	93 07       	cpc	r25, r19
    2e4a:	d1 f4       	brne	.+52     	;  0x2e80
    2e4c:	91 81       	ldd	r25, Z+1	; 0x01
    2e4e:	80 81       	ld	r24, Z
    2e50:	81 3a       	cpi	r24, 0xA1	; 161
    2e52:	31 f4       	brne	.+12     	;  0x2e60
    2e54:	81 e0       	ldi	r24, 0x01	; 1
    2e56:	91 30       	cpi	r25, 0x01	; 1
    2e58:	91 f0       	breq	.+36     	;  0x2e7e
    2e5a:	93 30       	cpi	r25, 0x03	; 3
    2e5c:	89 f4       	brne	.+34     	;  0x2e80
    2e5e:	11 c0       	rjmp	.+34     	;  0x2e82
    2e60:	81 32       	cpi	r24, 0x21	; 33
    2e62:	71 f4       	brne	.+28     	;  0x2e80
    2e64:	9b 30       	cpi	r25, 0x0B	; 11
    2e66:	21 f4       	brne	.+8      	;  0x2e70
    2e68:	82 81       	ldd	r24, Z+2	; 0x02
    2e6a:	1f 96       	adiw	r26, 0x0f	; 15
    2e6c:	8c 93       	st	X, r24
    2e6e:	05 c0       	rjmp	.+10     	;  0x2e7a
    2e70:	9a 30       	cpi	r25, 0x0A	; 10
    2e72:	31 f4       	brne	.+12     	;  0x2e80
    2e74:	82 81       	ldd	r24, Z+2	; 0x02
    2e76:	50 96       	adiw	r26, 0x10	; 16
    2e78:	8c 93       	st	X, r24
    2e7a:	81 e0       	ldi	r24, 0x01	; 1
    2e7c:	08 95       	ret
    2e7e:	08 95       	ret
    2e80:	80 e0       	ldi	r24, 0x00	; 0
    2e82:	08 95       	ret
    2e84:	ef 92       	push	r14
    2e86:	ff 92       	push	r15
    2e88:	0f 93       	push	r16
    2e8a:	1f 93       	push	r17
    2e8c:	cf 93       	push	r28
    2e8e:	df 93       	push	r29
    2e90:	fb 01       	movw	r30, r22
    2e92:	20 81       	ld	r18, Z
    2e94:	21 38       	cpi	r18, 0x81	; 129
    2e96:	51 f5       	brne	.+84     	;  0x2eec
    2e98:	23 81       	ldd	r18, Z+3	; 0x03
    2e9a:	22 32       	cpi	r18, 0x22	; 34
    2e9c:	39 f5       	brne	.+78     	;  0x2eec
    2e9e:	dc 01       	movw	r26, r24
    2ea0:	12 96       	adiw	r26, 0x02	; 2
    2ea2:	2c 91       	ld	r18, X
    2ea4:	30 e0       	ldi	r19, 0x00	; 0
    2ea6:	44 81       	ldd	r20, Z+4	; 0x04
    2ea8:	55 81       	ldd	r21, Z+5	; 0x05
    2eaa:	42 17       	cp	r20, r18
    2eac:	53 07       	cpc	r21, r19
    2eae:	f1 f4       	brne	.+60     	;  0x2eec
    2eb0:	ec 01       	movw	r28, r24
    2eb2:	0b 85       	ldd	r16, Y+11	; 0x0b
    2eb4:	1c 85       	ldd	r17, Y+12	; 0x0c
    2eb6:	e1 2c       	mov	r14, r1
    2eb8:	f1 2c       	mov	r15, r1
    2eba:	01 15       	cp	r16, r1
    2ebc:	11 05       	cpc	r17, r1
    2ebe:	91 f0       	breq	.+36     	;  0x2ee4
    2ec0:	f8 01       	movw	r30, r16
    2ec2:	44 81       	ldd	r20, Z+4	; 0x04
    2ec4:	55 81       	ldd	r21, Z+5	; 0x05
    2ec6:	62 81       	ldd	r22, Z+2	; 0x02
    2ec8:	73 81       	ldd	r23, Z+3	; 0x03
    2eca:	80 e8       	ldi	r24, 0x80	; 128
    2ecc:	0e 94 6d 1b 	call	0x36da	;  0x36da
    2ed0:	8f 3f       	cpi	r24, 0xFF	; 255
    2ed2:	ff ef       	ldi	r31, 0xFF	; 255
    2ed4:	9f 07       	cpc	r25, r31
    2ed6:	69 f0       	breq	.+26     	;  0x2ef2
    2ed8:	e8 0e       	add	r14, r24
    2eda:	f9 1e       	adc	r15, r25
    2edc:	d8 01       	movw	r26, r16
    2ede:	0d 91       	ld	r16, X+
    2ee0:	1c 91       	ld	r17, X
    2ee2:	eb cf       	rjmp	.-42     	;  0x2eba
    2ee4:	81 e0       	ldi	r24, 0x01	; 1
    2ee6:	8f 87       	std	Y+15, r24	; 0x0f
    2ee8:	c7 01       	movw	r24, r14
    2eea:	05 c0       	rjmp	.+10     	;  0x2ef6
    2eec:	80 e0       	ldi	r24, 0x00	; 0
    2eee:	90 e0       	ldi	r25, 0x00	; 0
    2ef0:	02 c0       	rjmp	.+4      	;  0x2ef6
    2ef2:	8f ef       	ldi	r24, 0xFF	; 255
    2ef4:	9f ef       	ldi	r25, 0xFF	; 255
    2ef6:	df 91       	pop	r29
    2ef8:	cf 91       	pop	r28
    2efa:	1f 91       	pop	r17
    2efc:	0f 91       	pop	r16
    2efe:	ff 90       	pop	r15
    2f00:	ef 90       	pop	r14
    2f02:	08 95       	ret
    2f04:	fc 01       	movw	r30, r24
    2f06:	a3 85       	ldd	r26, Z+11	; 0x0b
    2f08:	b4 85       	ldd	r27, Z+12	; 0x0c
    2f0a:	10 97       	sbiw	r26, 0x00	; 0
    2f0c:	19 f4       	brne	.+6      	;  0x2f14
    2f0e:	74 87       	std	Z+12, r23	; 0x0c
    2f10:	63 87       	std	Z+11, r22	; 0x0b
    2f12:	09 c0       	rjmp	.+18     	;  0x2f26
    2f14:	8d 91       	ld	r24, X+
    2f16:	9c 91       	ld	r25, X
    2f18:	11 97       	sbiw	r26, 0x01	; 1
    2f1a:	00 97       	sbiw	r24, 0x00	; 0
    2f1c:	11 f0       	breq	.+4      	;  0x2f22
    2f1e:	dc 01       	movw	r26, r24
    2f20:	f9 cf       	rjmp	.-14     	;  0x2f14
    2f22:	6d 93       	st	X+, r22
    2f24:	7c 93       	st	X, r23
    2f26:	25 85       	ldd	r18, Z+13	; 0x0d
    2f28:	36 85       	ldd	r19, Z+14	; 0x0e
    2f2a:	db 01       	movw	r26, r22
    2f2c:	14 96       	adiw	r26, 0x04	; 4
    2f2e:	8d 91       	ld	r24, X+
    2f30:	9c 91       	ld	r25, X
    2f32:	15 97       	sbiw	r26, 0x05	; 5
    2f34:	82 0f       	add	r24, r18
    2f36:	93 1f       	adc	r25, r19
    2f38:	96 87       	std	Z+14, r25	; 0x0e
    2f3a:	85 87       	std	Z+13, r24	; 0x0d
    2f3c:	08 95       	ret
    2f3e:	af 92       	push	r10
    2f40:	bf 92       	push	r11
    2f42:	cf 92       	push	r12
    2f44:	df 92       	push	r13
    2f46:	ef 92       	push	r14
    2f48:	ff 92       	push	r15
    2f4a:	0f 93       	push	r16
    2f4c:	1f 93       	push	r17
    2f4e:	cf 93       	push	r28
    2f50:	df 93       	push	r29
    2f52:	1f 92       	push	r1
    2f54:	cd b7       	in	r28, 0x3d	; 61
    2f56:	de b7       	in	r29, 0x3e	; 62
    2f58:	7c 01       	movw	r14, r24
    2f5a:	69 83       	std	Y+1, r22	; 0x01
    2f5c:	6a 01       	movw	r12, r20
    2f5e:	59 01       	movw	r10, r18
    2f60:	41 e0       	ldi	r20, 0x01	; 1
    2f62:	50 e0       	ldi	r21, 0x00	; 0
    2f64:	be 01       	movw	r22, r28
    2f66:	6f 5f       	subi	r22, 0xFF	; 255
    2f68:	7f 4f       	sbci	r23, 0xFF	; 255
    2f6a:	fc 01       	movw	r30, r24
    2f6c:	83 81       	ldd	r24, Z+3	; 0x03
    2f6e:	0e 94 d5 1a 	call	0x35aa	;  0x35aa
    2f72:	8c 01       	movw	r16, r24
    2f74:	97 fd       	sbrc	r25, 7
    2f76:	0b c0       	rjmp	.+22     	;  0x2f8e
    2f78:	f7 01       	movw	r30, r14
    2f7a:	83 81       	ldd	r24, Z+3	; 0x03
    2f7c:	a5 01       	movw	r20, r10
    2f7e:	b6 01       	movw	r22, r12
    2f80:	80 64       	ori	r24, 0x40	; 64
    2f82:	0e 94 d5 1a 	call	0x35aa	;  0x35aa
    2f86:	97 fd       	sbrc	r25, 7
    2f88:	02 c0       	rjmp	.+4      	;  0x2f8e
    2f8a:	80 0f       	add	r24, r16
    2f8c:	91 1f       	adc	r25, r17
    2f8e:	0f 90       	pop	r0
    2f90:	df 91       	pop	r29
    2f92:	cf 91       	pop	r28
    2f94:	1f 91       	pop	r17
    2f96:	0f 91       	pop	r16
    2f98:	ff 90       	pop	r15
    2f9a:	ef 90       	pop	r14
    2f9c:	df 90       	pop	r13
    2f9e:	cf 90       	pop	r12
    2fa0:	bf 90       	pop	r11
    2fa2:	af 90       	pop	r10
    2fa4:	08 95       	ret
    2fa6:	cf 93       	push	r28
    2fa8:	df 93       	push	r29
    2faa:	ec 01       	movw	r28, r24
    2fac:	81 e0       	ldi	r24, 0x01	; 1
    2fae:	8c 83       	std	Y+4, r24	; 0x04
    2fb0:	8d 83       	std	Y+5, r24	; 0x05
    2fb2:	9e 01       	movw	r18, r28
    2fb4:	26 5f       	subi	r18, 0xF6	; 246
    2fb6:	3f 4f       	sbci	r19, 0xFF	; 255
    2fb8:	3f 83       	std	Y+7, r19	; 0x07
    2fba:	2e 83       	std	Y+6, r18	; 0x06
    2fbc:	19 86       	std	Y+9, r1	; 0x09
    2fbe:	18 86       	std	Y+8, r1	; 0x08
    2fc0:	21 ea       	ldi	r18, 0xA1	; 161
    2fc2:	31 e0       	ldi	r19, 0x01	; 1
    2fc4:	39 83       	std	Y+1, r19	; 0x01
    2fc6:	28 83       	st	Y, r18
    2fc8:	1c 86       	std	Y+12, r1	; 0x0c
    2fca:	1b 86       	std	Y+11, r1	; 0x0b
    2fcc:	1e 86       	std	Y+14, r1	; 0x0e
    2fce:	1d 86       	std	Y+13, r1	; 0x0d
    2fd0:	8f 87       	std	Y+15, r24	; 0x0f
    2fd2:	88 8b       	std	Y+16, r24	; 0x10
    2fd4:	81 ec       	ldi	r24, 0xC1	; 193
    2fd6:	8a 87       	std	Y+10, r24	; 0x0a
    2fd8:	0e 94 3d 1d 	call	0x3a7a	;  0x3a7a
    2fdc:	be 01       	movw	r22, r28
    2fde:	df 91       	pop	r29
    2fe0:	cf 91       	pop	r28
    2fe2:	0c 94 f6 1c 	jmp	0x39ec	;  0x39ec
    2fe6:	80 91 bb 04 	lds	r24, 0x04BB
    2fea:	81 11       	cpse	r24, r1
    2fec:	07 c0       	rjmp	.+14     	;  0x2ffc
    2fee:	8a ea       	ldi	r24, 0xAA	; 170
    2ff0:	94 e0       	ldi	r25, 0x04	; 4
    2ff2:	0e 94 d3 17 	call	0x2fa6	;  0x2fa6
    2ff6:	81 e0       	ldi	r24, 0x01	; 1
    2ff8:	80 93 bb 04 	sts	0x04BB, r24
    2ffc:	8a ea       	ldi	r24, 0xAA	; 170
    2ffe:	94 e0       	ldi	r25, 0x04	; 4
    3000:	08 95       	ret
    3002:	8f 92       	push	r8
    3004:	9f 92       	push	r9
    3006:	af 92       	push	r10
    3008:	bf 92       	push	r11
    300a:	cf 92       	push	r12
    300c:	df 92       	push	r13
    300e:	ef 92       	push	r14
    3010:	ff 92       	push	r15
    3012:	0f 93       	push	r16
    3014:	1f 93       	push	r17
    3016:	cf 93       	push	r28
    3018:	df 93       	push	r29
    301a:	7c 01       	movw	r14, r24
    301c:	8b 01       	movw	r16, r22
    301e:	6c 01       	movw	r12, r24
    3020:	82 e0       	ldi	r24, 0x02	; 2
    3022:	c8 0e       	add	r12, r24
    3024:	d1 1c       	adc	r13, r1
    3026:	47 01       	movw	r8, r14
    3028:	e5 e0       	ldi	r30, 0x05	; 5
    302a:	8e 0e       	add	r8, r30
    302c:	91 1c       	adc	r9, r1
    302e:	c0 e0       	ldi	r28, 0x00	; 0
    3030:	d0 e0       	ldi	r29, 0x00	; 0
    3032:	f6 01       	movw	r30, r12
    3034:	61 91       	ld	r22, Z+
    3036:	6f 01       	movw	r12, r30
    3038:	4a e0       	ldi	r20, 0x0A	; 10
    303a:	50 e0       	ldi	r21, 0x00	; 0
    303c:	c8 01       	movw	r24, r16
    303e:	0e 94 9e 19 	call	0x333c	;  0x333c
    3042:	5c 01       	movw	r10, r24
    3044:	6e e2       	ldi	r22, 0x2E	; 46
    3046:	c8 01       	movw	r24, r16
    3048:	0e 94 d9 18 	call	0x31b2	;  0x31b2
    304c:	8a 0d       	add	r24, r10
    304e:	9b 1d       	adc	r25, r11
    3050:	c8 0f       	add	r28, r24
    3052:	d9 1f       	adc	r29, r25
    3054:	c8 14       	cp	r12, r8
    3056:	d9 04       	cpc	r13, r9
    3058:	61 f7       	brne	.-40     	;  0x3032
    305a:	4a e0       	ldi	r20, 0x0A	; 10
    305c:	50 e0       	ldi	r21, 0x00	; 0
    305e:	f7 01       	movw	r30, r14
    3060:	65 81       	ldd	r22, Z+5	; 0x05
    3062:	c8 01       	movw	r24, r16
    3064:	0e 94 9e 19 	call	0x333c	;  0x333c
    3068:	8c 0f       	add	r24, r28
    306a:	9d 1f       	adc	r25, r29
    306c:	df 91       	pop	r29
    306e:	cf 91       	pop	r28
    3070:	1f 91       	pop	r17
    3072:	0f 91       	pop	r16
    3074:	ff 90       	pop	r15
    3076:	ef 90       	pop	r14
    3078:	df 90       	pop	r13
    307a:	cf 90       	pop	r12
    307c:	bf 90       	pop	r11
    307e:	af 90       	pop	r10
    3080:	9f 90       	pop	r9
    3082:	8f 90       	pop	r8
    3084:	08 95       	ret
    3086:	e3 ec       	ldi	r30, 0xC3	; 195
    3088:	f4 e0       	ldi	r31, 0x04	; 4
    308a:	8d ea       	ldi	r24, 0xAD	; 173
    308c:	91 e0       	ldi	r25, 0x01	; 1
    308e:	91 83       	std	Z+1, r25	; 0x01
    3090:	80 83       	st	Z, r24
    3092:	12 82       	std	Z+2, r1	; 0x02
    3094:	13 82       	std	Z+3, r1	; 0x03
    3096:	14 82       	std	Z+4, r1	; 0x04
    3098:	15 82       	std	Z+5, r1	; 0x05
    309a:	08 95       	ret
    309c:	08 95       	ret
    309e:	0e 94 48 20 	call	0x4090	;  0x4090
    30a2:	0e 94 4e 18 	call	0x309c	;  0x309c
    30a6:	85 ed       	ldi	r24, 0xD5	; 213
    30a8:	94 e0       	ldi	r25, 0x04	; 4
    30aa:	0e 94 54 1c 	call	0x38a8	;  0x38a8
    30ae:	0e 94 f4 2a 	call	0x55e8	;  0x55e8
    30b2:	c0 e9       	ldi	r28, 0x90	; 144
    30b4:	d5 e1       	ldi	r29, 0x15	; 21
    30b6:	0e 94 ac 2e 	call	0x5d58	;  0x5d58
    30ba:	20 97       	sbiw	r28, 0x00	; 0
    30bc:	e1 f3       	breq	.-8      	;  0x30b6
    30be:	0e 94 90 15 	call	0x2b20	;  0x2b20
    30c2:	f9 cf       	rjmp	.-14     	;  0x30b6
    30c4:	08 95       	ret
    30c6:	0e 94 01 33 	call	0x6602	;  0x6602
    30ca:	cf 92       	push	r12
    30cc:	df 92       	push	r13
    30ce:	ef 92       	push	r14
    30d0:	ff 92       	push	r15
    30d2:	0f 93       	push	r16
    30d4:	1f 93       	push	r17
    30d6:	cf 93       	push	r28
    30d8:	df 93       	push	r29
    30da:	6c 01       	movw	r12, r24
    30dc:	7a 01       	movw	r14, r20
    30de:	8b 01       	movw	r16, r22
    30e0:	c0 e0       	ldi	r28, 0x00	; 0
    30e2:	d0 e0       	ldi	r29, 0x00	; 0
    30e4:	ce 15       	cp	r28, r14
    30e6:	df 05       	cpc	r29, r15
    30e8:	89 f0       	breq	.+34     	;  0x310c
    30ea:	d8 01       	movw	r26, r16
    30ec:	6d 91       	ld	r22, X+
    30ee:	8d 01       	movw	r16, r26
    30f0:	d6 01       	movw	r26, r12
    30f2:	ed 91       	ld	r30, X+
    30f4:	fc 91       	ld	r31, X
    30f6:	01 90       	ld	r0, Z+
    30f8:	f0 81       	ld	r31, Z
    30fa:	e0 2d       	mov	r30, r0
    30fc:	c6 01       	movw	r24, r12
    30fe:	09 95       	icall
    3100:	89 2b       	or	r24, r25
    3102:	11 f4       	brne	.+4      	;  0x3108
    3104:	7e 01       	movw	r14, r28
    3106:	02 c0       	rjmp	.+4      	;  0x310c
    3108:	21 96       	adiw	r28, 0x01	; 1
    310a:	ec cf       	rjmp	.-40     	;  0x30e4
    310c:	c7 01       	movw	r24, r14
    310e:	df 91       	pop	r29
    3110:	cf 91       	pop	r28
    3112:	1f 91       	pop	r17
    3114:	0f 91       	pop	r16
    3116:	ff 90       	pop	r15
    3118:	ef 90       	pop	r14
    311a:	df 90       	pop	r13
    311c:	cf 90       	pop	r12
    311e:	08 95       	ret
    3120:	61 15       	cp	r22, r1
    3122:	71 05       	cpc	r23, r1
    3124:	79 f0       	breq	.+30     	;  0x3144
    3126:	fb 01       	movw	r30, r22
    3128:	01 90       	ld	r0, Z+
    312a:	00 20       	and	r0, r0
    312c:	e9 f7       	brne	.-6      	;  0x3128
    312e:	31 97       	sbiw	r30, 0x01	; 1
    3130:	af 01       	movw	r20, r30
    3132:	46 1b       	sub	r20, r22
    3134:	57 0b       	sbc	r21, r23
    3136:	dc 01       	movw	r26, r24
    3138:	ed 91       	ld	r30, X+
    313a:	fc 91       	ld	r31, X
    313c:	02 80       	ldd	r0, Z+2	; 0x02
    313e:	f3 81       	ldd	r31, Z+3	; 0x03
    3140:	e0 2d       	mov	r30, r0
    3142:	09 94       	ijmp
    3144:	80 e0       	ldi	r24, 0x00	; 0
    3146:	90 e0       	ldi	r25, 0x00	; 0
    3148:	08 95       	ret
    314a:	ef 92       	push	r14
    314c:	ff 92       	push	r15
    314e:	0f 93       	push	r16
    3150:	1f 93       	push	r17
    3152:	cf 93       	push	r28
    3154:	df 93       	push	r29
    3156:	8c 01       	movw	r16, r24
    3158:	7b 01       	movw	r14, r22
    315a:	c0 e0       	ldi	r28, 0x00	; 0
    315c:	d0 e0       	ldi	r29, 0x00	; 0
    315e:	f7 01       	movw	r30, r14
    3160:	ec 0f       	add	r30, r28
    3162:	fd 1f       	adc	r31, r29
    3164:	64 91       	lpm	r22, Z
    3166:	66 23       	and	r22, r22
    3168:	61 f0       	breq	.+24     	;  0x3182
    316a:	d8 01       	movw	r26, r16
    316c:	ed 91       	ld	r30, X+
    316e:	fc 91       	ld	r31, X
    3170:	01 90       	ld	r0, Z+
    3172:	f0 81       	ld	r31, Z
    3174:	e0 2d       	mov	r30, r0
    3176:	c8 01       	movw	r24, r16
    3178:	09 95       	icall
    317a:	89 2b       	or	r24, r25
    317c:	11 f0       	breq	.+4      	;  0x3182
    317e:	21 96       	adiw	r28, 0x01	; 1
    3180:	ee cf       	rjmp	.-36     	;  0x315e
    3182:	ce 01       	movw	r24, r28
    3184:	df 91       	pop	r29
    3186:	cf 91       	pop	r28
    3188:	1f 91       	pop	r17
    318a:	0f 91       	pop	r16
    318c:	ff 90       	pop	r15
    318e:	ef 90       	pop	r14
    3190:	08 95       	ret
    3192:	db 01       	movw	r26, r22
    3194:	14 96       	adiw	r26, 0x04	; 4
    3196:	4d 91       	ld	r20, X+
    3198:	5c 91       	ld	r21, X
    319a:	15 97       	sbiw	r26, 0x05	; 5
    319c:	6d 91       	ld	r22, X+
    319e:	7c 91       	ld	r23, X
    31a0:	dc 01       	movw	r26, r24
    31a2:	ed 91       	ld	r30, X+
    31a4:	fc 91       	ld	r31, X
    31a6:	02 80       	ldd	r0, Z+2	; 0x02
    31a8:	f3 81       	ldd	r31, Z+3	; 0x03
    31aa:	e0 2d       	mov	r30, r0
    31ac:	09 94       	ijmp
    31ae:	0c 94 90 18 	jmp	0x3120	;  0x3120
    31b2:	dc 01       	movw	r26, r24
    31b4:	ed 91       	ld	r30, X+
    31b6:	fc 91       	ld	r31, X
    31b8:	01 90       	ld	r0, Z+
    31ba:	f0 81       	ld	r31, Z
    31bc:	e0 2d       	mov	r30, r0
    31be:	09 94       	ijmp
    31c0:	6f ea       	ldi	r22, 0xAF	; 175
    31c2:	71 e0       	ldi	r23, 0x01	; 1
    31c4:	0c 94 90 18 	jmp	0x3120	;  0x3120
    31c8:	0f 93       	push	r16
    31ca:	1f 93       	push	r17
    31cc:	cf 93       	push	r28
    31ce:	df 93       	push	r29
    31d0:	ec 01       	movw	r28, r24
    31d2:	0e 94 a5 18 	call	0x314a	;  0x314a
    31d6:	8c 01       	movw	r16, r24
    31d8:	ce 01       	movw	r24, r28
    31da:	0e 94 e0 18 	call	0x31c0	;  0x31c0
    31de:	80 0f       	add	r24, r16
    31e0:	91 1f       	adc	r25, r17
    31e2:	df 91       	pop	r29
    31e4:	cf 91       	pop	r28
    31e6:	1f 91       	pop	r17
    31e8:	0f 91       	pop	r16
    31ea:	08 95       	ret
    31ec:	4f 92       	push	r4
    31ee:	5f 92       	push	r5
    31f0:	6f 92       	push	r6
    31f2:	7f 92       	push	r7
    31f4:	ef 92       	push	r14
    31f6:	ff 92       	push	r15
    31f8:	0f 93       	push	r16
    31fa:	1f 93       	push	r17
    31fc:	cf 93       	push	r28
    31fe:	df 93       	push	r29
    3200:	cd b7       	in	r28, 0x3d	; 61
    3202:	de b7       	in	r29, 0x3e	; 62
    3204:	a1 97       	sbiw	r28, 0x21	; 33
    3206:	0f b6       	in	r0, 0x3f	; 63
    3208:	f8 94       	cli
    320a:	de bf       	out	0x3e, r29	; 62
    320c:	0f be       	out	0x3f, r0	; 63
    320e:	cd bf       	out	0x3d, r28	; 61
    3210:	7c 01       	movw	r14, r24
    3212:	fa 01       	movw	r30, r20
    3214:	cb 01       	movw	r24, r22
    3216:	19 a2       	std	Y+33, r1	; 0x21
    3218:	22 30       	cpi	r18, 0x02	; 2
    321a:	08 f4       	brcc	.+2      	;  0x321e
    321c:	2a e0       	ldi	r18, 0x0A	; 10
    321e:	8e 01       	movw	r16, r28
    3220:	0f 5d       	subi	r16, 0xDF	; 223
    3222:	1f 4f       	sbci	r17, 0xFF	; 255
    3224:	42 2e       	mov	r4, r18
    3226:	51 2c       	mov	r5, r1
    3228:	61 2c       	mov	r6, r1
    322a:	71 2c       	mov	r7, r1
    322c:	bf 01       	movw	r22, r30
    322e:	a3 01       	movw	r20, r6
    3230:	92 01       	movw	r18, r4
    3232:	0e 94 ba 30 	call	0x6174	;  0x6174
    3236:	f9 01       	movw	r30, r18
    3238:	ca 01       	movw	r24, r20
    323a:	01 50       	subi	r16, 0x01	; 1
    323c:	11 09       	sbc	r17, r1
    323e:	6a 30       	cpi	r22, 0x0A	; 10
    3240:	14 f4       	brge	.+4      	;  0x3246
    3242:	60 5d       	subi	r22, 0xD0	; 208
    3244:	01 c0       	rjmp	.+2      	;  0x3248
    3246:	69 5c       	subi	r22, 0xC9	; 201
    3248:	d8 01       	movw	r26, r16
    324a:	6c 93       	st	X, r22
    324c:	23 2b       	or	r18, r19
    324e:	24 2b       	or	r18, r20
    3250:	25 2b       	or	r18, r21
    3252:	61 f7       	brne	.-40     	;  0x322c
    3254:	b8 01       	movw	r22, r16
    3256:	c7 01       	movw	r24, r14
    3258:	0e 94 90 18 	call	0x3120	;  0x3120
    325c:	a1 96       	adiw	r28, 0x21	; 33
    325e:	0f b6       	in	r0, 0x3f	; 63
    3260:	f8 94       	cli
    3262:	de bf       	out	0x3e, r29	; 62
    3264:	0f be       	out	0x3f, r0	; 63
    3266:	cd bf       	out	0x3d, r28	; 61
    3268:	df 91       	pop	r29
    326a:	cf 91       	pop	r28
    326c:	1f 91       	pop	r17
    326e:	0f 91       	pop	r16
    3270:	ff 90       	pop	r15
    3272:	ef 90       	pop	r14
    3274:	7f 90       	pop	r7
    3276:	6f 90       	pop	r6
    3278:	5f 90       	pop	r5
    327a:	4f 90       	pop	r4
    327c:	08 95       	ret
    327e:	cf 92       	push	r12
    3280:	df 92       	push	r13
    3282:	ef 92       	push	r14
    3284:	ff 92       	push	r15
    3286:	0f 93       	push	r16
    3288:	1f 93       	push	r17
    328a:	cf 93       	push	r28
    328c:	df 93       	push	r29
    328e:	ec 01       	movw	r28, r24
    3290:	6a 01       	movw	r12, r20
    3292:	7b 01       	movw	r14, r22
    3294:	21 15       	cp	r18, r1
    3296:	31 05       	cpc	r19, r1
    3298:	79 f4       	brne	.+30     	;  0x32b8
    329a:	e8 81       	ld	r30, Y
    329c:	f9 81       	ldd	r31, Y+1	; 0x01
    329e:	01 90       	ld	r0, Z+
    32a0:	f0 81       	ld	r31, Z
    32a2:	e0 2d       	mov	r30, r0
    32a4:	64 2f       	mov	r22, r20
    32a6:	df 91       	pop	r29
    32a8:	cf 91       	pop	r28
    32aa:	1f 91       	pop	r17
    32ac:	0f 91       	pop	r16
    32ae:	ff 90       	pop	r15
    32b0:	ef 90       	pop	r14
    32b2:	df 90       	pop	r13
    32b4:	cf 90       	pop	r12
    32b6:	09 94       	ijmp
    32b8:	2a 30       	cpi	r18, 0x0A	; 10
    32ba:	31 05       	cpc	r19, r1
    32bc:	e9 f4       	brne	.+58     	;  0x32f8
    32be:	77 ff       	sbrs	r23, 7
    32c0:	1a c0       	rjmp	.+52     	;  0x32f6
    32c2:	6d e2       	ldi	r22, 0x2D	; 45
    32c4:	0e 94 d9 18 	call	0x31b2	;  0x31b2
    32c8:	8c 01       	movw	r16, r24
    32ca:	44 27       	eor	r20, r20
    32cc:	55 27       	eor	r21, r21
    32ce:	ba 01       	movw	r22, r20
    32d0:	4c 19       	sub	r20, r12
    32d2:	5d 09       	sbc	r21, r13
    32d4:	6e 09       	sbc	r22, r14
    32d6:	7f 09       	sbc	r23, r15
    32d8:	2a e0       	ldi	r18, 0x0A	; 10
    32da:	ce 01       	movw	r24, r28
    32dc:	0e 94 f6 18 	call	0x31ec	;  0x31ec
    32e0:	80 0f       	add	r24, r16
    32e2:	91 1f       	adc	r25, r17
    32e4:	df 91       	pop	r29
    32e6:	cf 91       	pop	r28
    32e8:	1f 91       	pop	r17
    32ea:	0f 91       	pop	r16
    32ec:	ff 90       	pop	r15
    32ee:	ef 90       	pop	r14
    32f0:	df 90       	pop	r13
    32f2:	cf 90       	pop	r12
    32f4:	08 95       	ret
    32f6:	2a e0       	ldi	r18, 0x0A	; 10
    32f8:	b7 01       	movw	r22, r14
    32fa:	a6 01       	movw	r20, r12
    32fc:	ce 01       	movw	r24, r28
    32fe:	df 91       	pop	r29
    3300:	cf 91       	pop	r28
    3302:	1f 91       	pop	r17
    3304:	0f 91       	pop	r16
    3306:	ff 90       	pop	r15
    3308:	ef 90       	pop	r14
    330a:	df 90       	pop	r13
    330c:	cf 90       	pop	r12
    330e:	0c 94 f6 18 	jmp	0x31ec	;  0x31ec
    3312:	9a 01       	movw	r18, r20
    3314:	ab 01       	movw	r20, r22
    3316:	66 27       	eor	r22, r22
    3318:	57 fd       	sbrc	r21, 7
    331a:	60 95       	com	r22
    331c:	76 2f       	mov	r23, r22
    331e:	0c 94 3f 19 	jmp	0x327e	;  0x327e
    3322:	21 15       	cp	r18, r1
    3324:	31 05       	cpc	r19, r1
    3326:	41 f4       	brne	.+16     	;  0x3338
    3328:	dc 01       	movw	r26, r24
    332a:	ed 91       	ld	r30, X+
    332c:	fc 91       	ld	r31, X
    332e:	01 90       	ld	r0, Z+
    3330:	f0 81       	ld	r31, Z
    3332:	e0 2d       	mov	r30, r0
    3334:	64 2f       	mov	r22, r20
    3336:	09 94       	ijmp
    3338:	0c 94 f6 18 	jmp	0x31ec	;  0x31ec
    333c:	9a 01       	movw	r18, r20
    333e:	46 2f       	mov	r20, r22
    3340:	50 e0       	ldi	r21, 0x00	; 0
    3342:	60 e0       	ldi	r22, 0x00	; 0
    3344:	70 e0       	ldi	r23, 0x00	; 0
    3346:	0c 94 91 19 	jmp	0x3322	;  0x3322
    334a:	9a 01       	movw	r18, r20
    334c:	ab 01       	movw	r20, r22
    334e:	60 e0       	ldi	r22, 0x00	; 0
    3350:	70 e0       	ldi	r23, 0x00	; 0
    3352:	0c 94 91 19 	jmp	0x3322	;  0x3322
    3356:	61 50       	subi	r22, 0x01	; 1
    3358:	30 f0       	brcs	.+12     	;  0x3366
    335a:	20 91 f1 00 	lds	r18, 0x00F1
    335e:	fc 01       	movw	r30, r24
    3360:	20 83       	st	Z, r18
    3362:	01 96       	adiw	r24, 0x01	; 1
    3364:	f8 cf       	rjmp	.-16     	;  0x3356
    3366:	28 98       	cbi	0x05, 0	; 5
    3368:	84 e6       	ldi	r24, 0x64	; 100
    336a:	80 93 de 04 	sts	0x04DE, r24
    336e:	08 95       	ret
    3370:	40 91 d9 04 	lds	r20, 0x04D9
    3374:	50 91 da 04 	lds	r21, 0x04DA
    3378:	20 91 d7 04 	lds	r18, 0x04D7
    337c:	30 91 d8 04 	lds	r19, 0x04D8
    3380:	42 17       	cp	r20, r18
    3382:	53 07       	cpc	r21, r19
    3384:	b4 f4       	brge	.+44     	;  0x33b2
    3386:	90 91 e8 00 	lds	r25, 0x00E8
    338a:	95 70       	andi	r25, 0x05	; 5
    338c:	e1 f3       	breq	.-8      	;  0x3386
    338e:	90 91 e8 00 	lds	r25, 0x00E8
    3392:	92 fd       	sbrc	r25, 2
    3394:	19 c0       	rjmp	.+50     	;  0x33c8
    3396:	80 93 f1 00 	sts	0x00F1, r24
    339a:	80 91 d9 04 	lds	r24, 0x04D9
    339e:	90 91 da 04 	lds	r25, 0x04DA
    33a2:	01 96       	adiw	r24, 0x01	; 1
    33a4:	8f 73       	andi	r24, 0x3F	; 63
    33a6:	99 27       	eor	r25, r25
    33a8:	89 2b       	or	r24, r25
    33aa:	19 f4       	brne	.+6      	;  0x33b2
    33ac:	8e ef       	ldi	r24, 0xFE	; 254
    33ae:	80 93 e8 00 	sts	0x00E8, r24
    33b2:	80 91 d9 04 	lds	r24, 0x04D9
    33b6:	90 91 da 04 	lds	r25, 0x04DA
    33ba:	01 96       	adiw	r24, 0x01	; 1
    33bc:	90 93 da 04 	sts	0x04DA, r25
    33c0:	80 93 d9 04 	sts	0x04D9, r24
    33c4:	81 e0       	ldi	r24, 0x01	; 1
    33c6:	08 95       	ret
    33c8:	80 e0       	ldi	r24, 0x00	; 0
    33ca:	08 95       	ret
    33cc:	cf 92       	push	r12
    33ce:	df 92       	push	r13
    33d0:	ef 92       	push	r14
    33d2:	ff 92       	push	r15
    33d4:	0f 93       	push	r16
    33d6:	1f 93       	push	r17
    33d8:	cf 93       	push	r28
    33da:	df 93       	push	r29
    33dc:	1f 92       	push	r1
    33de:	cd b7       	in	r28, 0x3d	; 61
    33e0:	de b7       	in	r29, 0x3e	; 62
    33e2:	18 2f       	mov	r17, r24
    33e4:	06 2f       	mov	r16, r22
    33e6:	e4 2e       	mov	r14, r20
    33e8:	86 2f       	mov	r24, r22
    33ea:	88 0f       	add	r24, r24
    33ec:	8e 5f       	subi	r24, 0xFE	; 254
    33ee:	99 83       	std	Y+1, r25	; 0x01
    33f0:	0e 94 b8 19 	call	0x3370	;  0x3370
    33f4:	83 e0       	ldi	r24, 0x03	; 3
    33f6:	0e 94 b8 19 	call	0x3370	;  0x3370
    33fa:	f1 2e       	mov	r15, r17
    33fc:	c1 2e       	mov	r12, r17
    33fe:	99 81       	ldd	r25, Y+1	; 0x01
    3400:	d9 2e       	mov	r13, r25
    3402:	8c 2d       	mov	r24, r12
    3404:	8f 19       	sub	r24, r15
    3406:	80 17       	cp	r24, r16
    3408:	98 f4       	brcc	.+38     	;  0x3430
    340a:	f6 01       	movw	r30, r12
    340c:	e7 fe       	sbrs	r14, 7
    340e:	02 c0       	rjmp	.+4      	;  0x3414
    3410:	84 91       	lpm	r24, Z
    3412:	01 c0       	rjmp	.+2      	;  0x3416
    3414:	80 81       	ld	r24, Z
    3416:	0e 94 b8 19 	call	0x3370	;  0x3370
    341a:	18 2f       	mov	r17, r24
    341c:	80 e0       	ldi	r24, 0x00	; 0
    341e:	0e 94 b8 19 	call	0x3370	;  0x3370
    3422:	81 23       	and	r24, r17
    3424:	ff ef       	ldi	r31, 0xFF	; 255
    3426:	cf 1a       	sub	r12, r31
    3428:	df 0a       	sbc	r13, r31
    342a:	81 11       	cpse	r24, r1
    342c:	ea cf       	rjmp	.-44     	;  0x3402
    342e:	01 c0       	rjmp	.+2      	;  0x3432
    3430:	81 e0       	ldi	r24, 0x01	; 1
    3432:	0f 90       	pop	r0
    3434:	df 91       	pop	r29
    3436:	cf 91       	pop	r28
    3438:	1f 91       	pop	r17
    343a:	0f 91       	pop	r16
    343c:	ff 90       	pop	r15
    343e:	ef 90       	pop	r14
    3440:	df 90       	pop	r13
    3442:	cf 90       	pop	r12
    3444:	08 95       	ret
    3446:	80 91 d7 00 	lds	r24, 0x00D7
    344a:	81 60       	ori	r24, 0x01	; 1
    344c:	80 93 d7 00 	sts	0x00D7, r24
    3450:	80 ea       	ldi	r24, 0xA0	; 160
    3452:	80 93 d8 00 	sts	0x00D8, r24
    3456:	89 b5       	in	r24, 0x29	; 41
    3458:	80 61       	ori	r24, 0x10	; 16
    345a:	89 bd       	out	0x29, r24	; 41
    345c:	89 b5       	in	r24, 0x29	; 41
    345e:	82 60       	ori	r24, 0x02	; 2
    3460:	89 bd       	out	0x29, r24	; 41
    3462:	09 b4       	in	r0, 0x29	; 41
    3464:	00 fe       	sbrs	r0, 0
    3466:	fd cf       	rjmp	.-6      	;  0x3462
    3468:	61 e0       	ldi	r22, 0x01	; 1
    346a:	70 e0       	ldi	r23, 0x00	; 0
    346c:	80 e0       	ldi	r24, 0x00	; 0
    346e:	90 e0       	ldi	r25, 0x00	; 0
    3470:	0e 94 01 20 	call	0x4002	;  0x4002
    3474:	80 91 d8 00 	lds	r24, 0x00D8
    3478:	8f 7c       	andi	r24, 0xCF	; 207
    347a:	80 61       	ori	r24, 0x10	; 16
    347c:	80 93 d8 00 	sts	0x00D8, r24
    3480:	80 91 e0 00 	lds	r24, 0x00E0
    3484:	80 7f       	andi	r24, 0xF0	; 240
    3486:	80 93 e0 00 	sts	0x00E0, r24
    348a:	08 95       	ret
    348c:	2f b7       	in	r18, 0x3f	; 63
    348e:	fc 01       	movw	r30, r24
    3490:	20 83       	st	Z, r18
    3492:	f8 94       	cli
    3494:	67 70       	andi	r22, 0x07	; 7
    3496:	60 93 e9 00 	sts	0x00E9, r22
    349a:	08 95       	ret
    349c:	cf 93       	push	r28
    349e:	df 93       	push	r29
    34a0:	1f 92       	push	r1
    34a2:	cd b7       	in	r28, 0x3d	; 61
    34a4:	de b7       	in	r29, 0x3e	; 62
    34a6:	68 2f       	mov	r22, r24
    34a8:	ce 01       	movw	r24, r28
    34aa:	01 96       	adiw	r24, 0x01	; 1
    34ac:	0e 94 46 1a 	call	0x348c	;  0x348c
    34b0:	80 91 f2 00 	lds	r24, 0x00F2
    34b4:	99 81       	ldd	r25, Y+1	; 0x01
    34b6:	9f bf       	out	0x3f, r25	; 63
    34b8:	0f 90       	pop	r0
    34ba:	df 91       	pop	r29
    34bc:	cf 91       	pop	r28
    34be:	08 95       	ret
    34c0:	ef 92       	push	r14
    34c2:	ff 92       	push	r15
    34c4:	0f 93       	push	r16
    34c6:	1f 93       	push	r17
    34c8:	cf 93       	push	r28
    34ca:	df 93       	push	r29
    34cc:	1f 92       	push	r1
    34ce:	cd b7       	in	r28, 0x3d	; 61
    34d0:	de b7       	in	r29, 0x3e	; 62
    34d2:	90 91 dd 04 	lds	r25, 0x04DD
    34d6:	99 23       	and	r25, r25
    34d8:	11 f0       	breq	.+4      	;  0x34de
    34da:	57 ff       	sbrs	r21, 7
    34dc:	03 c0       	rjmp	.+6      	;  0x34e4
    34de:	8f ef       	ldi	r24, 0xFF	; 255
    34e0:	9f ef       	ldi	r25, 0xFF	; 255
    34e2:	2a c0       	rjmp	.+84     	;  0x3538
    34e4:	8a 01       	movw	r16, r20
    34e6:	7b 01       	movw	r14, r22
    34e8:	68 2f       	mov	r22, r24
    34ea:	ce 01       	movw	r24, r28
    34ec:	01 96       	adiw	r24, 0x01	; 1
    34ee:	0e 94 46 1a 	call	0x348c	;  0x348c
    34f2:	80 91 f2 00 	lds	r24, 0x00F2
    34f6:	90 e0       	ldi	r25, 0x00	; 0
    34f8:	a8 01       	movw	r20, r16
    34fa:	80 17       	cp	r24, r16
    34fc:	91 07       	cpc	r25, r17
    34fe:	0c f4       	brge	.+2      	;  0x3502
    3500:	ac 01       	movw	r20, r24
    3502:	84 2f       	mov	r24, r20
    3504:	f7 01       	movw	r30, r14
    3506:	94 e6       	ldi	r25, 0x64	; 100
    3508:	81 50       	subi	r24, 0x01	; 1
    350a:	38 f0       	brcs	.+14     	;  0x351a
    350c:	28 98       	cbi	0x05, 0	; 5
    350e:	90 93 de 04 	sts	0x04DE, r25
    3512:	20 91 f1 00 	lds	r18, 0x00F1
    3516:	21 93       	st	Z+, r18
    3518:	f7 cf       	rjmp	.-18     	;  0x3508
    351a:	41 15       	cp	r20, r1
    351c:	51 05       	cpc	r21, r1
    351e:	21 f0       	breq	.+8      	;  0x3528
    3520:	80 91 f2 00 	lds	r24, 0x00F2
    3524:	88 23       	and	r24, r24
    3526:	21 f0       	breq	.+8      	;  0x3530
    3528:	89 81       	ldd	r24, Y+1	; 0x01
    352a:	8f bf       	out	0x3f, r24	; 63
    352c:	ca 01       	movw	r24, r20
    352e:	04 c0       	rjmp	.+8      	;  0x3538
    3530:	8b e6       	ldi	r24, 0x6B	; 107
    3532:	80 93 e8 00 	sts	0x00E8, r24
    3536:	f8 cf       	rjmp	.-16     	;  0x3528
    3538:	0f 90       	pop	r0
    353a:	df 91       	pop	r29
    353c:	cf 91       	pop	r28
    353e:	1f 91       	pop	r17
    3540:	0f 91       	pop	r16
    3542:	ff 90       	pop	r15
    3544:	ef 90       	pop	r14
    3546:	08 95       	ret
    3548:	cf 93       	push	r28
    354a:	df 93       	push	r29
    354c:	1f 92       	push	r1
    354e:	cd b7       	in	r28, 0x3d	; 61
    3550:	de b7       	in	r29, 0x3e	; 62
    3552:	41 e0       	ldi	r20, 0x01	; 1
    3554:	50 e0       	ldi	r21, 0x00	; 0
    3556:	be 01       	movw	r22, r28
    3558:	6f 5f       	subi	r22, 0xFF	; 255
    355a:	7f 4f       	sbci	r23, 0xFF	; 255
    355c:	0e 94 60 1a 	call	0x34c0	;  0x34c0
    3560:	01 97       	sbiw	r24, 0x01	; 1
    3562:	19 f4       	brne	.+6      	;  0x356a
    3564:	89 81       	ldd	r24, Y+1	; 0x01
    3566:	90 e0       	ldi	r25, 0x00	; 0
    3568:	02 c0       	rjmp	.+4      	;  0x356e
    356a:	8f ef       	ldi	r24, 0xFF	; 255
    356c:	9f ef       	ldi	r25, 0xFF	; 255
    356e:	0f 90       	pop	r0
    3570:	df 91       	pop	r29
    3572:	cf 91       	pop	r28
    3574:	08 95       	ret
    3576:	cf 93       	push	r28
    3578:	df 93       	push	r29
    357a:	1f 92       	push	r1
    357c:	cd b7       	in	r28, 0x3d	; 61
    357e:	de b7       	in	r29, 0x3e	; 62
    3580:	68 2f       	mov	r22, r24
    3582:	ce 01       	movw	r24, r28
    3584:	01 96       	adiw	r24, 0x01	; 1
    3586:	0e 94 46 1a 	call	0x348c	;  0x348c
    358a:	90 91 e8 00 	lds	r25, 0x00E8
    358e:	89 2f       	mov	r24, r25
    3590:	80 72       	andi	r24, 0x20	; 32
    3592:	95 ff       	sbrs	r25, 5
    3594:	04 c0       	rjmp	.+8      	;  0x359e
    3596:	90 91 f2 00 	lds	r25, 0x00F2
    359a:	80 e4       	ldi	r24, 0x40	; 64
    359c:	89 1b       	sub	r24, r25
    359e:	99 81       	ldd	r25, Y+1	; 0x01
    35a0:	9f bf       	out	0x3f, r25	; 63
    35a2:	0f 90       	pop	r0
    35a4:	df 91       	pop	r29
    35a6:	cf 91       	pop	r28
    35a8:	08 95       	ret
    35aa:	6f 92       	push	r6
    35ac:	7f 92       	push	r7
    35ae:	8f 92       	push	r8
    35b0:	9f 92       	push	r9
    35b2:	af 92       	push	r10
    35b4:	bf 92       	push	r11
    35b6:	cf 92       	push	r12
    35b8:	df 92       	push	r13
    35ba:	ef 92       	push	r14
    35bc:	ff 92       	push	r15
    35be:	0f 93       	push	r16
    35c0:	1f 93       	push	r17
    35c2:	cf 93       	push	r28
    35c4:	df 93       	push	r29
    35c6:	1f 92       	push	r1
    35c8:	cd b7       	in	r28, 0x3d	; 61
    35ca:	de b7       	in	r29, 0x3e	; 62
    35cc:	a8 2e       	mov	r10, r24
    35ce:	6b 01       	movw	r12, r22
    35d0:	b4 2e       	mov	r11, r20
    35d2:	05 2f       	mov	r16, r21
    35d4:	80 91 dd 04 	lds	r24, 0x04DD
    35d8:	88 23       	and	r24, r24
    35da:	69 f0       	breq	.+26     	;  0x35f6
    35dc:	e4 2e       	mov	r14, r20
    35de:	f5 2e       	mov	r15, r21
    35e0:	8a ef       	ldi	r24, 0xFA	; 250
    35e2:	98 2e       	mov	r9, r24
    35e4:	8a 2d       	mov	r24, r10
    35e6:	80 72       	andi	r24, 0x20	; 32
    35e8:	78 2e       	mov	r7, r24
    35ea:	9a e3       	ldi	r25, 0x3A	; 58
    35ec:	89 2e       	mov	r8, r25
    35ee:	8a 2d       	mov	r24, r10
    35f0:	80 74       	andi	r24, 0x40	; 64
    35f2:	68 2e       	mov	r6, r24
    35f4:	12 c0       	rjmp	.+36     	;  0x361a
    35f6:	8f ef       	ldi	r24, 0xFF	; 255
    35f8:	9f ef       	ldi	r25, 0xFF	; 255
    35fa:	54 c0       	rjmp	.+168    	;  0x36a4
    35fc:	8a 2d       	mov	r24, r10
    35fe:	0e 94 bb 1a 	call	0x3576	;  0x3576
    3602:	18 2f       	mov	r17, r24
    3604:	81 11       	cpse	r24, r1
    3606:	0d c0       	rjmp	.+26     	;  0x3622
    3608:	9a 94       	dec	r9
    360a:	99 20       	and	r9, r9
    360c:	a1 f3       	breq	.-24     	;  0x35f6
    360e:	61 e0       	ldi	r22, 0x01	; 1
    3610:	70 e0       	ldi	r23, 0x00	; 0
    3612:	80 e0       	ldi	r24, 0x00	; 0
    3614:	90 e0       	ldi	r25, 0x00	; 0
    3616:	0e 94 01 20 	call	0x4002	;  0x4002
    361a:	e1 14       	cp	r14, r1
    361c:	f1 04       	cpc	r15, r1
    361e:	71 f7       	brne	.-36     	;  0x35fc
    3620:	37 c0       	rjmp	.+110    	;  0x3690
    3622:	90 e0       	ldi	r25, 0x00	; 0
    3624:	e8 16       	cp	r14, r24
    3626:	f9 06       	cpc	r15, r25
    3628:	0c f4       	brge	.+2      	;  0x362c
    362a:	1e 2d       	mov	r17, r14
    362c:	6a 2d       	mov	r22, r10
    362e:	ce 01       	movw	r24, r28
    3630:	01 96       	adiw	r24, 0x01	; 1
    3632:	0e 94 46 1a 	call	0x348c	;  0x348c
    3636:	80 91 e8 00 	lds	r24, 0x00E8
    363a:	85 ff       	sbrs	r24, 5
    363c:	26 c0       	rjmp	.+76     	;  0x368a
    363e:	81 2f       	mov	r24, r17
    3640:	90 e0       	ldi	r25, 0x00	; 0
    3642:	e8 1a       	sub	r14, r24
    3644:	f9 0a       	sbc	r15, r25
    3646:	77 20       	and	r7, r7
    3648:	29 f0       	breq	.+10     	;  0x3654
    364a:	11 50       	subi	r17, 0x01	; 1
    364c:	a8 f0       	brcs	.+42     	;  0x3678
    364e:	10 92 f1 00 	sts	0x00F1, r1
    3652:	fb cf       	rjmp	.-10     	;  0x364a
    3654:	f6 01       	movw	r30, r12
    3656:	a7 fe       	sbrs	r10, 7
    3658:	07 c0       	rjmp	.+14     	;  0x3668
    365a:	11 50       	subi	r17, 0x01	; 1
    365c:	58 f0       	brcs	.+22     	;  0x3674
    365e:	24 91       	lpm	r18, Z
    3660:	20 93 f1 00 	sts	0x00F1, r18
    3664:	31 96       	adiw	r30, 0x01	; 1
    3666:	f9 cf       	rjmp	.-14     	;  0x365a
    3668:	11 50       	subi	r17, 0x01	; 1
    366a:	20 f0       	brcs	.+8      	;  0x3674
    366c:	21 91       	ld	r18, Z+
    366e:	20 93 f1 00 	sts	0x00F1, r18
    3672:	fa cf       	rjmp	.-12     	;  0x3668
    3674:	c8 0e       	add	r12, r24
    3676:	d9 1e       	adc	r13, r25
    3678:	80 91 e8 00 	lds	r24, 0x00E8
    367c:	85 ff       	sbrs	r24, 5
    367e:	0f c0       	rjmp	.+30     	;  0x369e
    3680:	e1 14       	cp	r14, r1
    3682:	f1 04       	cpc	r15, r1
    3684:	11 f4       	brne	.+4      	;  0x368a
    3686:	61 10       	cpse	r6, r1
    3688:	0a c0       	rjmp	.+20     	;  0x369e
    368a:	89 81       	ldd	r24, Y+1	; 0x01
    368c:	8f bf       	out	0x3f, r24	; 63
    368e:	c5 cf       	rjmp	.-118    	;  0x361a
    3690:	5d 98       	cbi	0x0b, 5	; 11
    3692:	84 e6       	ldi	r24, 0x64	; 100
    3694:	80 93 df 04 	sts	0x04DF, r24
    3698:	8b 2d       	mov	r24, r11
    369a:	90 2f       	mov	r25, r16
    369c:	03 c0       	rjmp	.+6      	;  0x36a4
    369e:	80 92 e8 00 	sts	0x00E8, r8
    36a2:	f3 cf       	rjmp	.-26     	;  0x368a
    36a4:	0f 90       	pop	r0
    36a6:	df 91       	pop	r29
    36a8:	cf 91       	pop	r28
    36aa:	1f 91       	pop	r17
    36ac:	0f 91       	pop	r16
    36ae:	ff 90       	pop	r15
    36b0:	ef 90       	pop	r14
    36b2:	df 90       	pop	r13
    36b4:	cf 90       	pop	r12
    36b6:	bf 90       	pop	r11
    36b8:	af 90       	pop	r10
    36ba:	9f 90       	pop	r9
    36bc:	8f 90       	pop	r8
    36be:	7f 90       	pop	r7
    36c0:	6f 90       	pop	r6
    36c2:	08 95       	ret
    36c4:	10 92 e9 00 	sts	0x00E9, r1
    36c8:	10 92 da 04 	sts	0x04DA, r1
    36cc:	10 92 d9 04 	sts	0x04D9, r1
    36d0:	90 93 d8 04 	sts	0x04D8, r25
    36d4:	80 93 d7 04 	sts	0x04D7, r24
    36d8:	08 95       	ret
    36da:	df 92       	push	r13
    36dc:	ef 92       	push	r14
    36de:	ff 92       	push	r15
    36e0:	0f 93       	push	r16
    36e2:	1f 93       	push	r17
    36e4:	cf 93       	push	r28
    36e6:	df 93       	push	r29
    36e8:	d8 2e       	mov	r13, r24
    36ea:	8a 01       	movw	r16, r20
    36ec:	7b 01       	movw	r14, r22
    36ee:	e4 0e       	add	r14, r20
    36f0:	f5 1e       	adc	r15, r21
    36f2:	eb 01       	movw	r28, r22
    36f4:	ce 15       	cp	r28, r14
    36f6:	df 05       	cpc	r29, r15
    36f8:	71 f0       	breq	.+28     	;  0x3716
    36fa:	d7 fe       	sbrs	r13, 7
    36fc:	03 c0       	rjmp	.+6      	;  0x3704
    36fe:	fe 01       	movw	r30, r28
    3700:	84 91       	lpm	r24, Z
    3702:	01 c0       	rjmp	.+2      	;  0x3706
    3704:	88 81       	ld	r24, Y
    3706:	0e 94 b8 19 	call	0x3370	;  0x3370
    370a:	21 96       	adiw	r28, 0x01	; 1
    370c:	81 11       	cpse	r24, r1
    370e:	f2 cf       	rjmp	.-28     	;  0x36f4
    3710:	8f ef       	ldi	r24, 0xFF	; 255
    3712:	9f ef       	ldi	r25, 0xFF	; 255
    3714:	01 c0       	rjmp	.+2      	;  0x3718
    3716:	c8 01       	movw	r24, r16
    3718:	df 91       	pop	r29
    371a:	cf 91       	pop	r28
    371c:	1f 91       	pop	r17
    371e:	0f 91       	pop	r16
    3720:	ff 90       	pop	r15
    3722:	ef 90       	pop	r14
    3724:	df 90       	pop	r13
    3726:	08 95       	ret
    3728:	bf 92       	push	r11
    372a:	cf 92       	push	r12
    372c:	df 92       	push	r13
    372e:	ef 92       	push	r14
    3730:	ff 92       	push	r15
    3732:	0f 93       	push	r16
    3734:	1f 93       	push	r17
    3736:	cf 93       	push	r28
    3738:	df 93       	push	r29
    373a:	6c 01       	movw	r12, r24
    373c:	8b 01       	movw	r16, r22
    373e:	eb 01       	movw	r28, r22
    3740:	9b ef       	ldi	r25, 0xFB	; 251
    3742:	b9 2e       	mov	r11, r25
    3744:	20 97       	sbiw	r28, 0x00	; 0
    3746:	c1 f0       	breq	.+48     	;  0x3778
    3748:	7e 01       	movw	r14, r28
    374a:	c1 34       	cpi	r28, 0x41	; 65
    374c:	d1 05       	cpc	r29, r1
    374e:	1c f0       	brlt	.+6      	;  0x3756
    3750:	80 e4       	ldi	r24, 0x40	; 64
    3752:	e8 2e       	mov	r14, r24
    3754:	f1 2c       	mov	r15, r1
    3756:	80 91 e8 00 	lds	r24, 0x00E8
    375a:	82 ff       	sbrs	r24, 2
    375c:	fc cf       	rjmp	.-8      	;  0x3756
    375e:	c8 01       	movw	r24, r16
    3760:	8c 1b       	sub	r24, r28
    3762:	9d 0b       	sbc	r25, r29
    3764:	6e 2d       	mov	r22, r14
    3766:	8c 0d       	add	r24, r12
    3768:	9d 1d       	adc	r25, r13
    376a:	0e 94 ab 19 	call	0x3356	;  0x3356
    376e:	b0 92 e8 00 	sts	0x00E8, r11
    3772:	ce 19       	sub	r28, r14
    3774:	df 09       	sbc	r29, r15
    3776:	e6 cf       	rjmp	.-52     	;  0x3744
    3778:	c8 01       	movw	r24, r16
    377a:	df 91       	pop	r29
    377c:	cf 91       	pop	r28
    377e:	1f 91       	pop	r17
    3780:	0f 91       	pop	r16
    3782:	ff 90       	pop	r15
    3784:	ef 90       	pop	r14
    3786:	df 90       	pop	r13
    3788:	cf 90       	pop	r12
    378a:	bf 90       	pop	r11
    378c:	08 95       	ret
    378e:	80 93 e9 00 	sts	0x00E9, r24
    3792:	80 91 f2 00 	lds	r24, 0x00F2
    3796:	88 23       	and	r24, r24
    3798:	19 f0       	breq	.+6      	;  0x37a0
    379a:	8a e3       	ldi	r24, 0x3A	; 58
    379c:	80 93 e8 00 	sts	0x00E8, r24
    37a0:	08 95       	ret
    37a2:	1f 92       	push	r1
    37a4:	0f 92       	push	r0
    37a6:	0f b6       	in	r0, 0x3f	; 63
    37a8:	0f 92       	push	r0
    37aa:	11 24       	eor	r1, r1
    37ac:	2f 93       	push	r18
    37ae:	3f 93       	push	r19
    37b0:	4f 93       	push	r20
    37b2:	5f 93       	push	r21
    37b4:	6f 93       	push	r22
    37b6:	7f 93       	push	r23
    37b8:	8f 93       	push	r24
    37ba:	9f 93       	push	r25
    37bc:	af 93       	push	r26
    37be:	bf 93       	push	r27
    37c0:	cf 93       	push	r28
    37c2:	ef 93       	push	r30
    37c4:	ff 93       	push	r31
    37c6:	c0 91 e1 00 	lds	r28, 0x00E1
    37ca:	80 91 e1 00 	lds	r24, 0x00E1
    37ce:	83 7f       	andi	r24, 0xF3	; 243
    37d0:	80 93 e1 00 	sts	0x00E1, r24
    37d4:	80 93 e1 00 	sts	0x00E1, r24
    37d8:	c3 ff       	sbrs	r28, 3
    37da:	0f c0       	rjmp	.+30     	;  0x37fa
    37dc:	10 92 e9 00 	sts	0x00E9, r1
    37e0:	81 e0       	ldi	r24, 0x01	; 1
    37e2:	80 93 eb 00 	sts	0x00EB, r24
    37e6:	10 92 ec 00 	sts	0x00EC, r1
    37ea:	82 e3       	ldi	r24, 0x32	; 50
    37ec:	80 93 ed 00 	sts	0x00ED, r24
    37f0:	10 92 dd 04 	sts	0x04DD, r1
    37f4:	88 e0       	ldi	r24, 0x08	; 8
    37f6:	80 93 f0 00 	sts	0x00F0, r24
    37fa:	c2 ff       	sbrs	r28, 2
    37fc:	19 c0       	rjmp	.+50     	;  0x3830
    37fe:	83 e0       	ldi	r24, 0x03	; 3
    3800:	0e 94 c7 1b 	call	0x378e	;  0x378e
    3804:	80 91 df 04 	lds	r24, 0x04DF
    3808:	88 23       	and	r24, r24
    380a:	39 f0       	breq	.+14     	;  0x381a
    380c:	80 91 df 04 	lds	r24, 0x04DF
    3810:	81 50       	subi	r24, 0x01	; 1
    3812:	80 93 df 04 	sts	0x04DF, r24
    3816:	88 23       	and	r24, r24
    3818:	89 f1       	breq	.+98     	;  0x387c
    381a:	80 91 de 04 	lds	r24, 0x04DE
    381e:	88 23       	and	r24, r24
    3820:	39 f0       	breq	.+14     	;  0x3830
    3822:	80 91 de 04 	lds	r24, 0x04DE
    3826:	81 50       	subi	r24, 0x01	; 1
    3828:	80 93 de 04 	sts	0x04DE, r24
    382c:	88 23       	and	r24, r24
    382e:	41 f1       	breq	.+80     	;  0x3880
    3830:	c4 ff       	sbrs	r28, 4
    3832:	10 c0       	rjmp	.+32     	;  0x3854
    3834:	80 91 e2 00 	lds	r24, 0x00E2
    3838:	8e 7e       	andi	r24, 0xEE	; 238
    383a:	81 60       	ori	r24, 0x01	; 1
    383c:	80 93 e2 00 	sts	0x00E2, r24
    3840:	80 91 e1 00 	lds	r24, 0x00E1
    3844:	8f 7e       	andi	r24, 0xEF	; 239
    3846:	80 93 e1 00 	sts	0x00E1, r24
    384a:	80 91 db 04 	lds	r24, 0x04DB
    384e:	8e 7e       	andi	r24, 0xEE	; 238
    3850:	80 61       	ori	r24, 0x10	; 16
    3852:	11 c0       	rjmp	.+34     	;  0x3876
    3854:	c0 ff       	sbrs	r28, 0
    3856:	16 c0       	rjmp	.+44     	;  0x3884
    3858:	80 91 e2 00 	lds	r24, 0x00E2
    385c:	8e 7e       	andi	r24, 0xEE	; 238
    385e:	80 61       	ori	r24, 0x10	; 16
    3860:	80 93 e2 00 	sts	0x00E2, r24
    3864:	80 91 e1 00 	lds	r24, 0x00E1
    3868:	8e 7e       	andi	r24, 0xEE	; 238
    386a:	80 93 e1 00 	sts	0x00E1, r24
    386e:	80 91 db 04 	lds	r24, 0x04DB
    3872:	8e 7e       	andi	r24, 0xEE	; 238
    3874:	81 60       	ori	r24, 0x01	; 1
    3876:	80 93 db 04 	sts	0x04DB, r24
    387a:	04 c0       	rjmp	.+8      	;  0x3884
    387c:	5d 9a       	sbi	0x0b, 5	; 11
    387e:	cd cf       	rjmp	.-102    	;  0x381a
    3880:	28 9a       	sbi	0x05, 0	; 5
    3882:	d6 cf       	rjmp	.-84     	;  0x3830
    3884:	ff 91       	pop	r31
    3886:	ef 91       	pop	r30
    3888:	cf 91       	pop	r28
    388a:	bf 91       	pop	r27
    388c:	af 91       	pop	r26
    388e:	9f 91       	pop	r25
    3890:	8f 91       	pop	r24
    3892:	7f 91       	pop	r23
    3894:	6f 91       	pop	r22
    3896:	5f 91       	pop	r21
    3898:	4f 91       	pop	r20
    389a:	3f 91       	pop	r19
    389c:	2f 91       	pop	r18
    389e:	0f 90       	pop	r0
    38a0:	0f be       	out	0x3f, r0	; 63
    38a2:	0f 90       	pop	r0
    38a4:	1f 90       	pop	r1
    38a6:	18 95       	reti
    38a8:	10 92 dd 04 	sts	0x04DD, r1
    38ac:	10 92 dc 04 	sts	0x04DC, r1
    38b0:	10 92 db 04 	sts	0x04DB, r1
    38b4:	0e 94 23 1a 	call	0x3446	;  0x3446
    38b8:	80 91 e1 00 	lds	r24, 0x00E1
    38bc:	8e 7e       	andi	r24, 0xEE	; 238
    38be:	80 93 e1 00 	sts	0x00E1, r24
    38c2:	8d e0       	ldi	r24, 0x0D	; 13
    38c4:	80 93 e2 00 	sts	0x00E2, r24
    38c8:	55 9a       	sbi	0x0a, 5	; 10
    38ca:	20 9a       	sbi	0x04, 0	; 4
    38cc:	ee ef       	ldi	r30, 0xFE	; 254
    38ce:	ff e7       	ldi	r31, 0x7F	; 127
    38d0:	85 91       	lpm	r24, Z+
    38d2:	94 91       	lpm	r25, Z
    38d4:	8b 3f       	cpi	r24, 0xFB	; 251
    38d6:	9c 4d       	sbci	r25, 0xDC	; 220
    38d8:	19 f4       	brne	.+6      	;  0x38e0
    38da:	81 e0       	ldi	r24, 0x01	; 1
    38dc:	80 93 0c 04 	sts	0x040C, r24
    38e0:	08 95       	ret
    38e2:	ef 92       	push	r14
    38e4:	ff 92       	push	r15
    38e6:	0f 93       	push	r16
    38e8:	1f 93       	push	r17
    38ea:	cf 93       	push	r28
    38ec:	df 93       	push	r29
    38ee:	7b 01       	movw	r14, r22
    38f0:	fc 01       	movw	r30, r24
    38f2:	c2 81       	ldd	r28, Z+2	; 0x02
    38f4:	d3 81       	ldd	r29, Z+3	; 0x03
    38f6:	00 e0       	ldi	r16, 0x00	; 0
    38f8:	10 e0       	ldi	r17, 0x00	; 0
    38fa:	20 97       	sbiw	r28, 0x00	; 0
    38fc:	81 f0       	breq	.+32     	;  0x391e
    38fe:	e8 81       	ld	r30, Y
    3900:	f9 81       	ldd	r31, Y+1	; 0x01
    3902:	02 80       	ldd	r0, Z+2	; 0x02
    3904:	f3 81       	ldd	r31, Z+3	; 0x03
    3906:	e0 2d       	mov	r30, r0
    3908:	b7 01       	movw	r22, r14
    390a:	ce 01       	movw	r24, r28
    390c:	09 95       	icall
    390e:	97 fd       	sbrc	r25, 7
    3910:	08 c0       	rjmp	.+16     	;  0x3922
    3912:	08 0f       	add	r16, r24
    3914:	19 1f       	adc	r17, r25
    3916:	08 84       	ldd	r0, Y+8	; 0x08
    3918:	d9 85       	ldd	r29, Y+9	; 0x09
    391a:	c0 2d       	mov	r28, r0
    391c:	ee cf       	rjmp	.-36     	;  0x38fa
    391e:	c8 01       	movw	r24, r16
    3920:	02 c0       	rjmp	.+4      	;  0x3926
    3922:	8f ef       	ldi	r24, 0xFF	; 255
    3924:	9f ef       	ldi	r25, 0xFF	; 255
    3926:	df 91       	pop	r29
    3928:	cf 91       	pop	r28
    392a:	1f 91       	pop	r17
    392c:	0f 91       	pop	r16
    392e:	ff 90       	pop	r15
    3930:	ef 90       	pop	r14
    3932:	08 95       	ret
    3934:	0f 93       	push	r16
    3936:	1f 93       	push	r17
    3938:	cf 93       	push	r28
    393a:	df 93       	push	r29
    393c:	8b 01       	movw	r16, r22
    393e:	fc 01       	movw	r30, r24
    3940:	c2 81       	ldd	r28, Z+2	; 0x02
    3942:	d3 81       	ldd	r29, Z+3	; 0x03
    3944:	20 97       	sbiw	r28, 0x00	; 0
    3946:	71 f0       	breq	.+28     	;  0x3964
    3948:	e8 81       	ld	r30, Y
    394a:	f9 81       	ldd	r31, Y+1	; 0x01
    394c:	04 80       	ldd	r0, Z+4	; 0x04
    394e:	f5 81       	ldd	r31, Z+5	; 0x05
    3950:	e0 2d       	mov	r30, r0
    3952:	b8 01       	movw	r22, r16
    3954:	ce 01       	movw	r24, r28
    3956:	09 95       	icall
    3958:	00 97       	sbiw	r24, 0x00	; 0
    395a:	31 f4       	brne	.+12     	;  0x3968
    395c:	08 84       	ldd	r0, Y+8	; 0x08
    395e:	d9 85       	ldd	r29, Y+9	; 0x09
    3960:	c0 2d       	mov	r28, r0
    3962:	f0 cf       	rjmp	.-32     	;  0x3944
    3964:	80 e0       	ldi	r24, 0x00	; 0
    3966:	90 e0       	ldi	r25, 0x00	; 0
    3968:	df 91       	pop	r29
    396a:	cf 91       	pop	r28
    396c:	1f 91       	pop	r17
    396e:	0f 91       	pop	r16
    3970:	08 95       	ret
    3972:	0f 93       	push	r16
    3974:	1f 93       	push	r17
    3976:	cf 93       	push	r28
    3978:	df 93       	push	r29
    397a:	8b 01       	movw	r16, r22
    397c:	fc 01       	movw	r30, r24
    397e:	c2 81       	ldd	r28, Z+2	; 0x02
    3980:	d3 81       	ldd	r29, Z+3	; 0x03
    3982:	20 97       	sbiw	r28, 0x00	; 0
    3984:	71 f0       	breq	.+28     	;  0x39a2
    3986:	e8 81       	ld	r30, Y
    3988:	f9 81       	ldd	r31, Y+1	; 0x01
    398a:	06 80       	ldd	r0, Z+6	; 0x06
    398c:	f7 81       	ldd	r31, Z+7	; 0x07
    398e:	e0 2d       	mov	r30, r0
    3990:	b8 01       	movw	r22, r16
    3992:	ce 01       	movw	r24, r28
    3994:	09 95       	icall
    3996:	08 0f       	add	r16, r24
    3998:	11 1d       	adc	r17, r1
    399a:	08 84       	ldd	r0, Y+8	; 0x08
    399c:	d9 85       	ldd	r29, Y+9	; 0x09
    399e:	c0 2d       	mov	r28, r0
    39a0:	f0 cf       	rjmp	.-32     	;  0x3982
    39a2:	f8 01       	movw	r30, r16
    39a4:	10 82       	st	Z, r1
    39a6:	df 91       	pop	r29
    39a8:	cf 91       	pop	r28
    39aa:	1f 91       	pop	r17
    39ac:	0f 91       	pop	r16
    39ae:	08 95       	ret
    39b0:	0f 93       	push	r16
    39b2:	1f 93       	push	r17
    39b4:	cf 93       	push	r28
    39b6:	df 93       	push	r29
    39b8:	8b 01       	movw	r16, r22
    39ba:	fc 01       	movw	r30, r24
    39bc:	c2 81       	ldd	r28, Z+2	; 0x02
    39be:	d3 81       	ldd	r29, Z+3	; 0x03
    39c0:	20 97       	sbiw	r28, 0x00	; 0
    39c2:	71 f0       	breq	.+28     	;  0x39e0
    39c4:	e8 81       	ld	r30, Y
    39c6:	f9 81       	ldd	r31, Y+1	; 0x01
    39c8:	01 90       	ld	r0, Z+
    39ca:	f0 81       	ld	r31, Z
    39cc:	e0 2d       	mov	r30, r0
    39ce:	b8 01       	movw	r22, r16
    39d0:	ce 01       	movw	r24, r28
    39d2:	09 95       	icall
    39d4:	81 11       	cpse	r24, r1
    39d6:	05 c0       	rjmp	.+10     	;  0x39e2
    39d8:	08 84       	ldd	r0, Y+8	; 0x08
    39da:	d9 85       	ldd	r29, Y+9	; 0x09
    39dc:	c0 2d       	mov	r28, r0
    39de:	f0 cf       	rjmp	.-32     	;  0x39c0
    39e0:	80 e0       	ldi	r24, 0x00	; 0
    39e2:	df 91       	pop	r29
    39e4:	cf 91       	pop	r28
    39e6:	1f 91       	pop	r17
    39e8:	0f 91       	pop	r16
    39ea:	08 95       	ret
    39ec:	cf 93       	push	r28
    39ee:	df 93       	push	r29
    39f0:	fc 01       	movw	r30, r24
    39f2:	db 01       	movw	r26, r22
    39f4:	21 81       	ldd	r18, Z+1	; 0x01
    39f6:	14 96       	adiw	r26, 0x04	; 4
    39f8:	8c 91       	ld	r24, X
    39fa:	14 97       	sbiw	r26, 0x04	; 4
    39fc:	90 e0       	ldi	r25, 0x00	; 0
    39fe:	82 0f       	add	r24, r18
    3a00:	91 1d       	adc	r25, r1
    3a02:	08 97       	sbiw	r24, 0x08	; 8
    3a04:	b4 f5       	brge	.+108    	;  0x3a72
    3a06:	c2 81       	ldd	r28, Z+2	; 0x02
    3a08:	d3 81       	ldd	r29, Z+3	; 0x03
    3a0a:	20 97       	sbiw	r28, 0x00	; 0
    3a0c:	19 f4       	brne	.+6      	;  0x3a14
    3a0e:	73 83       	std	Z+3, r23	; 0x03
    3a10:	62 83       	std	Z+2, r22	; 0x02
    3a12:	08 c0       	rjmp	.+16     	;  0x3a24
    3a14:	88 85       	ldd	r24, Y+8	; 0x08
    3a16:	99 85       	ldd	r25, Y+9	; 0x09
    3a18:	00 97       	sbiw	r24, 0x00	; 0
    3a1a:	11 f0       	breq	.+4      	;  0x3a20
    3a1c:	ec 01       	movw	r28, r24
    3a1e:	fa cf       	rjmp	.-12     	;  0x3a14
    3a20:	b9 87       	std	Y+9, r27	; 0x09
    3a22:	a8 87       	std	Y+8, r26	; 0x08
    3a24:	80 81       	ld	r24, Z
    3a26:	12 96       	adiw	r26, 0x02	; 2
    3a28:	8c 93       	st	X, r24
    3a2a:	12 97       	sbiw	r26, 0x02	; 2
    3a2c:	81 81       	ldd	r24, Z+1	; 0x01
    3a2e:	13 96       	adiw	r26, 0x03	; 3
    3a30:	8c 93       	st	X, r24
    3a32:	13 97       	sbiw	r26, 0x03	; 3
    3a34:	90 81       	ld	r25, Z
    3a36:	15 96       	adiw	r26, 0x05	; 5
    3a38:	8c 91       	ld	r24, X
    3a3a:	15 97       	sbiw	r26, 0x05	; 5
    3a3c:	89 0f       	add	r24, r25
    3a3e:	80 83       	st	Z, r24
    3a40:	80 e0       	ldi	r24, 0x00	; 0
    3a42:	14 96       	adiw	r26, 0x04	; 4
    3a44:	9c 91       	ld	r25, X
    3a46:	14 97       	sbiw	r26, 0x04	; 4
    3a48:	89 17       	cp	r24, r25
    3a4a:	88 f4       	brcc	.+34     	;  0x3a6e
    3a4c:	16 96       	adiw	r26, 0x06	; 6
    3a4e:	cd 91       	ld	r28, X+
    3a50:	dc 91       	ld	r29, X
    3a52:	17 97       	sbiw	r26, 0x07	; 7
    3a54:	c8 0f       	add	r28, r24
    3a56:	d1 1d       	adc	r29, r1
    3a58:	98 81       	ld	r25, Y
    3a5a:	c1 81       	ldd	r28, Z+1	; 0x01
    3a5c:	d0 e0       	ldi	r29, 0x00	; 0
    3a5e:	cb 5e       	subi	r28, 0xEB	; 235
    3a60:	de 4f       	sbci	r29, 0xFE	; 254
    3a62:	98 83       	st	Y, r25
    3a64:	91 81       	ldd	r25, Z+1	; 0x01
    3a66:	9f 5f       	subi	r25, 0xFF	; 255
    3a68:	91 83       	std	Z+1, r25	; 0x01
    3a6a:	8f 5f       	subi	r24, 0xFF	; 255
    3a6c:	ea cf       	rjmp	.-44     	;  0x3a42
    3a6e:	81 e0       	ldi	r24, 0x01	; 1
    3a70:	01 c0       	rjmp	.+2      	;  0x3a74
    3a72:	80 e0       	ldi	r24, 0x00	; 0
    3a74:	df 91       	pop	r29
    3a76:	cf 91       	pop	r28
    3a78:	08 95       	ret
    3a7a:	80 91 cd 04 	lds	r24, 0x04CD
    3a7e:	81 11       	cpse	r24, r1
    3a80:	0d c0       	rjmp	.+26     	;  0x3a9c
    3a82:	82 e0       	ldi	r24, 0x02	; 2
    3a84:	80 93 c9 04 	sts	0x04C9, r24
    3a88:	84 e0       	ldi	r24, 0x04	; 4
    3a8a:	80 93 ca 04 	sts	0x04CA, r24
    3a8e:	10 92 cc 04 	sts	0x04CC, r1
    3a92:	10 92 cb 04 	sts	0x04CB, r1
    3a96:	81 e0       	ldi	r24, 0x01	; 1
    3a98:	80 93 cd 04 	sts	0x04CD, r24
    3a9c:	89 ec       	ldi	r24, 0xC9	; 201
    3a9e:	94 e0       	ldi	r25, 0x04	; 4
    3aa0:	08 95       	ret
    3aa2:	cf 93       	push	r28
    3aa4:	df 93       	push	r29
    3aa6:	1f 92       	push	r1
    3aa8:	cd b7       	in	r28, 0x3d	; 61
    3aaa:	de b7       	in	r29, 0x3e	; 62
    3aac:	19 82       	std	Y+1, r1	; 0x01
    3aae:	ce 01       	movw	r24, r28
    3ab0:	01 96       	adiw	r24, 0x01	; 1
    3ab2:	0e 94 bd 14 	call	0x297a	;  0x297a
    3ab6:	0e 94 3d 1d 	call	0x3a7a	;  0x3a7a
    3aba:	be 01       	movw	r22, r28
    3abc:	6f 5f       	subi	r22, 0xFF	; 255
    3abe:	7f 4f       	sbci	r23, 0xFF	; 255
    3ac0:	0e 94 71 1c 	call	0x38e2	;  0x38e2
    3ac4:	89 81       	ldd	r24, Y+1	; 0x01
    3ac6:	0f 90       	pop	r0
    3ac8:	df 91       	pop	r29
    3aca:	cf 91       	pop	r28
    3acc:	08 95       	ret
    3ace:	1f 92       	push	r1
    3ad0:	0f 92       	push	r0
    3ad2:	0f b6       	in	r0, 0x3f	; 63
    3ad4:	0f 92       	push	r0
    3ad6:	11 24       	eor	r1, r1
    3ad8:	cf 92       	push	r12
    3ada:	df 92       	push	r13
    3adc:	ef 92       	push	r14
    3ade:	ff 92       	push	r15
    3ae0:	0f 93       	push	r16
    3ae2:	1f 93       	push	r17
    3ae4:	2f 93       	push	r18
    3ae6:	3f 93       	push	r19
    3ae8:	4f 93       	push	r20
    3aea:	5f 93       	push	r21
    3aec:	6f 93       	push	r22
    3aee:	7f 93       	push	r23
    3af0:	8f 93       	push	r24
    3af2:	9f 93       	push	r25
    3af4:	af 93       	push	r26
    3af6:	bf 93       	push	r27
    3af8:	ef 93       	push	r30
    3afa:	ff 93       	push	r31
    3afc:	cf 93       	push	r28
    3afe:	df 93       	push	r29
    3b00:	cd b7       	in	r28, 0x3d	; 61
    3b02:	de b7       	in	r29, 0x3e	; 62
    3b04:	6c 97       	sbiw	r28, 0x1c	; 28
    3b06:	de bf       	out	0x3e, r29	; 62
    3b08:	cd bf       	out	0x3d, r28	; 61
    3b0a:	10 92 e9 00 	sts	0x00E9, r1
    3b0e:	80 91 e8 00 	lds	r24, 0x00E8
    3b12:	83 ff       	sbrs	r24, 3
    3b14:	24 c1       	rjmp	.+584    	;  0x3d5e
    3b16:	68 e0       	ldi	r22, 0x08	; 8
    3b18:	ce 01       	movw	r24, r28
    3b1a:	45 96       	adiw	r24, 0x15	; 21
    3b1c:	0e 94 ab 19 	call	0x3356	;  0x3356
    3b20:	82 ef       	ldi	r24, 0xF2	; 242
    3b22:	80 93 e8 00 	sts	0x00E8, r24
    3b26:	8d 89       	ldd	r24, Y+21	; 0x15
    3b28:	87 ff       	sbrs	r24, 7
    3b2a:	05 c0       	rjmp	.+10     	;  0x3b36
    3b2c:	90 91 e8 00 	lds	r25, 0x00E8
    3b30:	90 ff       	sbrs	r25, 0
    3b32:	fc cf       	rjmp	.-8      	;  0x3b2c
    3b34:	03 c0       	rjmp	.+6      	;  0x3b3c
    3b36:	9e ef       	ldi	r25, 0xFE	; 254
    3b38:	90 93 e8 00 	sts	0x00E8, r25
    3b3c:	98 2f       	mov	r25, r24
    3b3e:	90 76       	andi	r25, 0x60	; 96
    3b40:	09 f0       	breq	.+2      	;  0x3b44
    3b42:	f1 c0       	rjmp	.+482    	;  0x3d26
    3b44:	9e 89       	ldd	r25, Y+22	; 0x16
    3b46:	2f 89       	ldd	r18, Y+23	; 0x17
    3b48:	18 8d       	ldd	r17, Y+24	; 0x18
    3b4a:	91 11       	cpse	r25, r1
    3b4c:	0c c0       	rjmp	.+24     	;  0x3b66
    3b4e:	80 38       	cpi	r24, 0x80	; 128
    3b50:	29 f4       	brne	.+10     	;  0x3b5c
    3b52:	80 91 dc 04 	lds	r24, 0x04DC
    3b56:	80 93 f1 00 	sts	0x00F1, r24
    3b5a:	02 c0       	rjmp	.+4      	;  0x3b60
    3b5c:	10 92 f1 00 	sts	0x00F1, r1
    3b60:	10 92 f1 00 	sts	0x00F1, r1
    3b64:	f5 c0       	rjmp	.+490    	;  0x3d50
    3b66:	42 2f       	mov	r20, r18
    3b68:	50 e0       	ldi	r21, 0x00	; 0
    3b6a:	51 2b       	or	r21, r17
    3b6c:	91 30       	cpi	r25, 0x01	; 1
    3b6e:	51 f4       	brne	.+20     	;  0x3b84
    3b70:	81 11       	cpse	r24, r1
    3b72:	ee c0       	rjmp	.+476    	;  0x3d50
    3b74:	41 30       	cpi	r20, 0x01	; 1
    3b76:	51 05       	cpc	r21, r1
    3b78:	09 f0       	breq	.+2      	;  0x3b7c
    3b7a:	ea c0       	rjmp	.+468    	;  0x3d50
    3b7c:	80 91 dc 04 	lds	r24, 0x04DC
    3b80:	8d 7f       	andi	r24, 0xFD	; 253
    3b82:	0b c0       	rjmp	.+22     	;  0x3b9a
    3b84:	93 30       	cpi	r25, 0x03	; 3
    3b86:	61 f4       	brne	.+24     	;  0x3ba0
    3b88:	81 11       	cpse	r24, r1
    3b8a:	e2 c0       	rjmp	.+452    	;  0x3d50
    3b8c:	41 30       	cpi	r20, 0x01	; 1
    3b8e:	51 05       	cpc	r21, r1
    3b90:	09 f0       	breq	.+2      	;  0x3b94
    3b92:	de c0       	rjmp	.+444    	;  0x3d50
    3b94:	80 91 dc 04 	lds	r24, 0x04DC
    3b98:	82 60       	ori	r24, 0x02	; 2
    3b9a:	80 93 dc 04 	sts	0x04DC, r24
    3b9e:	d8 c0       	rjmp	.+432    	;  0x3d50
    3ba0:	95 30       	cpi	r25, 0x05	; 5
    3ba2:	41 f4       	brne	.+16     	;  0x3bb4
    3ba4:	80 91 e8 00 	lds	r24, 0x00E8
    3ba8:	80 ff       	sbrs	r24, 0
    3baa:	fc cf       	rjmp	.-8      	;  0x3ba4
    3bac:	20 68       	ori	r18, 0x80	; 128
    3bae:	20 93 e3 00 	sts	0x00E3, r18
    3bb2:	ce c0       	rjmp	.+412    	;  0x3d50
    3bb4:	96 30       	cpi	r25, 0x06	; 6
    3bb6:	09 f0       	breq	.+2      	;  0x3bba
    3bb8:	8c c0       	rjmp	.+280    	;  0x3cd2
    3bba:	eb 8c       	ldd	r14, Y+27	; 0x1b
    3bbc:	fc 8c       	ldd	r15, Y+28	; 0x1c
    3bbe:	12 30       	cpi	r17, 0x02	; 2
    3bc0:	69 f5       	brne	.+90     	;  0x3c1c
    3bc2:	80 e0       	ldi	r24, 0x00	; 0
    3bc4:	90 e0       	ldi	r25, 0x00	; 0
    3bc6:	0e 94 62 1b 	call	0x36c4	;  0x36c4
    3bca:	0e 94 51 1d 	call	0x3aa2	;  0x3aa2
    3bce:	99 e0       	ldi	r25, 0x09	; 9
    3bd0:	9e 01       	movw	r18, r28
    3bd2:	2f 5f       	subi	r18, 0xFF	; 255
    3bd4:	3f 4f       	sbci	r19, 0xFF	; 255
    3bd6:	69 01       	movw	r12, r18
    3bd8:	f9 01       	movw	r30, r18
    3bda:	29 2f       	mov	r18, r25
    3bdc:	11 92       	st	Z+, r1
    3bde:	2a 95       	dec	r18
    3be0:	e9 f7       	brne	.-6      	;  0x3bdc
    3be2:	99 83       	std	Y+1, r25	; 0x01
    3be4:	1a 83       	std	Y+2, r17	; 0x02
    3be6:	91 e0       	ldi	r25, 0x01	; 1
    3be8:	9e 83       	std	Y+6, r25	; 0x06
    3bea:	90 ea       	ldi	r25, 0xA0	; 160
    3bec:	98 87       	std	Y+8, r25	; 0x08
    3bee:	9a ef       	ldi	r25, 0xFA	; 250
    3bf0:	99 87       	std	Y+9, r25	; 0x09
    3bf2:	20 91 d9 04 	lds	r18, 0x04D9
    3bf6:	30 91 da 04 	lds	r19, 0x04DA
    3bfa:	27 5f       	subi	r18, 0xF7	; 247
    3bfc:	3f 4f       	sbci	r19, 0xFF	; 255
    3bfe:	3c 83       	std	Y+4, r19	; 0x04
    3c00:	2b 83       	std	Y+3, r18	; 0x03
    3c02:	8d 83       	std	Y+5, r24	; 0x05
    3c04:	c7 01       	movw	r24, r14
    3c06:	0e 94 62 1b 	call	0x36c4	;  0x36c4
    3c0a:	49 e0       	ldi	r20, 0x09	; 9
    3c0c:	50 e0       	ldi	r21, 0x00	; 0
    3c0e:	b6 01       	movw	r22, r12
    3c10:	80 e0       	ldi	r24, 0x00	; 0
    3c12:	0e 94 6d 1b 	call	0x36da	;  0x36da
    3c16:	0e 94 51 1d 	call	0x3aa2	;  0x3aa2
    3c1a:	9a c0       	rjmp	.+308    	;  0x3d50
    3c1c:	c7 01       	movw	r24, r14
    3c1e:	0e 94 62 1b 	call	0x36c4	;  0x36c4
    3c22:	0e 94 3d 1d 	call	0x3a7a	;  0x3a7a
    3c26:	be 01       	movw	r22, r28
    3c28:	6b 5e       	subi	r22, 0xEB	; 235
    3c2a:	7f 4f       	sbci	r23, 0xFF	; 255
    3c2c:	0e 94 9a 1c 	call	0x3934	;  0x3934
    3c30:	00 97       	sbiw	r24, 0x00	; 0
    3c32:	19 f0       	breq	.+6      	;  0x3c3a
    3c34:	0c f0       	brlt	.+2      	;  0x3c38
    3c36:	8c c0       	rjmp	.+280    	;  0x3d50
    3c38:	8f c0       	rjmp	.+286    	;  0x3d58
    3c3a:	11 30       	cpi	r17, 0x01	; 1
    3c3c:	71 f4       	brne	.+28     	;  0x3c5a
    3c3e:	8b 8d       	ldd	r24, Y+27	; 0x1b
    3c40:	9c 8d       	ldd	r25, Y+28	; 0x1c
    3c42:	08 97       	sbiw	r24, 0x08	; 8
    3c44:	19 f4       	brne	.+6      	;  0x3c4c
    3c46:	81 e0       	ldi	r24, 0x01	; 1
    3c48:	80 93 d6 04 	sts	0x04D6, r24
    3c4c:	80 91 d6 04 	lds	r24, 0x04D6
    3c50:	81 11       	cpse	r24, r1
    3c52:	2f c0       	rjmp	.+94     	;  0x3cb2
    3c54:	6e ea       	ldi	r22, 0xAE	; 174
    3c56:	73 e0       	ldi	r23, 0x03	; 3
    3c58:	31 c0       	rjmp	.+98     	;  0x3cbc
    3c5a:	13 30       	cpi	r17, 0x03	; 3
    3c5c:	09 f0       	breq	.+2      	;  0x3c60
    3c5e:	7c c0       	rjmp	.+248    	;  0x3d58
    3c60:	8f 89       	ldd	r24, Y+23	; 0x17
    3c62:	88 23       	and	r24, r24
    3c64:	49 f1       	breq	.+82     	;  0x3cb8
    3c66:	82 30       	cpi	r24, 0x02	; 2
    3c68:	29 f4       	brne	.+10     	;  0x3c74
    3c6a:	40 e8       	ldi	r20, 0x80	; 128
    3c6c:	6c e0       	ldi	r22, 0x0C	; 12
    3c6e:	89 ec       	ldi	r24, 0xC9	; 201
    3c70:	93 e0       	ldi	r25, 0x03	; 3
    3c72:	06 c0       	rjmp	.+12     	;  0x3c80
    3c74:	81 30       	cpi	r24, 0x01	; 1
    3c76:	39 f4       	brne	.+14     	;  0x3c86
    3c78:	40 e8       	ldi	r20, 0x80	; 128
    3c7a:	68 e0       	ldi	r22, 0x08	; 8
    3c7c:	80 ec       	ldi	r24, 0xC0	; 192
    3c7e:	93 e0       	ldi	r25, 0x03	; 3
    3c80:	0e 94 e6 19 	call	0x33cc	;  0x33cc
    3c84:	63 c0       	rjmp	.+198    	;  0x3d4c
    3c86:	83 30       	cpi	r24, 0x03	; 3
    3c88:	09 f0       	breq	.+2      	;  0x3c8c
    3c8a:	66 c0       	rjmp	.+204    	;  0x3d58
    3c8c:	0e 94 3d 1d 	call	0x3a7a	;  0x3a7a
    3c90:	8e 01       	movw	r16, r28
    3c92:	0f 5f       	subi	r16, 0xFF	; 255
    3c94:	1f 4f       	sbci	r17, 0xFF	; 255
    3c96:	b8 01       	movw	r22, r16
    3c98:	0e 94 b9 1c 	call	0x3972	;  0x3972
    3c9c:	f8 01       	movw	r30, r16
    3c9e:	01 90       	ld	r0, Z+
    3ca0:	00 20       	and	r0, r0
    3ca2:	e9 f7       	brne	.-6      	;  0x3c9e
    3ca4:	31 97       	sbiw	r30, 0x01	; 1
    3ca6:	bf 01       	movw	r22, r30
    3ca8:	60 1b       	sub	r22, r16
    3caa:	71 0b       	sbc	r23, r17
    3cac:	40 e0       	ldi	r20, 0x00	; 0
    3cae:	c8 01       	movw	r24, r16
    3cb0:	e7 cf       	rjmp	.-50     	;  0x3c80
    3cb2:	6c e9       	ldi	r22, 0x9C	; 156
    3cb4:	73 e0       	ldi	r23, 0x03	; 3
    3cb6:	02 c0       	rjmp	.+4      	;  0x3cbc
    3cb8:	66 ed       	ldi	r22, 0xD6	; 214
    3cba:	73 e0       	ldi	r23, 0x03	; 3
    3cbc:	61 15       	cp	r22, r1
    3cbe:	71 05       	cpc	r23, r1
    3cc0:	09 f4       	brne	.+2      	;  0x3cc4
    3cc2:	4a c0       	rjmp	.+148    	;  0x3d58
    3cc4:	fb 01       	movw	r30, r22
    3cc6:	44 91       	lpm	r20, Z
    3cc8:	50 e0       	ldi	r21, 0x00	; 0
    3cca:	80 e8       	ldi	r24, 0x80	; 128
    3ccc:	0e 94 6d 1b 	call	0x36da	;  0x36da
    3cd0:	3f c0       	rjmp	.+126    	;  0x3d50
    3cd2:	97 30       	cpi	r25, 0x07	; 7
    3cd4:	09 f4       	brne	.+2      	;  0x3cd8
    3cd6:	40 c0       	rjmp	.+128    	;  0x3d58
    3cd8:	98 30       	cpi	r25, 0x08	; 8
    3cda:	21 f4       	brne	.+8      	;  0x3ce4
    3cdc:	81 e0       	ldi	r24, 0x01	; 1
    3cde:	80 93 f1 00 	sts	0x00F1, r24
    3ce2:	36 c0       	rjmp	.+108    	;  0x3d50
    3ce4:	99 30       	cpi	r25, 0x09	; 9
    3ce6:	a1 f5       	brne	.+104    	;  0x3d50
    3ce8:	83 70       	andi	r24, 0x03	; 3
    3cea:	b1 f5       	brne	.+108    	;  0x3d58
    3cec:	e6 e1       	ldi	r30, 0x16	; 22
    3cee:	f1 e0       	ldi	r31, 0x01	; 1
    3cf0:	81 e0       	ldi	r24, 0x01	; 1
    3cf2:	21 e0       	ldi	r18, 0x01	; 1
    3cf4:	36 e3       	ldi	r19, 0x36	; 54
    3cf6:	90 81       	ld	r25, Z
    3cf8:	99 23       	and	r25, r25
    3cfa:	61 f0       	breq	.+24     	;  0x3d14
    3cfc:	80 93 e9 00 	sts	0x00E9, r24
    3d00:	20 93 eb 00 	sts	0x00EB, r18
    3d04:	91 91       	ld	r25, Z+
    3d06:	90 93 ec 00 	sts	0x00EC, r25
    3d0a:	30 93 ed 00 	sts	0x00ED, r19
    3d0e:	8f 5f       	subi	r24, 0xFF	; 255
    3d10:	87 30       	cpi	r24, 0x07	; 7
    3d12:	89 f7       	brne	.-30     	;  0x3cf6
    3d14:	8e e7       	ldi	r24, 0x7E	; 126
    3d16:	80 93 ea 00 	sts	0x00EA, r24
    3d1a:	10 92 ea 00 	sts	0x00EA, r1
    3d1e:	8f 89       	ldd	r24, Y+23	; 0x17
    3d20:	80 93 dd 04 	sts	0x04DD, r24
    3d24:	15 c0       	rjmp	.+42     	;  0x3d50
    3d26:	8b 8d       	ldd	r24, Y+27	; 0x1b
    3d28:	9c 8d       	ldd	r25, Y+28	; 0x1c
    3d2a:	0e 94 62 1b 	call	0x36c4	;  0x36c4
    3d2e:	89 8d       	ldd	r24, Y+25	; 0x19
    3d30:	81 11       	cpse	r24, r1
    3d32:	05 c0       	rjmp	.+10     	;  0x3d3e
    3d34:	ce 01       	movw	r24, r28
    3d36:	45 96       	adiw	r24, 0x15	; 21
    3d38:	0e 94 c8 14 	call	0x2990	;  0x2990
    3d3c:	07 c0       	rjmp	.+14     	;  0x3d4c
    3d3e:	0e 94 3d 1d 	call	0x3a7a	;  0x3a7a
    3d42:	be 01       	movw	r22, r28
    3d44:	6b 5e       	subi	r22, 0xEB	; 235
    3d46:	7f 4f       	sbci	r23, 0xFF	; 255
    3d48:	0e 94 d8 1c 	call	0x39b0	;  0x39b0
    3d4c:	88 23       	and	r24, r24
    3d4e:	21 f0       	breq	.+8      	;  0x3d58
    3d50:	8e ef       	ldi	r24, 0xFE	; 254
    3d52:	80 93 e8 00 	sts	0x00E8, r24
    3d56:	03 c0       	rjmp	.+6      	;  0x3d5e
    3d58:	81 e2       	ldi	r24, 0x21	; 33
    3d5a:	80 93 eb 00 	sts	0x00EB, r24
    3d5e:	6c 96       	adiw	r28, 0x1c	; 28
    3d60:	0f b6       	in	r0, 0x3f	; 63
    3d62:	f8 94       	cli
    3d64:	de bf       	out	0x3e, r29	; 62
    3d66:	0f be       	out	0x3f, r0	; 63
    3d68:	cd bf       	out	0x3d, r28	; 61
    3d6a:	df 91       	pop	r29
    3d6c:	cf 91       	pop	r28
    3d6e:	ff 91       	pop	r31
    3d70:	ef 91       	pop	r30
    3d72:	bf 91       	pop	r27
    3d74:	af 91       	pop	r26
    3d76:	9f 91       	pop	r25
    3d78:	8f 91       	pop	r24
    3d7a:	7f 91       	pop	r23
    3d7c:	6f 91       	pop	r22
    3d7e:	5f 91       	pop	r21
    3d80:	4f 91       	pop	r20
    3d82:	3f 91       	pop	r19
    3d84:	2f 91       	pop	r18
    3d86:	1f 91       	pop	r17
    3d88:	0f 91       	pop	r16
    3d8a:	ff 90       	pop	r15
    3d8c:	ef 90       	pop	r14
    3d8e:	df 90       	pop	r13
    3d90:	cf 90       	pop	r12
    3d92:	0f 90       	pop	r0
    3d94:	0f be       	out	0x3f, r0	; 63
    3d96:	0f 90       	pop	r0
    3d98:	1f 90       	pop	r1
    3d9a:	18 95       	reti
    3d9c:	08 95       	ret
    3d9e:	1f 92       	push	r1
    3da0:	0f 92       	push	r0
    3da2:	0f b6       	in	r0, 0x3f	; 63
    3da4:	0f 92       	push	r0
    3da6:	11 24       	eor	r1, r1
    3da8:	2f 93       	push	r18
    3daa:	3f 93       	push	r19
    3dac:	4f 93       	push	r20
    3dae:	5f 93       	push	r21
    3db0:	6f 93       	push	r22
    3db2:	7f 93       	push	r23
    3db4:	8f 93       	push	r24
    3db6:	9f 93       	push	r25
    3db8:	af 93       	push	r26
    3dba:	bf 93       	push	r27
    3dbc:	ef 93       	push	r30
    3dbe:	ff 93       	push	r31
    3dc0:	e0 91 1c 01 	lds	r30, 0x011C
    3dc4:	f0 91 1d 01 	lds	r31, 0x011D
    3dc8:	09 95       	icall
    3dca:	ff 91       	pop	r31
    3dcc:	ef 91       	pop	r30
    3dce:	bf 91       	pop	r27
    3dd0:	af 91       	pop	r26
    3dd2:	9f 91       	pop	r25
    3dd4:	8f 91       	pop	r24
    3dd6:	7f 91       	pop	r23
    3dd8:	6f 91       	pop	r22
    3dda:	5f 91       	pop	r21
    3ddc:	4f 91       	pop	r20
    3dde:	3f 91       	pop	r19
    3de0:	2f 91       	pop	r18
    3de2:	0f 90       	pop	r0
    3de4:	0f be       	out	0x3f, r0	; 63
    3de6:	0f 90       	pop	r0
    3de8:	1f 90       	pop	r1
    3dea:	18 95       	reti
    3dec:	1f 92       	push	r1
    3dee:	0f 92       	push	r0
    3df0:	0f b6       	in	r0, 0x3f	; 63
    3df2:	0f 92       	push	r0
    3df4:	11 24       	eor	r1, r1
    3df6:	2f 93       	push	r18
    3df8:	3f 93       	push	r19
    3dfa:	4f 93       	push	r20
    3dfc:	5f 93       	push	r21
    3dfe:	6f 93       	push	r22
    3e00:	7f 93       	push	r23
    3e02:	8f 93       	push	r24
    3e04:	9f 93       	push	r25
    3e06:	af 93       	push	r26
    3e08:	bf 93       	push	r27
    3e0a:	ef 93       	push	r30
    3e0c:	ff 93       	push	r31
    3e0e:	e0 91 1e 01 	lds	r30, 0x011E
    3e12:	f0 91 1f 01 	lds	r31, 0x011F
    3e16:	09 95       	icall
    3e18:	ff 91       	pop	r31
    3e1a:	ef 91       	pop	r30
    3e1c:	bf 91       	pop	r27
    3e1e:	af 91       	pop	r26
    3e20:	9f 91       	pop	r25
    3e22:	8f 91       	pop	r24
    3e24:	7f 91       	pop	r23
    3e26:	6f 91       	pop	r22
    3e28:	5f 91       	pop	r21
    3e2a:	4f 91       	pop	r20
    3e2c:	3f 91       	pop	r19
    3e2e:	2f 91       	pop	r18
    3e30:	0f 90       	pop	r0
    3e32:	0f be       	out	0x3f, r0	; 63
    3e34:	0f 90       	pop	r0
    3e36:	1f 90       	pop	r1
    3e38:	18 95       	reti
    3e3a:	1f 92       	push	r1
    3e3c:	0f 92       	push	r0
    3e3e:	0f b6       	in	r0, 0x3f	; 63
    3e40:	0f 92       	push	r0
    3e42:	11 24       	eor	r1, r1
    3e44:	2f 93       	push	r18
    3e46:	3f 93       	push	r19
    3e48:	4f 93       	push	r20
    3e4a:	5f 93       	push	r21
    3e4c:	6f 93       	push	r22
    3e4e:	7f 93       	push	r23
    3e50:	8f 93       	push	r24
    3e52:	9f 93       	push	r25
    3e54:	af 93       	push	r26
    3e56:	bf 93       	push	r27
    3e58:	ef 93       	push	r30
    3e5a:	ff 93       	push	r31
    3e5c:	e0 91 20 01 	lds	r30, 0x0120
    3e60:	f0 91 21 01 	lds	r31, 0x0121
    3e64:	09 95       	icall
    3e66:	ff 91       	pop	r31
    3e68:	ef 91       	pop	r30
    3e6a:	bf 91       	pop	r27
    3e6c:	af 91       	pop	r26
    3e6e:	9f 91       	pop	r25
    3e70:	8f 91       	pop	r24
    3e72:	7f 91       	pop	r23
    3e74:	6f 91       	pop	r22
    3e76:	5f 91       	pop	r21
    3e78:	4f 91       	pop	r20
    3e7a:	3f 91       	pop	r19
    3e7c:	2f 91       	pop	r18
    3e7e:	0f 90       	pop	r0
    3e80:	0f be       	out	0x3f, r0	; 63
    3e82:	0f 90       	pop	r0
    3e84:	1f 90       	pop	r1
    3e86:	18 95       	reti
    3e88:	1f 92       	push	r1
    3e8a:	0f 92       	push	r0
    3e8c:	0f b6       	in	r0, 0x3f	; 63
    3e8e:	0f 92       	push	r0
    3e90:	11 24       	eor	r1, r1
    3e92:	2f 93       	push	r18
    3e94:	3f 93       	push	r19
    3e96:	4f 93       	push	r20
    3e98:	5f 93       	push	r21
    3e9a:	6f 93       	push	r22
    3e9c:	7f 93       	push	r23
    3e9e:	8f 93       	push	r24
    3ea0:	9f 93       	push	r25
    3ea2:	af 93       	push	r26
    3ea4:	bf 93       	push	r27
    3ea6:	ef 93       	push	r30
    3ea8:	ff 93       	push	r31
    3eaa:	e0 91 22 01 	lds	r30, 0x0122
    3eae:	f0 91 23 01 	lds	r31, 0x0123
    3eb2:	09 95       	icall
    3eb4:	ff 91       	pop	r31
    3eb6:	ef 91       	pop	r30
    3eb8:	bf 91       	pop	r27
    3eba:	af 91       	pop	r26
    3ebc:	9f 91       	pop	r25
    3ebe:	8f 91       	pop	r24
    3ec0:	7f 91       	pop	r23
    3ec2:	6f 91       	pop	r22
    3ec4:	5f 91       	pop	r21
    3ec6:	4f 91       	pop	r20
    3ec8:	3f 91       	pop	r19
    3eca:	2f 91       	pop	r18
    3ecc:	0f 90       	pop	r0
    3ece:	0f be       	out	0x3f, r0	; 63
    3ed0:	0f 90       	pop	r0
    3ed2:	1f 90       	pop	r1
    3ed4:	18 95       	reti
    3ed6:	1f 92       	push	r1
    3ed8:	0f 92       	push	r0
    3eda:	0f b6       	in	r0, 0x3f	; 63
    3edc:	0f 92       	push	r0
    3ede:	11 24       	eor	r1, r1
    3ee0:	2f 93       	push	r18
    3ee2:	3f 93       	push	r19
    3ee4:	4f 93       	push	r20
    3ee6:	5f 93       	push	r21
    3ee8:	6f 93       	push	r22
    3eea:	7f 93       	push	r23
    3eec:	8f 93       	push	r24
    3eee:	9f 93       	push	r25
    3ef0:	af 93       	push	r26
    3ef2:	bf 93       	push	r27
    3ef4:	ef 93       	push	r30
    3ef6:	ff 93       	push	r31
    3ef8:	e0 91 24 01 	lds	r30, 0x0124
    3efc:	f0 91 25 01 	lds	r31, 0x0125
    3f00:	09 95       	icall
    3f02:	ff 91       	pop	r31
    3f04:	ef 91       	pop	r30
    3f06:	bf 91       	pop	r27
    3f08:	af 91       	pop	r26
    3f0a:	9f 91       	pop	r25
    3f0c:	8f 91       	pop	r24
    3f0e:	7f 91       	pop	r23
    3f10:	6f 91       	pop	r22
    3f12:	5f 91       	pop	r21
    3f14:	4f 91       	pop	r20
    3f16:	3f 91       	pop	r19
    3f18:	2f 91       	pop	r18
    3f1a:	0f 90       	pop	r0
    3f1c:	0f be       	out	0x3f, r0	; 63
    3f1e:	0f 90       	pop	r0
    3f20:	1f 90       	pop	r1
    3f22:	18 95       	reti
    3f24:	1f 92       	push	r1
    3f26:	0f 92       	push	r0
    3f28:	0f b6       	in	r0, 0x3f	; 63
    3f2a:	0f 92       	push	r0
    3f2c:	11 24       	eor	r1, r1
    3f2e:	2f 93       	push	r18
    3f30:	3f 93       	push	r19
    3f32:	8f 93       	push	r24
    3f34:	9f 93       	push	r25
    3f36:	af 93       	push	r26
    3f38:	bf 93       	push	r27
    3f3a:	80 91 e1 04 	lds	r24, 0x04E1
    3f3e:	90 91 e2 04 	lds	r25, 0x04E2
    3f42:	a0 91 e3 04 	lds	r26, 0x04E3
    3f46:	b0 91 e4 04 	lds	r27, 0x04E4
    3f4a:	30 91 e0 04 	lds	r19, 0x04E0
    3f4e:	23 e0       	ldi	r18, 0x03	; 3
    3f50:	23 0f       	add	r18, r19
    3f52:	2d 37       	cpi	r18, 0x7D	; 125
    3f54:	20 f4       	brcc	.+8      	;  0x3f5e
    3f56:	01 96       	adiw	r24, 0x01	; 1
    3f58:	a1 1d       	adc	r26, r1
    3f5a:	b1 1d       	adc	r27, r1
    3f5c:	05 c0       	rjmp	.+10     	;  0x3f68
    3f5e:	26 e8       	ldi	r18, 0x86	; 134
    3f60:	23 0f       	add	r18, r19
    3f62:	02 96       	adiw	r24, 0x02	; 2
    3f64:	a1 1d       	adc	r26, r1
    3f66:	b1 1d       	adc	r27, r1
    3f68:	20 93 e0 04 	sts	0x04E0, r18
    3f6c:	80 93 e1 04 	sts	0x04E1, r24
    3f70:	90 93 e2 04 	sts	0x04E2, r25
    3f74:	a0 93 e3 04 	sts	0x04E3, r26
    3f78:	b0 93 e4 04 	sts	0x04E4, r27
    3f7c:	80 91 e5 04 	lds	r24, 0x04E5
    3f80:	90 91 e6 04 	lds	r25, 0x04E6
    3f84:	a0 91 e7 04 	lds	r26, 0x04E7
    3f88:	b0 91 e8 04 	lds	r27, 0x04E8
    3f8c:	01 96       	adiw	r24, 0x01	; 1
    3f8e:	a1 1d       	adc	r26, r1
    3f90:	b1 1d       	adc	r27, r1
    3f92:	80 93 e5 04 	sts	0x04E5, r24
    3f96:	90 93 e6 04 	sts	0x04E6, r25
    3f9a:	a0 93 e7 04 	sts	0x04E7, r26
    3f9e:	b0 93 e8 04 	sts	0x04E8, r27
    3fa2:	bf 91       	pop	r27
    3fa4:	af 91       	pop	r26
    3fa6:	9f 91       	pop	r25
    3fa8:	8f 91       	pop	r24
    3faa:	3f 91       	pop	r19
    3fac:	2f 91       	pop	r18
    3fae:	0f 90       	pop	r0
    3fb0:	0f be       	out	0x3f, r0	; 63
    3fb2:	0f 90       	pop	r0
    3fb4:	1f 90       	pop	r1
    3fb6:	18 95       	reti
    3fb8:	3f b7       	in	r19, 0x3f	; 63
    3fba:	f8 94       	cli
    3fbc:	80 91 e5 04 	lds	r24, 0x04E5
    3fc0:	90 91 e6 04 	lds	r25, 0x04E6
    3fc4:	a0 91 e7 04 	lds	r26, 0x04E7
    3fc8:	b0 91 e8 04 	lds	r27, 0x04E8
    3fcc:	26 b5       	in	r18, 0x26	; 38
    3fce:	a8 9b       	sbis	0x15, 0	; 21
    3fd0:	05 c0       	rjmp	.+10     	;  0x3fdc
    3fd2:	2f 3f       	cpi	r18, 0xFF	; 255
    3fd4:	19 f0       	breq	.+6      	;  0x3fdc
    3fd6:	01 96       	adiw	r24, 0x01	; 1
    3fd8:	a1 1d       	adc	r26, r1
    3fda:	b1 1d       	adc	r27, r1
    3fdc:	3f bf       	out	0x3f, r19	; 63
    3fde:	ba 2f       	mov	r27, r26
    3fe0:	a9 2f       	mov	r26, r25
    3fe2:	98 2f       	mov	r25, r24
    3fe4:	88 27       	eor	r24, r24
    3fe6:	82 0f       	add	r24, r18
    3fe8:	91 1d       	adc	r25, r1
    3fea:	a1 1d       	adc	r26, r1
    3fec:	b1 1d       	adc	r27, r1
    3fee:	bc 01       	movw	r22, r24
    3ff0:	cd 01       	movw	r24, r26
    3ff2:	42 e0       	ldi	r20, 0x02	; 2
    3ff4:	66 0f       	add	r22, r22
    3ff6:	77 1f       	adc	r23, r23
    3ff8:	88 1f       	adc	r24, r24
    3ffa:	99 1f       	adc	r25, r25
    3ffc:	4a 95       	dec	r20
    3ffe:	d1 f7       	brne	.-12     	;  0x3ff4
    4000:	08 95       	ret
    4002:	8f 92       	push	r8
    4004:	9f 92       	push	r9
    4006:	af 92       	push	r10
    4008:	bf 92       	push	r11
    400a:	cf 92       	push	r12
    400c:	df 92       	push	r13
    400e:	ef 92       	push	r14
    4010:	ff 92       	push	r15
    4012:	6b 01       	movw	r12, r22
    4014:	7c 01       	movw	r14, r24
    4016:	0e 94 dc 1f 	call	0x3fb8	;  0x3fb8
    401a:	4b 01       	movw	r8, r22
    401c:	5c 01       	movw	r10, r24
    401e:	c1 14       	cp	r12, r1
    4020:	d1 04       	cpc	r13, r1
    4022:	e1 04       	cpc	r14, r1
    4024:	f1 04       	cpc	r15, r1
    4026:	01 f1       	breq	.+64     	;  0x4068
    4028:	0e 94 62 18 	call	0x30c4	;  0x30c4
    402c:	0e 94 dc 1f 	call	0x3fb8	;  0x3fb8
    4030:	dc 01       	movw	r26, r24
    4032:	cb 01       	movw	r24, r22
    4034:	88 19       	sub	r24, r8
    4036:	99 09       	sbc	r25, r9
    4038:	aa 09       	sbc	r26, r10
    403a:	bb 09       	sbc	r27, r11
    403c:	88 3e       	cpi	r24, 0xE8	; 232
    403e:	93 40       	sbci	r25, 0x03	; 3
    4040:	a1 05       	cpc	r26, r1
    4042:	b1 05       	cpc	r27, r1
    4044:	60 f3       	brcs	.-40     	;  0x401e
    4046:	21 e0       	ldi	r18, 0x01	; 1
    4048:	c2 1a       	sub	r12, r18
    404a:	d1 08       	sbc	r13, r1
    404c:	e1 08       	sbc	r14, r1
    404e:	f1 08       	sbc	r15, r1
    4050:	88 ee       	ldi	r24, 0xE8	; 232
    4052:	88 0e       	add	r8, r24
    4054:	83 e0       	ldi	r24, 0x03	; 3
    4056:	98 1e       	adc	r9, r24
    4058:	a1 1c       	adc	r10, r1
    405a:	b1 1c       	adc	r11, r1
    405c:	c1 14       	cp	r12, r1
    405e:	d1 04       	cpc	r13, r1
    4060:	e1 04       	cpc	r14, r1
    4062:	f1 04       	cpc	r15, r1
    4064:	19 f7       	brne	.-58     	;  0x402c
    4066:	db cf       	rjmp	.-74     	;  0x401e
    4068:	ff 90       	pop	r15
    406a:	ef 90       	pop	r14
    406c:	df 90       	pop	r13
    406e:	cf 90       	pop	r12
    4070:	bf 90       	pop	r11
    4072:	af 90       	pop	r10
    4074:	9f 90       	pop	r9
    4076:	8f 90       	pop	r8
    4078:	08 95       	ret
    407a:	82 30       	cpi	r24, 0x02	; 2
    407c:	91 05       	cpc	r25, r1
    407e:	38 f0       	brcs	.+14     	;  0x408e
    4080:	88 0f       	add	r24, r24
    4082:	99 1f       	adc	r25, r25
    4084:	88 0f       	add	r24, r24
    4086:	99 1f       	adc	r25, r25
    4088:	05 97       	sbiw	r24, 0x05	; 5
    408a:	01 97       	sbiw	r24, 0x01	; 1
    408c:	f1 f7       	brne	.-4      	;  0x408a
    408e:	08 95       	ret
    4090:	78 94       	sei
    4092:	84 b5       	in	r24, 0x24	; 36
    4094:	82 60       	ori	r24, 0x02	; 2
    4096:	84 bd       	out	0x24, r24	; 36
    4098:	84 b5       	in	r24, 0x24	; 36
    409a:	81 60       	ori	r24, 0x01	; 1
    409c:	84 bd       	out	0x24, r24	; 36
    409e:	85 b5       	in	r24, 0x25	; 37
    40a0:	82 60       	ori	r24, 0x02	; 2
    40a2:	85 bd       	out	0x25, r24	; 37
    40a4:	85 b5       	in	r24, 0x25	; 37
    40a6:	81 60       	ori	r24, 0x01	; 1
    40a8:	85 bd       	out	0x25, r24	; 37
    40aa:	ee e6       	ldi	r30, 0x6E	; 110
    40ac:	f0 e0       	ldi	r31, 0x00	; 0
    40ae:	80 81       	ld	r24, Z
    40b0:	81 60       	ori	r24, 0x01	; 1
    40b2:	80 83       	st	Z, r24
    40b4:	e1 e8       	ldi	r30, 0x81	; 129
    40b6:	f0 e0       	ldi	r31, 0x00	; 0
    40b8:	10 82       	st	Z, r1
    40ba:	80 81       	ld	r24, Z
    40bc:	82 60       	ori	r24, 0x02	; 2
    40be:	80 83       	st	Z, r24
    40c0:	80 81       	ld	r24, Z
    40c2:	81 60       	ori	r24, 0x01	; 1
    40c4:	80 83       	st	Z, r24
    40c6:	e0 e8       	ldi	r30, 0x80	; 128
    40c8:	f0 e0       	ldi	r31, 0x00	; 0
    40ca:	80 81       	ld	r24, Z
    40cc:	81 60       	ori	r24, 0x01	; 1
    40ce:	80 83       	st	Z, r24
    40d0:	e1 e9       	ldi	r30, 0x91	; 145
    40d2:	f0 e0       	ldi	r31, 0x00	; 0
    40d4:	80 81       	ld	r24, Z
    40d6:	82 60       	ori	r24, 0x02	; 2
    40d8:	80 83       	st	Z, r24
    40da:	80 81       	ld	r24, Z
    40dc:	81 60       	ori	r24, 0x01	; 1
    40de:	80 83       	st	Z, r24
    40e0:	e0 e9       	ldi	r30, 0x90	; 144
    40e2:	f0 e0       	ldi	r31, 0x00	; 0
    40e4:	80 81       	ld	r24, Z
    40e6:	81 60       	ori	r24, 0x01	; 1
    40e8:	80 83       	st	Z, r24
    40ea:	e1 ec       	ldi	r30, 0xC1	; 193
    40ec:	f0 e0       	ldi	r31, 0x00	; 0
    40ee:	80 81       	ld	r24, Z
    40f0:	84 60       	ori	r24, 0x04	; 4
    40f2:	80 83       	st	Z, r24
    40f4:	80 81       	ld	r24, Z
    40f6:	82 60       	ori	r24, 0x02	; 2
    40f8:	80 83       	st	Z, r24
    40fa:	80 81       	ld	r24, Z
    40fc:	81 60       	ori	r24, 0x01	; 1
    40fe:	80 83       	st	Z, r24
    4100:	e3 ec       	ldi	r30, 0xC3	; 195
    4102:	f0 e0       	ldi	r31, 0x00	; 0
    4104:	80 81       	ld	r24, Z
    4106:	81 60       	ori	r24, 0x01	; 1
    4108:	80 83       	st	Z, r24
    410a:	e0 ec       	ldi	r30, 0xC0	; 192
    410c:	f0 e0       	ldi	r31, 0x00	; 0
    410e:	80 81       	ld	r24, Z
    4110:	82 60       	ori	r24, 0x02	; 2
    4112:	80 83       	st	Z, r24
    4114:	e2 ec       	ldi	r30, 0xC2	; 194
    4116:	f0 e0       	ldi	r31, 0x00	; 0
    4118:	80 81       	ld	r24, Z
    411a:	81 60       	ori	r24, 0x01	; 1
    411c:	80 83       	st	Z, r24
    411e:	ea e7       	ldi	r30, 0x7A	; 122
    4120:	f0 e0       	ldi	r31, 0x00	; 0
    4122:	80 81       	ld	r24, Z
    4124:	84 60       	ori	r24, 0x04	; 4
    4126:	80 83       	st	Z, r24
    4128:	80 81       	ld	r24, Z
    412a:	82 60       	ori	r24, 0x02	; 2
    412c:	80 83       	st	Z, r24
    412e:	80 81       	ld	r24, Z
    4130:	81 60       	ori	r24, 0x01	; 1
    4132:	80 83       	st	Z, r24
    4134:	80 81       	ld	r24, Z
    4136:	80 68       	ori	r24, 0x80	; 128
    4138:	80 83       	st	Z, r24
    413a:	08 95       	ret
    413c:	90 e0       	ldi	r25, 0x00	; 0
    413e:	fc 01       	movw	r30, r24
    4140:	31 97       	sbiw	r30, 0x01	; 1
    4142:	ef 30       	cpi	r30, 0x0F	; 15
    4144:	f1 05       	cpc	r31, r1
    4146:	b0 f5       	brcc	.+108    	;  0x41b4
    4148:	ea 5a       	subi	r30, 0xAA	; 170
    414a:	ff 4f       	sbci	r31, 0xFF	; 255
    414c:	0c 94 fb 30 	jmp	0x61f6	;  0x61f6
    4150:	80 91 80 00 	lds	r24, 0x0080
    4154:	8f 77       	andi	r24, 0x7F	; 127
    4156:	03 c0       	rjmp	.+6      	;  0x415e
    4158:	80 91 80 00 	lds	r24, 0x0080
    415c:	8f 7d       	andi	r24, 0xDF	; 223
    415e:	80 93 80 00 	sts	0x0080, r24
    4162:	08 95       	ret
    4164:	80 91 80 00 	lds	r24, 0x0080
    4168:	87 7f       	andi	r24, 0xF7	; 247
    416a:	f9 cf       	rjmp	.-14     	;  0x415e
    416c:	84 b5       	in	r24, 0x24	; 36
    416e:	8f 77       	andi	r24, 0x7F	; 127
    4170:	02 c0       	rjmp	.+4      	;  0x4176
    4172:	84 b5       	in	r24, 0x24	; 36
    4174:	8f 7d       	andi	r24, 0xDF	; 223
    4176:	84 bd       	out	0x24, r24	; 36
    4178:	08 95       	ret
    417a:	80 91 90 00 	lds	r24, 0x0090
    417e:	8f 77       	andi	r24, 0x7F	; 127
    4180:	07 c0       	rjmp	.+14     	;  0x4190
    4182:	80 91 90 00 	lds	r24, 0x0090
    4186:	8f 7d       	andi	r24, 0xDF	; 223
    4188:	03 c0       	rjmp	.+6      	;  0x4190
    418a:	80 91 90 00 	lds	r24, 0x0090
    418e:	87 7f       	andi	r24, 0xF7	; 247
    4190:	80 93 90 00 	sts	0x0090, r24
    4194:	08 95       	ret
    4196:	80 91 c0 00 	lds	r24, 0x00C0
    419a:	8f 77       	andi	r24, 0x7F	; 127
    419c:	03 c0       	rjmp	.+6      	;  0x41a4
    419e:	80 91 c0 00 	lds	r24, 0x00C0
    41a2:	8f 7d       	andi	r24, 0xDF	; 223
    41a4:	80 93 c0 00 	sts	0x00C0, r24
    41a8:	08 95       	ret
    41aa:	80 91 c2 00 	lds	r24, 0x00C2
    41ae:	87 7f       	andi	r24, 0xF7	; 247
    41b0:	80 93 c2 00 	sts	0x00C2, r24
    41b4:	08 95       	ret
    41b6:	cf 93       	push	r28
    41b8:	df 93       	push	r29
    41ba:	90 e0       	ldi	r25, 0x00	; 0
    41bc:	fc 01       	movw	r30, r24
    41be:	e8 50       	subi	r30, 0x08	; 8
    41c0:	fc 4f       	sbci	r31, 0xFC	; 252
    41c2:	24 91       	lpm	r18, Z
    41c4:	fc 01       	movw	r30, r24
    41c6:	e9 5e       	subi	r30, 0xE9	; 233
    41c8:	fb 4f       	sbci	r31, 0xFB	; 251
    41ca:	84 91       	lpm	r24, Z
    41cc:	88 23       	and	r24, r24
    41ce:	61 f1       	breq	.+88     	;  0x4228
    41d0:	90 e0       	ldi	r25, 0x00	; 0
    41d2:	88 0f       	add	r24, r24
    41d4:	99 1f       	adc	r25, r25
    41d6:	fc 01       	movw	r30, r24
    41d8:	ee 5a       	subi	r30, 0xAE	; 174
    41da:	fb 4f       	sbci	r31, 0xFB	; 251
    41dc:	c5 91       	lpm	r28, Z+
    41de:	d4 91       	lpm	r29, Z
    41e0:	fc 01       	movw	r30, r24
    41e2:	ec 5b       	subi	r30, 0xBC	; 188
    41e4:	fb 4f       	sbci	r31, 0xFB	; 251
    41e6:	a5 91       	lpm	r26, Z+
    41e8:	b4 91       	lpm	r27, Z
    41ea:	61 11       	cpse	r22, r1
    41ec:	09 c0       	rjmp	.+18     	;  0x4200
    41ee:	9f b7       	in	r25, 0x3f	; 63
    41f0:	f8 94       	cli
    41f2:	88 81       	ld	r24, Y
    41f4:	20 95       	com	r18
    41f6:	82 23       	and	r24, r18
    41f8:	88 83       	st	Y, r24
    41fa:	ec 91       	ld	r30, X
    41fc:	2e 23       	and	r18, r30
    41fe:	0b c0       	rjmp	.+22     	;  0x4216
    4200:	62 30       	cpi	r22, 0x02	; 2
    4202:	61 f4       	brne	.+24     	;  0x421c
    4204:	9f b7       	in	r25, 0x3f	; 63
    4206:	f8 94       	cli
    4208:	38 81       	ld	r19, Y
    420a:	82 2f       	mov	r24, r18
    420c:	80 95       	com	r24
    420e:	83 23       	and	r24, r19
    4210:	88 83       	st	Y, r24
    4212:	ec 91       	ld	r30, X
    4214:	2e 2b       	or	r18, r30
    4216:	2c 93       	st	X, r18
    4218:	9f bf       	out	0x3f, r25	; 63
    421a:	06 c0       	rjmp	.+12     	;  0x4228
    421c:	8f b7       	in	r24, 0x3f	; 63
    421e:	f8 94       	cli
    4220:	e8 81       	ld	r30, Y
    4222:	2e 2b       	or	r18, r30
    4224:	28 83       	st	Y, r18
    4226:	8f bf       	out	0x3f, r24	; 63
    4228:	df 91       	pop	r29
    422a:	cf 91       	pop	r28
    422c:	08 95       	ret
    422e:	1f 93       	push	r17
    4230:	cf 93       	push	r28
    4232:	df 93       	push	r29
    4234:	28 2f       	mov	r18, r24
    4236:	30 e0       	ldi	r19, 0x00	; 0
    4238:	f9 01       	movw	r30, r18
    423a:	e6 52       	subi	r30, 0x26	; 38
    423c:	fc 4f       	sbci	r31, 0xFC	; 252
    423e:	84 91       	lpm	r24, Z
    4240:	f9 01       	movw	r30, r18
    4242:	e8 50       	subi	r30, 0x08	; 8
    4244:	fc 4f       	sbci	r31, 0xFC	; 252
    4246:	d4 91       	lpm	r29, Z
    4248:	f9 01       	movw	r30, r18
    424a:	e9 5e       	subi	r30, 0xE9	; 233
    424c:	fb 4f       	sbci	r31, 0xFB	; 251
    424e:	c4 91       	lpm	r28, Z
    4250:	cc 23       	and	r28, r28
    4252:	c9 f0       	breq	.+50     	;  0x4286
    4254:	16 2f       	mov	r17, r22
    4256:	81 11       	cpse	r24, r1
    4258:	0e 94 9e 20 	call	0x413c	;  0x413c
    425c:	ec 2f       	mov	r30, r28
    425e:	f0 e0       	ldi	r31, 0x00	; 0
    4260:	ee 0f       	add	r30, r30
    4262:	ff 1f       	adc	r31, r31
    4264:	ec 5b       	subi	r30, 0xBC	; 188
    4266:	fb 4f       	sbci	r31, 0xFB	; 251
    4268:	a5 91       	lpm	r26, Z+
    426a:	b4 91       	lpm	r27, Z
    426c:	8f b7       	in	r24, 0x3f	; 63
    426e:	f8 94       	cli
    4270:	11 11       	cpse	r17, r1
    4272:	05 c0       	rjmp	.+10     	;  0x427e
    4274:	9c 91       	ld	r25, X
    4276:	ed 2f       	mov	r30, r29
    4278:	e0 95       	com	r30
    427a:	e9 23       	and	r30, r25
    427c:	02 c0       	rjmp	.+4      	;  0x4282
    427e:	ec 91       	ld	r30, X
    4280:	ed 2b       	or	r30, r29
    4282:	ec 93       	st	X, r30
    4284:	8f bf       	out	0x3f, r24	; 63
    4286:	df 91       	pop	r29
    4288:	cf 91       	pop	r28
    428a:	1f 91       	pop	r17
    428c:	08 95       	ret
    428e:	cf 93       	push	r28
    4290:	df 93       	push	r29
    4292:	28 2f       	mov	r18, r24
    4294:	30 e0       	ldi	r19, 0x00	; 0
    4296:	f9 01       	movw	r30, r18
    4298:	e6 52       	subi	r30, 0x26	; 38
    429a:	fc 4f       	sbci	r31, 0xFC	; 252
    429c:	84 91       	lpm	r24, Z
    429e:	f9 01       	movw	r30, r18
    42a0:	e8 50       	subi	r30, 0x08	; 8
    42a2:	fc 4f       	sbci	r31, 0xFC	; 252
    42a4:	d4 91       	lpm	r29, Z
    42a6:	f9 01       	movw	r30, r18
    42a8:	e9 5e       	subi	r30, 0xE9	; 233
    42aa:	fb 4f       	sbci	r31, 0xFB	; 251
    42ac:	c4 91       	lpm	r28, Z
    42ae:	cc 23       	and	r28, r28
    42b0:	91 f0       	breq	.+36     	;  0x42d6
    42b2:	81 11       	cpse	r24, r1
    42b4:	0e 94 9e 20 	call	0x413c	;  0x413c
    42b8:	ec 2f       	mov	r30, r28
    42ba:	f0 e0       	ldi	r31, 0x00	; 0
    42bc:	ee 0f       	add	r30, r30
    42be:	ff 1f       	adc	r31, r31
    42c0:	ea 5c       	subi	r30, 0xCA	; 202
    42c2:	fb 4f       	sbci	r31, 0xFB	; 251
    42c4:	a5 91       	lpm	r26, Z+
    42c6:	b4 91       	lpm	r27, Z
    42c8:	ec 91       	ld	r30, X
    42ca:	ed 23       	and	r30, r29
    42cc:	81 e0       	ldi	r24, 0x01	; 1
    42ce:	90 e0       	ldi	r25, 0x00	; 0
    42d0:	21 f4       	brne	.+8      	;  0x42da
    42d2:	80 e0       	ldi	r24, 0x00	; 0
    42d4:	02 c0       	rjmp	.+4      	;  0x42da
    42d6:	80 e0       	ldi	r24, 0x00	; 0
    42d8:	90 e0       	ldi	r25, 0x00	; 0
    42da:	df 91       	pop	r29
    42dc:	cf 91       	pop	r28
    42de:	08 95       	ret
    42e0:	dc 01       	movw	r26, r24
    42e2:	fb 01       	movw	r30, r22
    42e4:	11 96       	adiw	r26, 0x01	; 1
    42e6:	1c 92       	st	X, r1
    42e8:	1e 92       	st	-X, r1
    42ea:	13 96       	adiw	r26, 0x03	; 3
    42ec:	1c 92       	st	X, r1
    42ee:	1e 92       	st	-X, r1
    42f0:	12 97       	sbiw	r26, 0x02	; 2
    42f2:	15 96       	adiw	r26, 0x05	; 5
    42f4:	1c 92       	st	X, r1
    42f6:	1e 92       	st	-X, r1
    42f8:	14 97       	sbiw	r26, 0x04	; 4
    42fa:	80 81       	ld	r24, Z
    42fc:	91 81       	ldd	r25, Z+1	; 0x01
    42fe:	11 96       	adiw	r26, 0x01	; 1
    4300:	9c 93       	st	X, r25
    4302:	8e 93       	st	-X, r24
    4304:	82 81       	ldd	r24, Z+2	; 0x02
    4306:	93 81       	ldd	r25, Z+3	; 0x03
    4308:	13 96       	adiw	r26, 0x03	; 3
    430a:	9c 93       	st	X, r25
    430c:	8e 93       	st	-X, r24
    430e:	12 97       	sbiw	r26, 0x02	; 2
    4310:	84 81       	ldd	r24, Z+4	; 0x04
    4312:	95 81       	ldd	r25, Z+5	; 0x05
    4314:	15 96       	adiw	r26, 0x05	; 5
    4316:	9c 93       	st	X, r25
    4318:	8e 93       	st	-X, r24
    431a:	14 97       	sbiw	r26, 0x04	; 4
    431c:	11 82       	std	Z+1, r1	; 0x01
    431e:	10 82       	st	Z, r1
    4320:	13 82       	std	Z+3, r1	; 0x03
    4322:	12 82       	std	Z+2, r1	; 0x02
    4324:	15 82       	std	Z+5, r1	; 0x05
    4326:	14 82       	std	Z+4, r1	; 0x04
    4328:	08 95       	ret
    432a:	fc 01       	movw	r30, r24
    432c:	80 81       	ld	r24, Z
    432e:	91 81       	ldd	r25, Z+1	; 0x01
    4330:	0c 94 a5 31 	jmp	0x634a	;  0x634a
    4334:	cf 93       	push	r28
    4336:	df 93       	push	r29
    4338:	ec 01       	movw	r28, r24
    433a:	88 81       	ld	r24, Y
    433c:	99 81       	ldd	r25, Y+1	; 0x01
    433e:	00 97       	sbiw	r24, 0x00	; 0
    4340:	11 f0       	breq	.+4      	;  0x4346
    4342:	0e 94 a5 31 	call	0x634a	;  0x634a
    4346:	19 82       	std	Y+1, r1	; 0x01
    4348:	18 82       	st	Y, r1
    434a:	1d 82       	std	Y+5, r1	; 0x05
    434c:	1c 82       	std	Y+4, r1	; 0x04
    434e:	1b 82       	std	Y+3, r1	; 0x03
    4350:	1a 82       	std	Y+2, r1	; 0x02
    4352:	df 91       	pop	r29
    4354:	cf 91       	pop	r28
    4356:	08 95       	ret
    4358:	0f 93       	push	r16
    435a:	1f 93       	push	r17
    435c:	cf 93       	push	r28
    435e:	df 93       	push	r29
    4360:	ec 01       	movw	r28, r24
    4362:	8b 01       	movw	r16, r22
    4364:	6f 5f       	subi	r22, 0xFF	; 255
    4366:	7f 4f       	sbci	r23, 0xFF	; 255
    4368:	88 81       	ld	r24, Y
    436a:	99 81       	ldd	r25, Y+1	; 0x01
    436c:	0e 94 3d 32 	call	0x647a	;  0x647a
    4370:	00 97       	sbiw	r24, 0x00	; 0
    4372:	31 f0       	breq	.+12     	;  0x4380
    4374:	99 83       	std	Y+1, r25	; 0x01
    4376:	88 83       	st	Y, r24
    4378:	1b 83       	std	Y+3, r17	; 0x03
    437a:	0a 83       	std	Y+2, r16	; 0x02
    437c:	81 e0       	ldi	r24, 0x01	; 1
    437e:	01 c0       	rjmp	.+2      	;  0x4382
    4380:	80 e0       	ldi	r24, 0x00	; 0
    4382:	df 91       	pop	r29
    4384:	cf 91       	pop	r28
    4386:	1f 91       	pop	r17
    4388:	0f 91       	pop	r16
    438a:	08 95       	ret
    438c:	cf 93       	push	r28
    438e:	df 93       	push	r29
    4390:	ec 01       	movw	r28, r24
    4392:	88 81       	ld	r24, Y
    4394:	99 81       	ldd	r25, Y+1	; 0x01
    4396:	89 2b       	or	r24, r25
    4398:	29 f0       	breq	.+10     	;  0x43a4
    439a:	8a 81       	ldd	r24, Y+2	; 0x02
    439c:	9b 81       	ldd	r25, Y+3	; 0x03
    439e:	86 17       	cp	r24, r22
    43a0:	97 07       	cpc	r25, r23
    43a2:	60 f4       	brcc	.+24     	;  0x43bc
    43a4:	ce 01       	movw	r24, r28
    43a6:	0e 94 ac 21 	call	0x4358	;  0x4358
    43aa:	88 23       	and	r24, r24
    43ac:	41 f0       	breq	.+16     	;  0x43be
    43ae:	8c 81       	ldd	r24, Y+4	; 0x04
    43b0:	9d 81       	ldd	r25, Y+5	; 0x05
    43b2:	89 2b       	or	r24, r25
    43b4:	19 f4       	brne	.+6      	;  0x43bc
    43b6:	e8 81       	ld	r30, Y
    43b8:	f9 81       	ldd	r31, Y+1	; 0x01
    43ba:	10 82       	st	Z, r1
    43bc:	81 e0       	ldi	r24, 0x01	; 1
    43be:	df 91       	pop	r29
    43c0:	cf 91       	pop	r28
    43c2:	08 95       	ret
    43c4:	ef 92       	push	r14
    43c6:	ff 92       	push	r15
    43c8:	0f 93       	push	r16
    43ca:	1f 93       	push	r17
    43cc:	cf 93       	push	r28
    43ce:	df 93       	push	r29
    43d0:	ec 01       	movw	r28, r24
    43d2:	7b 01       	movw	r14, r22
    43d4:	8a 01       	movw	r16, r20
    43d6:	ba 01       	movw	r22, r20
    43d8:	0e 94 c6 21 	call	0x438c	;  0x438c
    43dc:	81 11       	cpse	r24, r1
    43de:	04 c0       	rjmp	.+8      	;  0x43e8
    43e0:	ce 01       	movw	r24, r28
    43e2:	0e 94 9a 21 	call	0x4334	;  0x4334
    43e6:	07 c0       	rjmp	.+14     	;  0x43f6
    43e8:	1d 83       	std	Y+5, r17	; 0x05
    43ea:	0c 83       	std	Y+4, r16	; 0x04
    43ec:	b7 01       	movw	r22, r14
    43ee:	88 81       	ld	r24, Y
    43f0:	99 81       	ldd	r25, Y+1	; 0x01
    43f2:	0e 94 1f 33 	call	0x663e	;  0x663e
    43f6:	ce 01       	movw	r24, r28
    43f8:	df 91       	pop	r29
    43fa:	cf 91       	pop	r28
    43fc:	1f 91       	pop	r17
    43fe:	0f 91       	pop	r16
    4400:	ff 90       	pop	r15
    4402:	ef 90       	pop	r14
    4404:	08 95       	ret
    4406:	fc 01       	movw	r30, r24
    4408:	11 82       	std	Z+1, r1	; 0x01
    440a:	10 82       	st	Z, r1
    440c:	13 82       	std	Z+3, r1	; 0x03
    440e:	12 82       	std	Z+2, r1	; 0x02
    4410:	15 82       	std	Z+5, r1	; 0x05
    4412:	14 82       	std	Z+4, r1	; 0x04
    4414:	61 15       	cp	r22, r1
    4416:	71 05       	cpc	r23, r1
    4418:	51 f0       	breq	.+20     	;  0x442e
    441a:	fb 01       	movw	r30, r22
    441c:	01 90       	ld	r0, Z+
    441e:	00 20       	and	r0, r0
    4420:	e9 f7       	brne	.-6      	;  0x441c
    4422:	31 97       	sbiw	r30, 0x01	; 1
    4424:	af 01       	movw	r20, r30
    4426:	46 1b       	sub	r20, r22
    4428:	57 0b       	sbc	r21, r23
    442a:	0c 94 e2 21 	jmp	0x43c4	;  0x43c4
    442e:	08 95       	ret
    4430:	ef 92       	push	r14
    4432:	ff 92       	push	r15
    4434:	0f 93       	push	r16
    4436:	1f 93       	push	r17
    4438:	cf 93       	push	r28
    443a:	df 93       	push	r29
    443c:	ec 01       	movw	r28, r24
    443e:	7b 01       	movw	r14, r22
    4440:	8a 01       	movw	r16, r20
    4442:	ba 01       	movw	r22, r20
    4444:	0e 94 c6 21 	call	0x438c	;  0x438c
    4448:	81 11       	cpse	r24, r1
    444a:	04 c0       	rjmp	.+8      	;  0x4454
    444c:	ce 01       	movw	r24, r28
    444e:	0e 94 9a 21 	call	0x4334	;  0x4334
    4452:	07 c0       	rjmp	.+14     	;  0x4462
    4454:	1d 83       	std	Y+5, r17	; 0x05
    4456:	0c 83       	std	Y+4, r16	; 0x04
    4458:	b7 01       	movw	r22, r14
    445a:	88 81       	ld	r24, Y
    445c:	99 81       	ldd	r25, Y+1	; 0x01
    445e:	0e 94 06 33 	call	0x660c	;  0x660c
    4462:	ce 01       	movw	r24, r28
    4464:	df 91       	pop	r29
    4466:	cf 91       	pop	r28
    4468:	1f 91       	pop	r17
    446a:	0f 91       	pop	r16
    446c:	ff 90       	pop	r15
    446e:	ef 90       	pop	r14
    4470:	08 95       	ret
    4472:	cf 93       	push	r28
    4474:	df 93       	push	r29
    4476:	ec 01       	movw	r28, r24
    4478:	fb 01       	movw	r30, r22
    447a:	86 17       	cp	r24, r22
    447c:	97 07       	cpc	r25, r23
    447e:	61 f0       	breq	.+24     	;  0x4498
    4480:	60 81       	ld	r22, Z
    4482:	71 81       	ldd	r23, Z+1	; 0x01
    4484:	61 15       	cp	r22, r1
    4486:	71 05       	cpc	r23, r1
    4488:	29 f0       	breq	.+10     	;  0x4494
    448a:	44 81       	ldd	r20, Z+4	; 0x04
    448c:	55 81       	ldd	r21, Z+5	; 0x05
    448e:	0e 94 e2 21 	call	0x43c4	;  0x43c4
    4492:	02 c0       	rjmp	.+4      	;  0x4498
    4494:	0e 94 9a 21 	call	0x4334	;  0x4334
    4498:	ce 01       	movw	r24, r28
    449a:	df 91       	pop	r29
    449c:	cf 91       	pop	r28
    449e:	08 95       	ret
    44a0:	fc 01       	movw	r30, r24
    44a2:	11 82       	std	Z+1, r1	; 0x01
    44a4:	10 82       	st	Z, r1
    44a6:	13 82       	std	Z+3, r1	; 0x03
    44a8:	12 82       	std	Z+2, r1	; 0x02
    44aa:	15 82       	std	Z+5, r1	; 0x05
    44ac:	14 82       	std	Z+4, r1	; 0x04
    44ae:	0c 94 39 22 	jmp	0x4472	;  0x4472
    44b2:	cf 93       	push	r28
    44b4:	df 93       	push	r29
    44b6:	ec 01       	movw	r28, r24
    44b8:	61 15       	cp	r22, r1
    44ba:	71 05       	cpc	r23, r1
    44bc:	59 f0       	breq	.+22     	;  0x44d4
    44be:	fb 01       	movw	r30, r22
    44c0:	01 90       	ld	r0, Z+
    44c2:	00 20       	and	r0, r0
    44c4:	e9 f7       	brne	.-6      	;  0x44c0
    44c6:	31 97       	sbiw	r30, 0x01	; 1
    44c8:	af 01       	movw	r20, r30
    44ca:	46 1b       	sub	r20, r22
    44cc:	57 0b       	sbc	r21, r23
    44ce:	0e 94 e2 21 	call	0x43c4	;  0x43c4
    44d2:	02 c0       	rjmp	.+4      	;  0x44d8
    44d4:	0e 94 9a 21 	call	0x4334	;  0x4334
    44d8:	ce 01       	movw	r24, r28
    44da:	df 91       	pop	r29
    44dc:	cf 91       	pop	r28
    44de:	08 95       	ret
    44e0:	0f 93       	push	r16
    44e2:	1f 93       	push	r17
    44e4:	cf 93       	push	r28
    44e6:	df 93       	push	r29
    44e8:	00 d0       	rcall	.+0      	;  0x44ea
    44ea:	cd b7       	in	r28, 0x3d	; 61
    44ec:	de b7       	in	r29, 0x3e	; 62
    44ee:	8c 01       	movw	r16, r24
    44f0:	61 15       	cp	r22, r1
    44f2:	71 05       	cpc	r23, r1
    44f4:	61 f0       	breq	.+24     	;  0x450e
    44f6:	cb 01       	movw	r24, r22
    44f8:	69 83       	std	Y+1, r22	; 0x01
    44fa:	7a 83       	std	Y+2, r23	; 0x02
    44fc:	0e 94 0d 33 	call	0x661a	;  0x661a
    4500:	ac 01       	movw	r20, r24
    4502:	69 81       	ldd	r22, Y+1	; 0x01
    4504:	7a 81       	ldd	r23, Y+2	; 0x02
    4506:	c8 01       	movw	r24, r16
    4508:	0e 94 18 22 	call	0x4430	;  0x4430
    450c:	02 c0       	rjmp	.+4      	;  0x4512
    450e:	0e 94 9a 21 	call	0x4334	;  0x4334
    4512:	c8 01       	movw	r24, r16
    4514:	0f 90       	pop	r0
    4516:	0f 90       	pop	r0
    4518:	df 91       	pop	r29
    451a:	cf 91       	pop	r28
    451c:	1f 91       	pop	r17
    451e:	0f 91       	pop	r16
    4520:	08 95       	ret
    4522:	fc 01       	movw	r30, r24
    4524:	11 82       	std	Z+1, r1	; 0x01
    4526:	10 82       	st	Z, r1
    4528:	13 82       	std	Z+3, r1	; 0x03
    452a:	12 82       	std	Z+2, r1	; 0x02
    452c:	15 82       	std	Z+5, r1	; 0x05
    452e:	14 82       	std	Z+4, r1	; 0x04
    4530:	0c 94 70 22 	jmp	0x44e0	;  0x44e0
    4534:	ef 92       	push	r14
    4536:	ff 92       	push	r15
    4538:	0f 93       	push	r16
    453a:	1f 93       	push	r17
    453c:	cf 93       	push	r28
    453e:	df 93       	push	r29
    4540:	fc 01       	movw	r30, r24
    4542:	24 81       	ldd	r18, Z+4	; 0x04
    4544:	35 81       	ldd	r19, Z+5	; 0x05
    4546:	61 15       	cp	r22, r1
    4548:	71 05       	cpc	r23, r1
    454a:	11 f4       	brne	.+4      	;  0x4550
    454c:	80 e0       	ldi	r24, 0x00	; 0
    454e:	19 c0       	rjmp	.+50     	;  0x4582
    4550:	41 15       	cp	r20, r1
    4552:	51 05       	cpc	r21, r1
    4554:	a9 f0       	breq	.+42     	;  0x4580
    4556:	7b 01       	movw	r14, r22
    4558:	ec 01       	movw	r28, r24
    455a:	8a 01       	movw	r16, r20
    455c:	02 0f       	add	r16, r18
    455e:	13 1f       	adc	r17, r19
    4560:	b8 01       	movw	r22, r16
    4562:	0e 94 c6 21 	call	0x438c	;  0x438c
    4566:	88 23       	and	r24, r24
    4568:	89 f3       	breq	.-30     	;  0x454c
    456a:	28 81       	ld	r18, Y
    456c:	39 81       	ldd	r19, Y+1	; 0x01
    456e:	8c 81       	ldd	r24, Y+4	; 0x04
    4570:	9d 81       	ldd	r25, Y+5	; 0x05
    4572:	b7 01       	movw	r22, r14
    4574:	82 0f       	add	r24, r18
    4576:	93 1f       	adc	r25, r19
    4578:	0e 94 1f 33 	call	0x663e	;  0x663e
    457c:	1d 83       	std	Y+5, r17	; 0x05
    457e:	0c 83       	std	Y+4, r16	; 0x04
    4580:	81 e0       	ldi	r24, 0x01	; 1
    4582:	df 91       	pop	r29
    4584:	cf 91       	pop	r28
    4586:	1f 91       	pop	r17
    4588:	0f 91       	pop	r16
    458a:	ff 90       	pop	r15
    458c:	ef 90       	pop	r14
    458e:	08 95       	ret
    4590:	cf 93       	push	r28
    4592:	df 93       	push	r29
    4594:	00 d0       	rcall	.+0      	;  0x4596
    4596:	cd b7       	in	r28, 0x3d	; 61
    4598:	de b7       	in	r29, 0x3e	; 62
    459a:	69 83       	std	Y+1, r22	; 0x01
    459c:	1a 82       	std	Y+2, r1	; 0x02
    459e:	41 e0       	ldi	r20, 0x01	; 1
    45a0:	50 e0       	ldi	r21, 0x00	; 0
    45a2:	be 01       	movw	r22, r28
    45a4:	6f 5f       	subi	r22, 0xFF	; 255
    45a6:	7f 4f       	sbci	r23, 0xFF	; 255
    45a8:	0e 94 9a 22 	call	0x4534	;  0x4534
    45ac:	0f 90       	pop	r0
    45ae:	0f 90       	pop	r0
    45b0:	df 91       	pop	r29
    45b2:	cf 91       	pop	r28
    45b4:	08 95       	ret
    45b6:	cf 93       	push	r28
    45b8:	df 93       	push	r29
    45ba:	ec 01       	movw	r28, r24
    45bc:	fb 01       	movw	r30, r22
    45be:	44 81       	ldd	r20, Z+4	; 0x04
    45c0:	55 81       	ldd	r21, Z+5	; 0x05
    45c2:	60 81       	ld	r22, Z
    45c4:	71 81       	ldd	r23, Z+1	; 0x01
    45c6:	0e 94 9a 22 	call	0x4534	;  0x4534
    45ca:	81 11       	cpse	r24, r1
    45cc:	03 c0       	rjmp	.+6      	;  0x45d4
    45ce:	ce 01       	movw	r24, r28
    45d0:	0e 94 9a 21 	call	0x4334	;  0x4334
    45d4:	ce 01       	movw	r24, r28
    45d6:	df 91       	pop	r29
    45d8:	cf 91       	pop	r28
    45da:	08 95       	ret
    45dc:	20 91 ec 05 	lds	r18, 0x05EC
    45e0:	30 91 ed 05 	lds	r19, 0x05ED
    45e4:	28 17       	cp	r18, r24
    45e6:	39 07       	cpc	r19, r25
    45e8:	b9 f4       	brne	.+46     	;  0x4618
    45ea:	90 91 aa 05 	lds	r25, 0x05AA
    45ee:	80 91 ab 05 	lds	r24, 0x05AB
    45f2:	98 17       	cp	r25, r24
    45f4:	89 f0       	breq	.+34     	;  0x4618
    45f6:	e0 91 aa 05 	lds	r30, 0x05AA
    45fa:	f0 e0       	ldi	r31, 0x00	; 0
    45fc:	e4 55       	subi	r30, 0x54	; 84
    45fe:	fa 4f       	sbci	r31, 0xFA	; 250
    4600:	80 81       	ld	r24, Z
    4602:	20 91 aa 05 	lds	r18, 0x05AA
    4606:	30 e0       	ldi	r19, 0x00	; 0
    4608:	2f 5f       	subi	r18, 0xFF	; 255
    460a:	3f 4f       	sbci	r19, 0xFF	; 255
    460c:	2f 73       	andi	r18, 0x3F	; 63
    460e:	33 27       	eor	r19, r19
    4610:	20 93 aa 05 	sts	0x05AA, r18
    4614:	90 e0       	ldi	r25, 0x00	; 0
    4616:	08 95       	ret
    4618:	8f ef       	ldi	r24, 0xFF	; 255
    461a:	9f ef       	ldi	r25, 0xFF	; 255
    461c:	08 95       	ret
    461e:	1f 93       	push	r17
    4620:	cf 93       	push	r28
    4622:	df 93       	push	r29
    4624:	dc 01       	movw	r26, r24
    4626:	5c 96       	adiw	r26, 0x1c	; 28
    4628:	2d 91       	ld	r18, X+
    462a:	3c 91       	ld	r19, X
    462c:	5d 97       	sbiw	r26, 0x1d	; 29
    462e:	21 15       	cp	r18, r1
    4630:	31 05       	cpc	r19, r1
    4632:	39 f4       	brne	.+14     	;  0x4642
    4634:	81 e0       	ldi	r24, 0x01	; 1
    4636:	90 e0       	ldi	r25, 0x00	; 0
    4638:	13 96       	adiw	r26, 0x03	; 3
    463a:	9c 93       	st	X, r25
    463c:	8e 93       	st	-X, r24
    463e:	12 97       	sbiw	r26, 0x02	; 2
    4640:	3d c0       	rjmp	.+122    	;  0x46bc
    4642:	51 96       	adiw	r26, 0x11	; 17
    4644:	ed 91       	ld	r30, X+
    4646:	fc 91       	ld	r31, X
    4648:	52 97       	sbiw	r26, 0x12	; 18
    464a:	50 96       	adiw	r26, 0x10	; 16
    464c:	9c 91       	ld	r25, X
    464e:	50 97       	sbiw	r26, 0x10	; 16
    4650:	89 2f       	mov	r24, r25
    4652:	80 95       	com	r24
    4654:	1f b7       	in	r17, 0x3f	; 63
    4656:	5e 96       	adiw	r26, 0x1e	; 30
    4658:	4c 91       	ld	r20, X
    465a:	5e 97       	sbiw	r26, 0x1e	; 30
    465c:	41 fb       	bst	r20, 1
    465e:	77 27       	eor	r23, r23
    4660:	70 f9       	bld	r23, 0
    4662:	41 fd       	sbrc	r20, 1
    4664:	60 95       	com	r22
    4666:	f8 94       	cli
    4668:	40 81       	ld	r20, Z
    466a:	77 23       	and	r23, r23
    466c:	11 f0       	breq	.+4      	;  0x4672
    466e:	49 2b       	or	r20, r25
    4670:	01 c0       	rjmp	.+2      	;  0x4674
    4672:	48 23       	and	r20, r24
    4674:	40 83       	st	Z, r20
    4676:	e9 01       	movw	r28, r18
    4678:	21 97       	sbiw	r28, 0x01	; 1
    467a:	f1 f7       	brne	.-4      	;  0x4678
    467c:	48 e0       	ldi	r20, 0x08	; 8
    467e:	50 81       	ld	r21, Z
    4680:	60 ff       	sbrs	r22, 0
    4682:	02 c0       	rjmp	.+4      	;  0x4688
    4684:	59 2b       	or	r21, r25
    4686:	01 c0       	rjmp	.+2      	;  0x468a
    4688:	58 23       	and	r21, r24
    468a:	50 83       	st	Z, r21
    468c:	e9 01       	movw	r28, r18
    468e:	21 97       	sbiw	r28, 0x01	; 1
    4690:	f1 f7       	brne	.-4      	;  0x468e
    4692:	66 95       	lsr	r22
    4694:	41 50       	subi	r20, 0x01	; 1
    4696:	99 f7       	brne	.-26     	;  0x467e
    4698:	77 23       	and	r23, r23
    469a:	21 f0       	breq	.+8      	;  0x46a4
    469c:	90 81       	ld	r25, Z
    469e:	89 23       	and	r24, r25
    46a0:	80 83       	st	Z, r24
    46a2:	03 c0       	rjmp	.+6      	;  0x46aa
    46a4:	80 81       	ld	r24, Z
    46a6:	98 2b       	or	r25, r24
    46a8:	90 83       	st	Z, r25
    46aa:	1f bf       	out	0x3f, r17	; 63
    46ac:	5c 96       	adiw	r26, 0x1c	; 28
    46ae:	8d 91       	ld	r24, X+
    46b0:	9c 91       	ld	r25, X
    46b2:	5d 97       	sbiw	r26, 0x1d	; 29
    46b4:	01 97       	sbiw	r24, 0x01	; 1
    46b6:	f1 f7       	brne	.-4      	;  0x46b4
    46b8:	21 e0       	ldi	r18, 0x01	; 1
    46ba:	30 e0       	ldi	r19, 0x00	; 0
    46bc:	c9 01       	movw	r24, r18
    46be:	df 91       	pop	r29
    46c0:	cf 91       	pop	r28
    46c2:	1f 91       	pop	r17
    46c4:	08 95       	ret
    46c6:	08 95       	ret
    46c8:	20 91 ec 05 	lds	r18, 0x05EC
    46cc:	30 91 ed 05 	lds	r19, 0x05ED
    46d0:	28 17       	cp	r18, r24
    46d2:	39 07       	cpc	r19, r25
    46d4:	71 f4       	brne	.+28     	;  0x46f2
    46d6:	90 91 aa 05 	lds	r25, 0x05AA
    46da:	80 91 ab 05 	lds	r24, 0x05AB
    46de:	98 17       	cp	r25, r24
    46e0:	41 f0       	breq	.+16     	;  0x46f2
    46e2:	e0 91 aa 05 	lds	r30, 0x05AA
    46e6:	f0 e0       	ldi	r31, 0x00	; 0
    46e8:	e4 55       	subi	r30, 0x54	; 84
    46ea:	fa 4f       	sbci	r31, 0xFA	; 250
    46ec:	80 81       	ld	r24, Z
    46ee:	90 e0       	ldi	r25, 0x00	; 0
    46f0:	08 95       	ret
    46f2:	8f ef       	ldi	r24, 0xFF	; 255
    46f4:	9f ef       	ldi	r25, 0xFF	; 255
    46f6:	08 95       	ret
    46f8:	80 91 87 05 	lds	r24, 0x0587
    46fc:	90 e0       	ldi	r25, 0x00	; 0
    46fe:	20 91 88 05 	lds	r18, 0x0588
    4702:	82 1b       	sub	r24, r18
    4704:	91 09       	sbc	r25, r1
    4706:	08 95       	ret
    4708:	90 91 88 05 	lds	r25, 0x0588
    470c:	80 91 87 05 	lds	r24, 0x0587
    4710:	98 17       	cp	r25, r24
    4712:	50 f4       	brcc	.+20     	;  0x4728
    4714:	e9 2f       	mov	r30, r25
    4716:	f0 e0       	ldi	r31, 0x00	; 0
    4718:	e7 57       	subi	r30, 0x77	; 119
    471a:	fa 4f       	sbci	r31, 0xFA	; 250
    471c:	20 81       	ld	r18, Z
    471e:	30 e0       	ldi	r19, 0x00	; 0
    4720:	9f 5f       	subi	r25, 0xFF	; 255
    4722:	90 93 88 05 	sts	0x0588, r25
    4726:	02 c0       	rjmp	.+4      	;  0x472c
    4728:	2f ef       	ldi	r18, 0xFF	; 255
    472a:	3f ef       	ldi	r19, 0xFF	; 255
    472c:	c9 01       	movw	r24, r18
    472e:	08 95       	ret
    4730:	e0 91 88 05 	lds	r30, 0x0588
    4734:	80 91 87 05 	lds	r24, 0x0587
    4738:	e8 17       	cp	r30, r24
    473a:	30 f4       	brcc	.+12     	;  0x4748
    473c:	f0 e0       	ldi	r31, 0x00	; 0
    473e:	e7 57       	subi	r30, 0x77	; 119
    4740:	fa 4f       	sbci	r31, 0xFA	; 250
    4742:	80 81       	ld	r24, Z
    4744:	90 e0       	ldi	r25, 0x00	; 0
    4746:	08 95       	ret
    4748:	8f ef       	ldi	r24, 0xFF	; 255
    474a:	9f ef       	ldi	r25, 0xFF	; 255
    474c:	08 95       	ret
    474e:	08 95       	ret
    4750:	20 91 ec 05 	lds	r18, 0x05EC
    4754:	30 91 ed 05 	lds	r19, 0x05ED
    4758:	28 17       	cp	r18, r24
    475a:	39 07       	cpc	r19, r25
    475c:	71 f4       	brne	.+28     	;  0x477a
    475e:	80 91 ab 05 	lds	r24, 0x05AB
    4762:	20 91 aa 05 	lds	r18, 0x05AA
    4766:	90 e0       	ldi	r25, 0x00	; 0
    4768:	80 5c       	subi	r24, 0xC0	; 192
    476a:	9f 4f       	sbci	r25, 0xFF	; 255
    476c:	82 1b       	sub	r24, r18
    476e:	91 09       	sbc	r25, r1
    4770:	60 e4       	ldi	r22, 0x40	; 64
    4772:	70 e0       	ldi	r23, 0x00	; 0
    4774:	0e 94 a6 30 	call	0x614c	;  0x614c
    4778:	08 95       	ret
    477a:	80 e0       	ldi	r24, 0x00	; 0
    477c:	90 e0       	ldi	r25, 0x00	; 0
    477e:	08 95       	ret
    4780:	e0 91 ec 05 	lds	r30, 0x05EC
    4784:	f0 91 ed 05 	lds	r31, 0x05ED
    4788:	e8 17       	cp	r30, r24
    478a:	f9 07       	cpc	r31, r25
    478c:	69 f4       	brne	.+26     	;  0x47a8
    478e:	a3 89       	ldd	r26, Z+19	; 0x13
    4790:	b4 89       	ldd	r27, Z+20	; 0x14
    4792:	9c 91       	ld	r25, X
    4794:	85 89       	ldd	r24, Z+21	; 0x15
    4796:	80 95       	com	r24
    4798:	89 23       	and	r24, r25
    479a:	8c 93       	st	X, r24
    479c:	10 92 ed 05 	sts	0x05ED, r1
    47a0:	10 92 ec 05 	sts	0x05EC, r1
    47a4:	81 e0       	ldi	r24, 0x01	; 1
    47a6:	08 95       	ret
    47a8:	80 e0       	ldi	r24, 0x00	; 0
    47aa:	08 95       	ret
    47ac:	cf 93       	push	r28
    47ae:	df 93       	push	r29
    47b0:	ec 01       	movw	r28, r24
    47b2:	8a 8d       	ldd	r24, Y+26	; 0x1a
    47b4:	9b 8d       	ldd	r25, Y+27	; 0x1b
    47b6:	89 2b       	or	r24, r25
    47b8:	f1 f0       	breq	.+60     	;  0x47f6
    47ba:	80 91 ec 05 	lds	r24, 0x05EC
    47be:	90 91 ed 05 	lds	r25, 0x05ED
    47c2:	8c 17       	cp	r24, r28
    47c4:	9d 07       	cpc	r25, r29
    47c6:	b9 f0       	breq	.+46     	;  0x47f6
    47c8:	00 97       	sbiw	r24, 0x00	; 0
    47ca:	11 f0       	breq	.+4      	;  0x47d0
    47cc:	0e 94 c0 23 	call	0x4780	;  0x4780
    47d0:	8e 8d       	ldd	r24, Y+30	; 0x1e
    47d2:	8e 7f       	andi	r24, 0xFE	; 254
    47d4:	8e 8f       	std	Y+30, r24	; 0x1e
    47d6:	10 92 ab 05 	sts	0x05AB, r1
    47da:	10 92 aa 05 	sts	0x05AA, r1
    47de:	d0 93 ed 05 	sts	0x05ED, r29
    47e2:	c0 93 ec 05 	sts	0x05EC, r28
    47e6:	eb 89       	ldd	r30, Y+19	; 0x13
    47e8:	fc 89       	ldd	r31, Y+20	; 0x14
    47ea:	90 81       	ld	r25, Z
    47ec:	8d 89       	ldd	r24, Y+21	; 0x15
    47ee:	89 2b       	or	r24, r25
    47f0:	80 83       	st	Z, r24
    47f2:	81 e0       	ldi	r24, 0x01	; 1
    47f4:	01 c0       	rjmp	.+2      	;  0x47f8
    47f6:	80 e0       	ldi	r24, 0x00	; 0
    47f8:	df 91       	pop	r29
    47fa:	cf 91       	pop	r28
    47fc:	08 95       	ret
    47fe:	1f 92       	push	r1
    4800:	0f 92       	push	r0
    4802:	0f b6       	in	r0, 0x3f	; 63
    4804:	0f 92       	push	r0
    4806:	11 24       	eor	r1, r1
    4808:	2f 93       	push	r18
    480a:	3f 93       	push	r19
    480c:	4f 93       	push	r20
    480e:	5f 93       	push	r21
    4810:	6f 93       	push	r22
    4812:	7f 93       	push	r23
    4814:	8f 93       	push	r24
    4816:	9f 93       	push	r25
    4818:	af 93       	push	r26
    481a:	bf 93       	push	r27
    481c:	ef 93       	push	r30
    481e:	ff 93       	push	r31
    4820:	e0 91 ec 05 	lds	r30, 0x05EC
    4824:	f0 91 ed 05 	lds	r31, 0x05ED
    4828:	30 97       	sbiw	r30, 0x00	; 0
    482a:	09 f4       	brne	.+2      	;  0x482e
    482c:	51 c0       	rjmp	.+162    	;  0x48d0
    482e:	96 8d       	ldd	r25, Z+30	; 0x1e
    4830:	a6 85       	ldd	r26, Z+14	; 0x0e
    4832:	b7 85       	ldd	r27, Z+15	; 0x0f
    4834:	85 85       	ldd	r24, Z+13	; 0x0d
    4836:	91 ff       	sbrs	r25, 1
    4838:	04 c0       	rjmp	.+8      	;  0x4842
    483a:	9c 91       	ld	r25, X
    483c:	89 23       	and	r24, r25
    483e:	29 f4       	brne	.+10     	;  0x484a
    4840:	47 c0       	rjmp	.+142    	;  0x48d0
    4842:	9c 91       	ld	r25, X
    4844:	89 23       	and	r24, r25
    4846:	09 f0       	breq	.+2      	;  0x484a
    4848:	43 c0       	rjmp	.+134    	;  0x48d0
    484a:	a3 89       	ldd	r26, Z+19	; 0x13
    484c:	b4 89       	ldd	r27, Z+20	; 0x14
    484e:	9c 91       	ld	r25, X
    4850:	85 89       	ldd	r24, Z+21	; 0x15
    4852:	80 95       	com	r24
    4854:	89 23       	and	r24, r25
    4856:	8c 93       	st	X, r24
    4858:	86 89       	ldd	r24, Z+22	; 0x16
    485a:	97 89       	ldd	r25, Z+23	; 0x17
    485c:	01 97       	sbiw	r24, 0x01	; 1
    485e:	f1 f7       	brne	.-4      	;  0x485c
    4860:	60 8d       	ldd	r22, Z+24	; 0x18
    4862:	71 8d       	ldd	r23, Z+25	; 0x19
    4864:	a6 85       	ldd	r26, Z+14	; 0x0e
    4866:	b7 85       	ldd	r27, Z+15	; 0x0f
    4868:	55 85       	ldd	r21, Z+13	; 0x0d
    486a:	38 e0       	ldi	r19, 0x08	; 8
    486c:	20 e0       	ldi	r18, 0x00	; 0
    486e:	cb 01       	movw	r24, r22
    4870:	01 97       	sbiw	r24, 0x01	; 1
    4872:	f1 f7       	brne	.-4      	;  0x4870
    4874:	82 2f       	mov	r24, r18
    4876:	90 e0       	ldi	r25, 0x00	; 0
    4878:	95 95       	asr	r25
    487a:	87 95       	ror	r24
    487c:	28 2f       	mov	r18, r24
    487e:	4c 91       	ld	r20, X
    4880:	45 23       	and	r20, r21
    4882:	09 f0       	breq	.+2      	;  0x4886
    4884:	20 68       	ori	r18, 0x80	; 128
    4886:	31 50       	subi	r19, 0x01	; 1
    4888:	91 f7       	brne	.-28     	;  0x486e
    488a:	86 8d       	ldd	r24, Z+30	; 0x1e
    488c:	81 fd       	sbrc	r24, 1
    488e:	20 95       	com	r18
    4890:	80 91 ab 05 	lds	r24, 0x05AB
    4894:	90 e0       	ldi	r25, 0x00	; 0
    4896:	01 96       	adiw	r24, 0x01	; 1
    4898:	8f 73       	andi	r24, 0x3F	; 63
    489a:	99 27       	eor	r25, r25
    489c:	30 91 aa 05 	lds	r19, 0x05AA
    48a0:	38 17       	cp	r19, r24
    48a2:	49 f0       	breq	.+18     	;  0x48b6
    48a4:	a0 91 ab 05 	lds	r26, 0x05AB
    48a8:	b0 e0       	ldi	r27, 0x00	; 0
    48aa:	a4 55       	subi	r26, 0x54	; 84
    48ac:	ba 4f       	sbci	r27, 0xFA	; 250
    48ae:	2c 93       	st	X, r18
    48b0:	80 93 ab 05 	sts	0x05AB, r24
    48b4:	03 c0       	rjmp	.+6      	;  0x48bc
    48b6:	86 8d       	ldd	r24, Z+30	; 0x1e
    48b8:	81 60       	ori	r24, 0x01	; 1
    48ba:	86 8f       	std	Z+30, r24	; 0x1e
    48bc:	82 8d       	ldd	r24, Z+26	; 0x1a
    48be:	93 8d       	ldd	r25, Z+27	; 0x1b
    48c0:	01 97       	sbiw	r24, 0x01	; 1
    48c2:	f1 f7       	brne	.-4      	;  0x48c0
    48c4:	a3 89       	ldd	r26, Z+19	; 0x13
    48c6:	b4 89       	ldd	r27, Z+20	; 0x14
    48c8:	9c 91       	ld	r25, X
    48ca:	85 89       	ldd	r24, Z+21	; 0x15
    48cc:	89 2b       	or	r24, r25
    48ce:	8c 93       	st	X, r24
    48d0:	ff 91       	pop	r31
    48d2:	ef 91       	pop	r30
    48d4:	bf 91       	pop	r27
    48d6:	af 91       	pop	r26
    48d8:	9f 91       	pop	r25
    48da:	8f 91       	pop	r24
    48dc:	7f 91       	pop	r23
    48de:	6f 91       	pop	r22
    48e0:	5f 91       	pop	r21
    48e2:	4f 91       	pop	r20
    48e4:	3f 91       	pop	r19
    48e6:	2f 91       	pop	r18
    48e8:	0f 90       	pop	r0
    48ea:	0f be       	out	0x3f, r0	; 63
    48ec:	0f 90       	pop	r0
    48ee:	1f 90       	pop	r1
    48f0:	18 95       	reti
    48f2:	24 ec       	ldi	r18, 0xC4	; 196
    48f4:	31 e0       	ldi	r19, 0x01	; 1
    48f6:	fc 01       	movw	r30, r24
    48f8:	31 83       	std	Z+1, r19	; 0x01
    48fa:	20 83       	st	Z, r18
    48fc:	0c 94 c0 23 	jmp	0x4780	;  0x4780
    4900:	1f 93       	push	r17
    4902:	cf 93       	push	r28
    4904:	df 93       	push	r29
    4906:	ec 01       	movw	r28, r24
    4908:	16 2f       	mov	r17, r22
    490a:	6e 8d       	ldd	r22, Y+30	; 0x1e
    490c:	66 95       	lsr	r22
    490e:	61 70       	andi	r22, 0x01	; 1
    4910:	81 e0       	ldi	r24, 0x01	; 1
    4912:	68 27       	eor	r22, r24
    4914:	81 2f       	mov	r24, r17
    4916:	0e 94 17 21 	call	0x422e	;  0x422e
    491a:	61 e0       	ldi	r22, 0x01	; 1
    491c:	81 2f       	mov	r24, r17
    491e:	0e 94 db 20 	call	0x41b6	;  0x41b6
    4922:	61 2f       	mov	r22, r17
    4924:	70 e0       	ldi	r23, 0x00	; 0
    4926:	fb 01       	movw	r30, r22
    4928:	e8 50       	subi	r30, 0x08	; 8
    492a:	fc 4f       	sbci	r31, 0xFC	; 252
    492c:	e4 91       	lpm	r30, Z
    492e:	e8 8b       	std	Y+16, r30	; 0x10
    4930:	fb 01       	movw	r30, r22
    4932:	e9 5e       	subi	r30, 0xE9	; 233
    4934:	fb 4f       	sbci	r31, 0xFB	; 251
    4936:	e4 91       	lpm	r30, Z
    4938:	f0 e0       	ldi	r31, 0x00	; 0
    493a:	ee 0f       	add	r30, r30
    493c:	ff 1f       	adc	r31, r31
    493e:	ec 5b       	subi	r30, 0xBC	; 188
    4940:	fb 4f       	sbci	r31, 0xFB	; 251
    4942:	85 91       	lpm	r24, Z+
    4944:	94 91       	lpm	r25, Z
    4946:	9a 8b       	std	Y+18, r25	; 0x12
    4948:	89 8b       	std	Y+17, r24	; 0x11
    494a:	df 91       	pop	r29
    494c:	cf 91       	pop	r28
    494e:	1f 91       	pop	r17
    4950:	08 95       	ret
    4952:	1f 93       	push	r17
    4954:	cf 93       	push	r28
    4956:	df 93       	push	r29
    4958:	ec 01       	movw	r28, r24
    495a:	16 2f       	mov	r17, r22
    495c:	60 e0       	ldi	r22, 0x00	; 0
    495e:	81 2f       	mov	r24, r17
    4960:	0e 94 db 20 	call	0x41b6	;  0x41b6
    4964:	8e 8d       	ldd	r24, Y+30	; 0x1e
    4966:	81 fd       	sbrc	r24, 1
    4968:	04 c0       	rjmp	.+8      	;  0x4972
    496a:	61 e0       	ldi	r22, 0x01	; 1
    496c:	81 2f       	mov	r24, r17
    496e:	0e 94 17 21 	call	0x422e	;  0x422e
    4972:	1c 87       	std	Y+12, r17	; 0x0c
    4974:	61 2f       	mov	r22, r17
    4976:	70 e0       	ldi	r23, 0x00	; 0
    4978:	fb 01       	movw	r30, r22
    497a:	e8 50       	subi	r30, 0x08	; 8
    497c:	fc 4f       	sbci	r31, 0xFC	; 252
    497e:	e4 91       	lpm	r30, Z
    4980:	ed 87       	std	Y+13, r30	; 0x0d
    4982:	fb 01       	movw	r30, r22
    4984:	e9 5e       	subi	r30, 0xE9	; 233
    4986:	fb 4f       	sbci	r31, 0xFB	; 251
    4988:	e4 91       	lpm	r30, Z
    498a:	f0 e0       	ldi	r31, 0x00	; 0
    498c:	ee 0f       	add	r30, r30
    498e:	ff 1f       	adc	r31, r31
    4990:	ea 5c       	subi	r30, 0xCA	; 202
    4992:	fb 4f       	sbci	r31, 0xFB	; 251
    4994:	85 91       	lpm	r24, Z+
    4996:	94 91       	lpm	r25, Z
    4998:	9f 87       	std	Y+15, r25	; 0x0f
    499a:	8e 87       	std	Y+14, r24	; 0x0e
    499c:	df 91       	pop	r29
    499e:	cf 91       	pop	r28
    49a0:	1f 91       	pop	r17
    49a2:	08 95       	ret
    49a4:	1f 93       	push	r17
    49a6:	cf 93       	push	r28
    49a8:	df 93       	push	r29
    49aa:	ec 01       	movw	r28, r24
    49ac:	16 2f       	mov	r17, r22
    49ae:	1b 82       	std	Y+3, r1	; 0x03
    49b0:	1a 82       	std	Y+2, r1	; 0x02
    49b2:	88 ee       	ldi	r24, 0xE8	; 232
    49b4:	93 e0       	ldi	r25, 0x03	; 3
    49b6:	a0 e0       	ldi	r26, 0x00	; 0
    49b8:	b0 e0       	ldi	r27, 0x00	; 0
    49ba:	8c 83       	std	Y+4, r24	; 0x04
    49bc:	9d 83       	std	Y+5, r25	; 0x05
    49be:	ae 83       	std	Y+6, r26	; 0x06
    49c0:	bf 83       	std	Y+7, r27	; 0x07
    49c2:	84 ec       	ldi	r24, 0xC4	; 196
    49c4:	91 e0       	ldi	r25, 0x01	; 1
    49c6:	99 83       	std	Y+1, r25	; 0x01
    49c8:	88 83       	st	Y, r24
    49ca:	1f 8a       	std	Y+23, r1	; 0x17
    49cc:	1e 8a       	std	Y+22, r1	; 0x16
    49ce:	19 8e       	std	Y+25, r1	; 0x19
    49d0:	18 8e       	std	Y+24, r1	; 0x18
    49d2:	1b 8e       	std	Y+27, r1	; 0x1b
    49d4:	1a 8e       	std	Y+26, r1	; 0x1a
    49d6:	1d 8e       	std	Y+29, r1	; 0x1d
    49d8:	1c 8e       	std	Y+28, r1	; 0x1c
    49da:	8e 8d       	ldd	r24, Y+30	; 0x1e
    49dc:	8e 7f       	andi	r24, 0xFE	; 254
    49de:	20 fb       	bst	r18, 0
    49e0:	81 f9       	bld	r24, 1
    49e2:	8e 8f       	std	Y+30, r24	; 0x1e
    49e4:	64 2f       	mov	r22, r20
    49e6:	ce 01       	movw	r24, r28
    49e8:	0e 94 80 24 	call	0x4900	;  0x4900
    49ec:	61 2f       	mov	r22, r17
    49ee:	ce 01       	movw	r24, r28
    49f0:	df 91       	pop	r29
    49f2:	cf 91       	pop	r28
    49f4:	1f 91       	pop	r17
    49f6:	0c 94 a9 24 	jmp	0x4952	;  0x4952
    49fa:	cf 93       	push	r28
    49fc:	df 93       	push	r29
    49fe:	ec 01       	movw	r28, r24
    4a00:	9a 01       	movw	r18, r20
    4a02:	ab 01       	movw	r20, r22
    4a04:	1b 8e       	std	Y+27, r1	; 0x1b
    4a06:	1a 8e       	std	Y+26, r1	; 0x1a
    4a08:	19 8e       	std	Y+25, r1	; 0x19
    4a0a:	18 8e       	std	Y+24, r1	; 0x18
    4a0c:	1f 8a       	std	Y+23, r1	; 0x17
    4a0e:	1e 8a       	std	Y+22, r1	; 0x16
    4a10:	60 e0       	ldi	r22, 0x00	; 0
    4a12:	79 e0       	ldi	r23, 0x09	; 9
    4a14:	8d e3       	ldi	r24, 0x3D	; 61
    4a16:	90 e0       	ldi	r25, 0x00	; 0
    4a18:	0e 94 dc 30 	call	0x61b8	;  0x61b8
    4a1c:	f9 01       	movw	r30, r18
    4a1e:	24 30       	cpi	r18, 0x04	; 4
    4a20:	31 05       	cpc	r19, r1
    4a22:	18 f0       	brcs	.+6      	;  0x4a2a
    4a24:	c9 01       	movw	r24, r18
    4a26:	03 97       	sbiw	r24, 0x03	; 3
    4a28:	02 c0       	rjmp	.+4      	;  0x4a2e
    4a2a:	81 e0       	ldi	r24, 0x01	; 1
    4a2c:	90 e0       	ldi	r25, 0x00	; 0
    4a2e:	9d 8f       	std	Y+29, r25	; 0x1d
    4a30:	8c 8f       	std	Y+28, r24	; 0x1c
    4a32:	8c 85       	ldd	r24, Y+12	; 0x0c
    4a34:	98 ef       	ldi	r25, 0xF8	; 248
    4a36:	98 0f       	add	r25, r24
    4a38:	94 30       	cpi	r25, 0x04	; 4
    4a3a:	48 f0       	brcs	.+18     	;  0x4a4e
    4a3c:	62 ef       	ldi	r22, 0xF2	; 242
    4a3e:	68 0f       	add	r22, r24
    4a40:	64 30       	cpi	r22, 0x04	; 4
    4a42:	28 f0       	brcs	.+10     	;  0x4a4e
    4a44:	66 ee       	ldi	r22, 0xE6	; 230
    4a46:	68 0f       	add	r22, r24
    4a48:	63 30       	cpi	r22, 0x03	; 3
    4a4a:	08 f0       	brcs	.+2      	;  0x4a4e
    4a4c:	71 c0       	rjmp	.+226    	;  0x4b30
    4a4e:	b9 01       	movw	r22, r18
    4a50:	76 95       	lsr	r23
    4a52:	67 95       	ror	r22
    4a54:	64 31       	cpi	r22, 0x14	; 20
    4a56:	71 05       	cpc	r23, r1
    4a58:	18 f0       	brcs	.+6      	;  0x4a60
    4a5a:	63 51       	subi	r22, 0x13	; 19
    4a5c:	71 09       	sbc	r23, r1
    4a5e:	02 c0       	rjmp	.+4      	;  0x4a64
    4a60:	61 e0       	ldi	r22, 0x01	; 1
    4a62:	70 e0       	ldi	r23, 0x00	; 0
    4a64:	7f 8b       	std	Y+23, r23	; 0x17
    4a66:	6e 8b       	std	Y+22, r22	; 0x16
    4a68:	36 97       	sbiw	r30, 0x06	; 6
    4a6a:	20 f0       	brcs	.+8      	;  0x4a74
    4a6c:	b9 01       	movw	r22, r18
    4a6e:	65 50       	subi	r22, 0x05	; 5
    4a70:	71 09       	sbc	r23, r1
    4a72:	02 c0       	rjmp	.+4      	;  0x4a78
    4a74:	61 e0       	ldi	r22, 0x01	; 1
    4a76:	70 e0       	ldi	r23, 0x00	; 0
    4a78:	79 8f       	std	Y+25, r23	; 0x19
    4a7a:	68 8f       	std	Y+24, r22	; 0x18
    4a7c:	b9 01       	movw	r22, r18
    4a7e:	66 0f       	add	r22, r22
    4a80:	77 1f       	adc	r23, r23
    4a82:	26 0f       	add	r18, r22
    4a84:	37 1f       	adc	r19, r23
    4a86:	36 95       	lsr	r19
    4a88:	27 95       	ror	r18
    4a8a:	36 95       	lsr	r19
    4a8c:	27 95       	ror	r18
    4a8e:	2d 30       	cpi	r18, 0x0D	; 13
    4a90:	31 05       	cpc	r19, r1
    4a92:	18 f0       	brcs	.+6      	;  0x4a9a
    4a94:	2c 50       	subi	r18, 0x0C	; 12
    4a96:	31 09       	sbc	r19, r1
    4a98:	02 c0       	rjmp	.+4      	;  0x4a9e
    4a9a:	21 e0       	ldi	r18, 0x01	; 1
    4a9c:	30 e0       	ldi	r19, 0x00	; 0
    4a9e:	3b 8f       	std	Y+27, r19	; 0x1b
    4aa0:	2a 8f       	std	Y+26, r18	; 0x1a
    4aa2:	94 30       	cpi	r25, 0x04	; 4
    4aa4:	58 f0       	brcs	.+22     	;  0x4abc
    4aa6:	92 ef       	ldi	r25, 0xF2	; 242
    4aa8:	98 0f       	add	r25, r24
    4aaa:	94 30       	cpi	r25, 0x04	; 4
    4aac:	38 f0       	brcs	.+14     	;  0x4abc
    4aae:	8a 51       	subi	r24, 0x1A	; 26
    4ab0:	83 30       	cpi	r24, 0x03	; 3
    4ab2:	08 f4       	brcc	.+2      	;  0x4ab6
    4ab4:	42 c0       	rjmp	.+132    	;  0x4b3a
    4ab6:	a0 e0       	ldi	r26, 0x00	; 0
    4ab8:	b0 e0       	ldi	r27, 0x00	; 0
    4aba:	41 c0       	rjmp	.+130    	;  0x4b3e
    4abc:	a8 e6       	ldi	r26, 0x68	; 104
    4abe:	b0 e0       	ldi	r27, 0x00	; 0
    4ac0:	e8 e6       	ldi	r30, 0x68	; 104
    4ac2:	f0 e0       	ldi	r31, 0x00	; 0
    4ac4:	80 81       	ld	r24, Z
    4ac6:	81 60       	ori	r24, 0x01	; 1
    4ac8:	8c 93       	st	X, r24
    4aca:	8c 85       	ldd	r24, Y+12	; 0x0c
    4acc:	98 ef       	ldi	r25, 0xF8	; 248
    4ace:	98 0f       	add	r25, r24
    4ad0:	94 30       	cpi	r25, 0x04	; 4
    4ad2:	58 f0       	brcs	.+22     	;  0x4aea
    4ad4:	22 ef       	ldi	r18, 0xF2	; 242
    4ad6:	28 0f       	add	r18, r24
    4ad8:	24 30       	cpi	r18, 0x04	; 4
    4ada:	38 f0       	brcs	.+14     	;  0x4aea
    4adc:	26 ee       	ldi	r18, 0xE6	; 230
    4ade:	28 0f       	add	r18, r24
    4ae0:	23 30       	cpi	r18, 0x03	; 3
    4ae2:	18 f0       	brcs	.+6      	;  0x4aea
    4ae4:	20 e0       	ldi	r18, 0x00	; 0
    4ae6:	30 e0       	ldi	r19, 0x00	; 0
    4ae8:	02 c0       	rjmp	.+4      	;  0x4aee
    4aea:	2b e6       	ldi	r18, 0x6B	; 107
    4aec:	30 e0       	ldi	r19, 0x00	; 0
    4aee:	3c 8b       	std	Y+20, r19	; 0x14
    4af0:	2b 8b       	std	Y+19, r18	; 0x13
    4af2:	94 30       	cpi	r25, 0x04	; 4
    4af4:	10 f4       	brcc	.+4      	;  0x4afa
    4af6:	84 50       	subi	r24, 0x04	; 4
    4af8:	09 c0       	rjmp	.+18     	;  0x4b0c
    4afa:	8e 30       	cpi	r24, 0x0E	; 14
    4afc:	69 f0       	breq	.+26     	;  0x4b18
    4afe:	8f 30       	cpi	r24, 0x0F	; 15
    4b00:	69 f0       	breq	.+26     	;  0x4b1c
    4b02:	80 31       	cpi	r24, 0x10	; 16
    4b04:	69 f0       	breq	.+26     	;  0x4b20
    4b06:	81 31       	cpi	r24, 0x11	; 17
    4b08:	69 f0       	breq	.+26     	;  0x4b24
    4b0a:	86 51       	subi	r24, 0x16	; 22
    4b0c:	91 e0       	ldi	r25, 0x01	; 1
    4b0e:	01 c0       	rjmp	.+2      	;  0x4b12
    4b10:	99 0f       	add	r25, r25
    4b12:	8a 95       	dec	r24
    4b14:	ea f7       	brpl	.-6      	;  0x4b10
    4b16:	07 c0       	rjmp	.+14     	;  0x4b26
    4b18:	98 e0       	ldi	r25, 0x08	; 8
    4b1a:	05 c0       	rjmp	.+10     	;  0x4b26
    4b1c:	92 e0       	ldi	r25, 0x02	; 2
    4b1e:	03 c0       	rjmp	.+6      	;  0x4b26
    4b20:	94 e0       	ldi	r25, 0x04	; 4
    4b22:	01 c0       	rjmp	.+2      	;  0x4b26
    4b24:	91 e0       	ldi	r25, 0x01	; 1
    4b26:	9d 8b       	std	Y+21, r25	; 0x15
    4b28:	8c 8d       	ldd	r24, Y+28	; 0x1c
    4b2a:	9d 8d       	ldd	r25, Y+29	; 0x1d
    4b2c:	01 97       	sbiw	r24, 0x01	; 1
    4b2e:	f1 f7       	brne	.-4      	;  0x4b2c
    4b30:	ce 01       	movw	r24, r28
    4b32:	df 91       	pop	r29
    4b34:	cf 91       	pop	r28
    4b36:	0c 94 d6 23 	jmp	0x47ac	;  0x47ac
    4b3a:	a8 e6       	ldi	r26, 0x68	; 104
    4b3c:	b0 e0       	ldi	r27, 0x00	; 0
    4b3e:	83 30       	cpi	r24, 0x03	; 3
    4b40:	08 f4       	brcc	.+2      	;  0x4b44
    4b42:	be cf       	rjmp	.-132    	;  0x4ac0
    4b44:	e0 e0       	ldi	r30, 0x00	; 0
    4b46:	f0 e0       	ldi	r31, 0x00	; 0
    4b48:	bd cf       	rjmp	.-134    	;  0x4ac4
    4b4a:	cf 93       	push	r28
    4b4c:	cf b7       	in	r28, 0x3f	; 63
    4b4e:	f8 94       	cli
    4b50:	80 91 a9 05 	lds	r24, 0x05A9
    4b54:	81 11       	cpse	r24, r1
    4b56:	27 c0       	rjmp	.+78     	;  0x4ba6
    4b58:	e8 e2       	ldi	r30, 0x28	; 40
    4b5a:	f4 e0       	ldi	r31, 0x04	; 4
    4b5c:	84 91       	lpm	r24, Z
    4b5e:	e9 e0       	ldi	r30, 0x09	; 9
    4b60:	f4 e0       	ldi	r31, 0x04	; 4
    4b62:	94 91       	lpm	r25, Z
    4b64:	e8 2f       	mov	r30, r24
    4b66:	f0 e0       	ldi	r31, 0x00	; 0
    4b68:	ee 0f       	add	r30, r30
    4b6a:	ff 1f       	adc	r31, r31
    4b6c:	ee 5a       	subi	r30, 0xAE	; 174
    4b6e:	fb 4f       	sbci	r31, 0xFB	; 251
    4b70:	a5 91       	lpm	r26, Z+
    4b72:	b4 91       	lpm	r27, Z
    4b74:	ec 91       	ld	r30, X
    4b76:	e9 23       	and	r30, r25
    4b78:	21 f4       	brne	.+8      	;  0x4b82
    4b7a:	61 e0       	ldi	r22, 0x01	; 1
    4b7c:	81 e1       	ldi	r24, 0x11	; 17
    4b7e:	0e 94 17 21 	call	0x422e	;  0x422e
    4b82:	61 e0       	ldi	r22, 0x01	; 1
    4b84:	81 e1       	ldi	r24, 0x11	; 17
    4b86:	0e 94 db 20 	call	0x41b6	;  0x41b6
    4b8a:	8c b5       	in	r24, 0x2c	; 44
    4b8c:	80 61       	ori	r24, 0x10	; 16
    4b8e:	8c bd       	out	0x2c, r24	; 44
    4b90:	8c b5       	in	r24, 0x2c	; 44
    4b92:	80 64       	ori	r24, 0x40	; 64
    4b94:	8c bd       	out	0x2c, r24	; 44
    4b96:	61 e0       	ldi	r22, 0x01	; 1
    4b98:	8f e0       	ldi	r24, 0x0F	; 15
    4b9a:	0e 94 db 20 	call	0x41b6	;  0x41b6
    4b9e:	61 e0       	ldi	r22, 0x01	; 1
    4ba0:	80 e1       	ldi	r24, 0x10	; 16
    4ba2:	0e 94 db 20 	call	0x41b6	;  0x41b6
    4ba6:	80 91 a9 05 	lds	r24, 0x05A9
    4baa:	8f 5f       	subi	r24, 0xFF	; 255
    4bac:	80 93 a9 05 	sts	0x05A9, r24
    4bb0:	cf bf       	out	0x3f, r28	; 63
    4bb2:	cf 91       	pop	r28
    4bb4:	08 95       	ret
    4bb6:	fc 01       	movw	r30, r24
    4bb8:	13 82       	std	Z+3, r1	; 0x03
    4bba:	12 82       	std	Z+2, r1	; 0x02
    4bbc:	88 ee       	ldi	r24, 0xE8	; 232
    4bbe:	93 e0       	ldi	r25, 0x03	; 3
    4bc0:	a0 e0       	ldi	r26, 0x00	; 0
    4bc2:	b0 e0       	ldi	r27, 0x00	; 0
    4bc4:	84 83       	std	Z+4, r24	; 0x04
    4bc6:	95 83       	std	Z+5, r25	; 0x05
    4bc8:	a6 83       	std	Z+6, r26	; 0x06
    4bca:	b7 83       	std	Z+7, r27	; 0x07
    4bcc:	84 ed       	ldi	r24, 0xD4	; 212
    4bce:	91 e0       	ldi	r25, 0x01	; 1
    4bd0:	91 83       	std	Z+1, r25	; 0x01
    4bd2:	80 83       	st	Z, r24
    4bd4:	08 95       	ret
    4bd6:	81 e0       	ldi	r24, 0x01	; 1
    4bd8:	80 93 63 05 	sts	0x0563, r24
    4bdc:	60 93 86 05 	sts	0x0586, r22
    4be0:	10 92 65 05 	sts	0x0565, r1
    4be4:	10 92 64 05 	sts	0x0564, r1
    4be8:	08 95       	ret
    4bea:	10 92 56 05 	sts	0x0556, r1
    4bee:	81 e0       	ldi	r24, 0x01	; 1
    4bf0:	80 93 54 05 	sts	0x0554, r24
    4bf4:	10 92 53 05 	sts	0x0553, r1
    4bf8:	61 e0       	ldi	r22, 0x01	; 1
    4bfa:	82 e0       	ldi	r24, 0x02	; 2
    4bfc:	0e 94 17 21 	call	0x422e	;  0x422e
    4c00:	61 e0       	ldi	r22, 0x01	; 1
    4c02:	83 e0       	ldi	r24, 0x03	; 3
    4c04:	0e 94 17 21 	call	0x422e	;  0x422e
    4c08:	e9 eb       	ldi	r30, 0xB9	; 185
    4c0a:	f0 e0       	ldi	r31, 0x00	; 0
    4c0c:	80 81       	ld	r24, Z
    4c0e:	8e 7f       	andi	r24, 0xFE	; 254
    4c10:	80 83       	st	Z, r24
    4c12:	80 81       	ld	r24, Z
    4c14:	8d 7f       	andi	r24, 0xFD	; 253
    4c16:	80 83       	st	Z, r24
    4c18:	88 e4       	ldi	r24, 0x48	; 72
    4c1a:	80 93 b8 00 	sts	0x00B8, r24
    4c1e:	85 e4       	ldi	r24, 0x45	; 69
    4c20:	80 93 bc 00 	sts	0x00BC, r24
    4c24:	08 95       	ret
    4c26:	10 92 88 05 	sts	0x0588, r1
    4c2a:	10 92 87 05 	sts	0x0587, r1
    4c2e:	10 92 65 05 	sts	0x0565, r1
    4c32:	10 92 64 05 	sts	0x0564, r1
    4c36:	0c 94 f5 25 	jmp	0x4bea	;  0x4bea
    4c3a:	0f 93       	push	r16
    4c3c:	41 32       	cpi	r20, 0x21	; 33
    4c3e:	e8 f5       	brcc	.+122    	;  0x4cba
    4c40:	90 91 56 05 	lds	r25, 0x0556
    4c44:	91 11       	cpse	r25, r1
    4c46:	fc cf       	rjmp	.-8      	;  0x4c40
    4c48:	32 e0       	ldi	r19, 0x02	; 2
    4c4a:	30 93 56 05 	sts	0x0556, r19
    4c4e:	00 93 54 05 	sts	0x0554, r16
    4c52:	3f ef       	ldi	r19, 0xFF	; 255
    4c54:	30 93 e9 04 	sts	0x04E9, r19
    4c58:	10 92 2e 05 	sts	0x052E, r1
    4c5c:	40 93 2d 05 	sts	0x052D, r20
    4c60:	fb 01       	movw	r30, r22
    4c62:	6f e2       	ldi	r22, 0x2F	; 47
    4c64:	75 e0       	ldi	r23, 0x05	; 5
    4c66:	db 01       	movw	r26, r22
    4c68:	3a 2f       	mov	r19, r26
    4c6a:	36 1b       	sub	r19, r22
    4c6c:	34 17       	cp	r19, r20
    4c6e:	18 f4       	brcc	.+6      	;  0x4c76
    4c70:	31 91       	ld	r19, Z+
    4c72:	3d 93       	st	X+, r19
    4c74:	f9 cf       	rjmp	.-14     	;  0x4c68
    4c76:	10 92 55 05 	sts	0x0555, r1
    4c7a:	30 91 55 05 	lds	r19, 0x0555
    4c7e:	88 0f       	add	r24, r24
    4c80:	83 2b       	or	r24, r19
    4c82:	80 93 55 05 	sts	0x0555, r24
    4c86:	80 91 53 05 	lds	r24, 0x0553
    4c8a:	81 30       	cpi	r24, 0x01	; 1
    4c8c:	61 f4       	brne	.+24     	;  0x4ca6
    4c8e:	10 92 53 05 	sts	0x0553, r1
    4c92:	80 91 55 05 	lds	r24, 0x0555
    4c96:	80 93 bb 00 	sts	0x00BB, r24
    4c9a:	80 91 bc 00 	lds	r24, 0x00BC
    4c9e:	83 fd       	sbrc	r24, 3
    4ca0:	f8 cf       	rjmp	.-16     	;  0x4c92
    4ca2:	85 ec       	ldi	r24, 0xC5	; 197
    4ca4:	01 c0       	rjmp	.+2      	;  0x4ca8
    4ca6:	85 ee       	ldi	r24, 0xE5	; 229
    4ca8:	80 93 bc 00 	sts	0x00BC, r24
    4cac:	22 23       	and	r18, r18
    4cae:	39 f0       	breq	.+14     	;  0x4cbe
    4cb0:	80 91 56 05 	lds	r24, 0x0556
    4cb4:	82 30       	cpi	r24, 0x02	; 2
    4cb6:	19 f4       	brne	.+6      	;  0x4cbe
    4cb8:	f9 cf       	rjmp	.-14     	;  0x4cac
    4cba:	91 e0       	ldi	r25, 0x01	; 1
    4cbc:	11 c0       	rjmp	.+34     	;  0x4ce0
    4cbe:	80 91 e9 04 	lds	r24, 0x04E9
    4cc2:	8f 3f       	cpi	r24, 0xFF	; 255
    4cc4:	69 f0       	breq	.+26     	;  0x4ce0
    4cc6:	80 91 e9 04 	lds	r24, 0x04E9
    4cca:	80 32       	cpi	r24, 0x20	; 32
    4ccc:	31 f0       	breq	.+12     	;  0x4cda
    4cce:	80 91 e9 04 	lds	r24, 0x04E9
    4cd2:	80 33       	cpi	r24, 0x30	; 48
    4cd4:	21 f0       	breq	.+8      	;  0x4cde
    4cd6:	94 e0       	ldi	r25, 0x04	; 4
    4cd8:	03 c0       	rjmp	.+6      	;  0x4ce0
    4cda:	92 e0       	ldi	r25, 0x02	; 2
    4cdc:	01 c0       	rjmp	.+2      	;  0x4ce0
    4cde:	93 e0       	ldi	r25, 0x03	; 3
    4ce0:	89 2f       	mov	r24, r25
    4ce2:	0f 91       	pop	r16
    4ce4:	08 95       	ret
    4ce6:	0f 93       	push	r16
    4ce8:	06 2f       	mov	r16, r22
    4cea:	21 e0       	ldi	r18, 0x01	; 1
    4cec:	40 91 64 05 	lds	r20, 0x0564
    4cf0:	66 e6       	ldi	r22, 0x66	; 102
    4cf2:	75 e0       	ldi	r23, 0x05	; 5
    4cf4:	80 91 86 05 	lds	r24, 0x0586
    4cf8:	0e 94 1d 26 	call	0x4c3a	;  0x4c3a
    4cfc:	10 92 65 05 	sts	0x0565, r1
    4d00:	10 92 64 05 	sts	0x0564, r1
    4d04:	10 92 63 05 	sts	0x0563, r1
    4d08:	0f 91       	pop	r16
    4d0a:	08 95       	ret
    4d0c:	61 e0       	ldi	r22, 0x01	; 1
    4d0e:	0c 94 73 26 	jmp	0x4ce6	;  0x4ce6
    4d12:	61 32       	cpi	r22, 0x21	; 33
    4d14:	98 f4       	brcc	.+38     	;  0x4d3c
    4d16:	20 91 56 05 	lds	r18, 0x0556
    4d1a:	24 30       	cpi	r18, 0x04	; 4
    4d1c:	89 f4       	brne	.+34     	;  0x4d40
    4d1e:	60 93 0b 05 	sts	0x050B, r22
    4d22:	fc 01       	movw	r30, r24
    4d24:	2d e0       	ldi	r18, 0x0D	; 13
    4d26:	35 e0       	ldi	r19, 0x05	; 5
    4d28:	d9 01       	movw	r26, r18
    4d2a:	8a 2f       	mov	r24, r26
    4d2c:	82 1b       	sub	r24, r18
    4d2e:	86 17       	cp	r24, r22
    4d30:	18 f4       	brcc	.+6      	;  0x4d38
    4d32:	81 91       	ld	r24, Z+
    4d34:	8d 93       	st	X+, r24
    4d36:	f9 cf       	rjmp	.-14     	;  0x4d2a
    4d38:	80 e0       	ldi	r24, 0x00	; 0
    4d3a:	08 95       	ret
    4d3c:	81 e0       	ldi	r24, 0x01	; 1
    4d3e:	08 95       	ret
    4d40:	82 e0       	ldi	r24, 0x02	; 2
    4d42:	08 95       	ret
    4d44:	cf 93       	push	r28
    4d46:	df 93       	push	r29
    4d48:	1f 92       	push	r1
    4d4a:	cd b7       	in	r28, 0x3d	; 61
    4d4c:	de b7       	in	r29, 0x3e	; 62
    4d4e:	69 83       	std	Y+1, r22	; 0x01
    4d50:	20 91 63 05 	lds	r18, 0x0563
    4d54:	22 23       	and	r18, r18
    4d56:	d1 f0       	breq	.+52     	;  0x4d8c
    4d58:	20 91 64 05 	lds	r18, 0x0564
    4d5c:	20 32       	cpi	r18, 0x20	; 32
    4d5e:	40 f0       	brcs	.+16     	;  0x4d70
    4d60:	21 e0       	ldi	r18, 0x01	; 1
    4d62:	30 e0       	ldi	r19, 0x00	; 0
    4d64:	fc 01       	movw	r30, r24
    4d66:	33 83       	std	Z+3, r19	; 0x03
    4d68:	22 83       	std	Z+2, r18	; 0x02
    4d6a:	80 e0       	ldi	r24, 0x00	; 0
    4d6c:	90 e0       	ldi	r25, 0x00	; 0
    4d6e:	15 c0       	rjmp	.+42     	;  0x4d9a
    4d70:	80 91 65 05 	lds	r24, 0x0565
    4d74:	e8 2f       	mov	r30, r24
    4d76:	f0 e0       	ldi	r31, 0x00	; 0
    4d78:	ea 59       	subi	r30, 0x9A	; 154
    4d7a:	fa 4f       	sbci	r31, 0xFA	; 250
    4d7c:	99 81       	ldd	r25, Y+1	; 0x01
    4d7e:	90 83       	st	Z, r25
    4d80:	8f 5f       	subi	r24, 0xFF	; 255
    4d82:	80 93 65 05 	sts	0x0565, r24
    4d86:	80 93 64 05 	sts	0x0564, r24
    4d8a:	05 c0       	rjmp	.+10     	;  0x4d96
    4d8c:	61 e0       	ldi	r22, 0x01	; 1
    4d8e:	ce 01       	movw	r24, r28
    4d90:	01 96       	adiw	r24, 0x01	; 1
    4d92:	0e 94 89 26 	call	0x4d12	;  0x4d12
    4d96:	81 e0       	ldi	r24, 0x01	; 1
    4d98:	90 e0       	ldi	r25, 0x00	; 0
    4d9a:	0f 90       	pop	r0
    4d9c:	df 91       	pop	r29
    4d9e:	cf 91       	pop	r28
    4da0:	08 95       	ret
    4da2:	cf 92       	push	r12
    4da4:	df 92       	push	r13
    4da6:	ef 92       	push	r14
    4da8:	ff 92       	push	r15
    4daa:	0f 93       	push	r16
    4dac:	1f 93       	push	r17
    4dae:	cf 93       	push	r28
    4db0:	df 93       	push	r29
    4db2:	7c 01       	movw	r14, r24
    4db4:	26 2f       	mov	r18, r22
    4db6:	97 2f       	mov	r25, r23
    4db8:	8a 01       	movw	r16, r20
    4dba:	80 91 63 05 	lds	r24, 0x0563
    4dbe:	88 23       	and	r24, r24
    4dc0:	91 f0       	breq	.+36     	;  0x4de6
    4dc2:	c6 2f       	mov	r28, r22
    4dc4:	d7 2f       	mov	r29, r23
    4dc6:	6e 01       	movw	r12, r28
    4dc8:	c4 0e       	add	r12, r20
    4dca:	d5 1e       	adc	r13, r21
    4dcc:	cc 15       	cp	r28, r12
    4dce:	dd 05       	cpc	r29, r13
    4dd0:	71 f0       	breq	.+28     	;  0x4dee
    4dd2:	69 91       	ld	r22, Y+
    4dd4:	d7 01       	movw	r26, r14
    4dd6:	ed 91       	ld	r30, X+
    4dd8:	fc 91       	ld	r31, X
    4dda:	01 90       	ld	r0, Z+
    4ddc:	f0 81       	ld	r31, Z
    4dde:	e0 2d       	mov	r30, r0
    4de0:	c7 01       	movw	r24, r14
    4de2:	09 95       	icall
    4de4:	f3 cf       	rjmp	.-26     	;  0x4dcc
    4de6:	64 2f       	mov	r22, r20
    4de8:	82 2f       	mov	r24, r18
    4dea:	0e 94 89 26 	call	0x4d12	;  0x4d12
    4dee:	c8 01       	movw	r24, r16
    4df0:	df 91       	pop	r29
    4df2:	cf 91       	pop	r28
    4df4:	1f 91       	pop	r17
    4df6:	0f 91       	pop	r16
    4df8:	ff 90       	pop	r15
    4dfa:	ef 90       	pop	r14
    4dfc:	df 90       	pop	r13
    4dfe:	cf 90       	pop	r12
    4e00:	08 95       	ret
    4e02:	85 ed       	ldi	r24, 0xD5	; 213
    4e04:	80 93 bc 00 	sts	0x00BC, r24
    4e08:	80 91 bc 00 	lds	r24, 0x00BC
    4e0c:	84 fd       	sbrc	r24, 4
    4e0e:	fc cf       	rjmp	.-8      	;  0x4e08
    4e10:	10 92 56 05 	sts	0x0556, r1
    4e14:	08 95       	ret
    4e16:	85 ec       	ldi	r24, 0xC5	; 197
    4e18:	80 93 bc 00 	sts	0x00BC, r24
    4e1c:	10 92 56 05 	sts	0x0556, r1
    4e20:	08 95       	ret
    4e22:	1f 92       	push	r1
    4e24:	0f 92       	push	r0
    4e26:	0f b6       	in	r0, 0x3f	; 63
    4e28:	0f 92       	push	r0
    4e2a:	11 24       	eor	r1, r1
    4e2c:	2f 93       	push	r18
    4e2e:	3f 93       	push	r19
    4e30:	4f 93       	push	r20
    4e32:	5f 93       	push	r21
    4e34:	6f 93       	push	r22
    4e36:	7f 93       	push	r23
    4e38:	8f 93       	push	r24
    4e3a:	9f 93       	push	r25
    4e3c:	af 93       	push	r26
    4e3e:	bf 93       	push	r27
    4e40:	ef 93       	push	r30
    4e42:	ff 93       	push	r31
    4e44:	80 91 b9 00 	lds	r24, 0x00B9
    4e48:	88 7f       	andi	r24, 0xF8	; 248
    4e4a:	80 36       	cpi	r24, 0x60	; 96
    4e4c:	09 f4       	brne	.+2      	;  0x4e50
    4e4e:	9e c0       	rjmp	.+316    	;  0x4f8c
    4e50:	78 f5       	brcc	.+94     	;  0x4eb0
    4e52:	88 32       	cpi	r24, 0x28	; 40
    4e54:	09 f4       	brne	.+2      	;  0x4e58
    4e56:	5d c0       	rjmp	.+186    	;  0x4f12
    4e58:	90 f4       	brcc	.+36     	;  0x4e7e
    4e5a:	80 31       	cpi	r24, 0x10	; 16
    4e5c:	09 f4       	brne	.+2      	;  0x4e60
    4e5e:	56 c0       	rjmp	.+172    	;  0x4f0c
    4e60:	38 f4       	brcc	.+14     	;  0x4e70
    4e62:	88 23       	and	r24, r24
    4e64:	09 f4       	brne	.+2      	;  0x4e68
    4e66:	f5 c0       	rjmp	.+490    	;  0x5052
    4e68:	88 30       	cpi	r24, 0x08	; 8
    4e6a:	09 f4       	brne	.+2      	;  0x4e6e
    4e6c:	4f c0       	rjmp	.+158    	;  0x4f0c
    4e6e:	f5 c0       	rjmp	.+490    	;  0x505a
    4e70:	88 31       	cpi	r24, 0x18	; 24
    4e72:	09 f4       	brne	.+2      	;  0x4e76
    4e74:	4e c0       	rjmp	.+156    	;  0x4f12
    4e76:	80 32       	cpi	r24, 0x20	; 32
    4e78:	09 f4       	brne	.+2      	;  0x4e7c
    4e7a:	5f c0       	rjmp	.+190    	;  0x4f3a
    4e7c:	ee c0       	rjmp	.+476    	;  0x505a
    4e7e:	80 34       	cpi	r24, 0x40	; 64
    4e80:	09 f4       	brne	.+2      	;  0x4e84
    4e82:	6a c0       	rjmp	.+212    	;  0x4f58
    4e84:	58 f4       	brcc	.+22     	;  0x4e9c
    4e86:	80 33       	cpi	r24, 0x30	; 48
    4e88:	09 f4       	brne	.+2      	;  0x4e8c
    4e8a:	57 c0       	rjmp	.+174    	;  0x4f3a
    4e8c:	88 33       	cpi	r24, 0x38	; 56
    4e8e:	09 f0       	breq	.+2      	;  0x4e92
    4e90:	e4 c0       	rjmp	.+456    	;  0x505a
    4e92:	80 93 e9 04 	sts	0x04E9, r24
    4e96:	0e 94 0b 27 	call	0x4e16	;  0x4e16
    4e9a:	df c0       	rjmp	.+446    	;  0x505a
    4e9c:	80 35       	cpi	r24, 0x50	; 80
    4e9e:	09 f4       	brne	.+2      	;  0x4ea2
    4ea0:	4f c0       	rjmp	.+158    	;  0x4f40
    4ea2:	88 35       	cpi	r24, 0x58	; 88
    4ea4:	09 f4       	brne	.+2      	;  0x4ea8
    4ea6:	5d c0       	rjmp	.+186    	;  0x4f62
    4ea8:	88 34       	cpi	r24, 0x48	; 72
    4eaa:	09 f0       	breq	.+2      	;  0x4eae
    4eac:	d6 c0       	rjmp	.+428    	;  0x505a
    4eae:	d3 c0       	rjmp	.+422    	;  0x5056
    4eb0:	88 39       	cpi	r24, 0x98	; 152
    4eb2:	09 f4       	brne	.+2      	;  0x4eb6
    4eb4:	c4 c0       	rjmp	.+392    	;  0x503e
    4eb6:	a8 f4       	brcc	.+42     	;  0x4ee2
    4eb8:	88 37       	cpi	r24, 0x78	; 120
    4eba:	09 f4       	brne	.+2      	;  0x4ebe
    4ebc:	67 c0       	rjmp	.+206    	;  0x4f8c
    4ebe:	38 f4       	brcc	.+14     	;  0x4ece
    4ec0:	88 36       	cpi	r24, 0x68	; 104
    4ec2:	09 f4       	brne	.+2      	;  0x4ec6
    4ec4:	63 c0       	rjmp	.+198    	;  0x4f8c
    4ec6:	80 37       	cpi	r24, 0x70	; 112
    4ec8:	09 f4       	brne	.+2      	;  0x4ecc
    4eca:	60 c0       	rjmp	.+192    	;  0x4f8c
    4ecc:	c6 c0       	rjmp	.+396    	;  0x505a
    4ece:	88 38       	cpi	r24, 0x88	; 136
    4ed0:	09 f4       	brne	.+2      	;  0x4ed4
    4ed2:	b5 c0       	rjmp	.+362    	;  0x503e
    4ed4:	80 39       	cpi	r24, 0x90	; 144
    4ed6:	09 f4       	brne	.+2      	;  0x4eda
    4ed8:	5f c0       	rjmp	.+190    	;  0x4f98
    4eda:	80 38       	cpi	r24, 0x80	; 128
    4edc:	09 f0       	breq	.+2      	;  0x4ee0
    4ede:	bd c0       	rjmp	.+378    	;  0x505a
    4ee0:	5b c0       	rjmp	.+182    	;  0x4f98
    4ee2:	80 3b       	cpi	r24, 0xB0	; 176
    4ee4:	09 f4       	brne	.+2      	;  0x4ee8
    4ee6:	83 c0       	rjmp	.+262    	;  0x4fee
    4ee8:	38 f4       	brcc	.+14     	;  0x4ef8
    4eea:	80 3a       	cpi	r24, 0xA0	; 160
    4eec:	09 f4       	brne	.+2      	;  0x4ef0
    4eee:	66 c0       	rjmp	.+204    	;  0x4fbc
    4ef0:	88 3a       	cpi	r24, 0xA8	; 168
    4ef2:	09 f4       	brne	.+2      	;  0x4ef6
    4ef4:	7c c0       	rjmp	.+248    	;  0x4fee
    4ef6:	b1 c0       	rjmp	.+354    	;  0x505a
    4ef8:	80 3c       	cpi	r24, 0xC0	; 192
    4efa:	09 f4       	brne	.+2      	;  0x4efe
    4efc:	a4 c0       	rjmp	.+328    	;  0x5046
    4efe:	88 3c       	cpi	r24, 0xC8	; 200
    4f00:	09 f4       	brne	.+2      	;  0x4f04
    4f02:	a1 c0       	rjmp	.+322    	;  0x5046
    4f04:	88 3b       	cpi	r24, 0xB8	; 184
    4f06:	09 f4       	brne	.+2      	;  0x4f0a
    4f08:	87 c0       	rjmp	.+270    	;  0x5018
    4f0a:	a7 c0       	rjmp	.+334    	;  0x505a
    4f0c:	80 91 55 05 	lds	r24, 0x0555
    4f10:	10 c0       	rjmp	.+32     	;  0x4f32
    4f12:	90 91 2e 05 	lds	r25, 0x052E
    4f16:	80 91 2d 05 	lds	r24, 0x052D
    4f1a:	98 17       	cp	r25, r24
    4f1c:	70 f5       	brcc	.+92     	;  0x4f7a
    4f1e:	e0 91 2e 05 	lds	r30, 0x052E
    4f22:	81 e0       	ldi	r24, 0x01	; 1
    4f24:	8e 0f       	add	r24, r30
    4f26:	80 93 2e 05 	sts	0x052E, r24
    4f2a:	f0 e0       	ldi	r31, 0x00	; 0
    4f2c:	e1 5d       	subi	r30, 0xD1	; 209
    4f2e:	fa 4f       	sbci	r31, 0xFA	; 250
    4f30:	80 81       	ld	r24, Z
    4f32:	80 93 bb 00 	sts	0x00BB, r24
    4f36:	85 ec       	ldi	r24, 0xC5	; 197
    4f38:	83 c0       	rjmp	.+262    	;  0x5040
    4f3a:	80 93 e9 04 	sts	0x04E9, r24
    4f3e:	8b c0       	rjmp	.+278    	;  0x5056
    4f40:	e0 91 2e 05 	lds	r30, 0x052E
    4f44:	81 e0       	ldi	r24, 0x01	; 1
    4f46:	8e 0f       	add	r24, r30
    4f48:	80 93 2e 05 	sts	0x052E, r24
    4f4c:	80 91 bb 00 	lds	r24, 0x00BB
    4f50:	f0 e0       	ldi	r31, 0x00	; 0
    4f52:	e1 5d       	subi	r30, 0xD1	; 209
    4f54:	fa 4f       	sbci	r31, 0xFA	; 250
    4f56:	80 83       	st	Z, r24
    4f58:	90 91 2e 05 	lds	r25, 0x052E
    4f5c:	80 91 2d 05 	lds	r24, 0x052D
    4f60:	6b c0       	rjmp	.+214    	;  0x5038
    4f62:	e0 91 2e 05 	lds	r30, 0x052E
    4f66:	81 e0       	ldi	r24, 0x01	; 1
    4f68:	8e 0f       	add	r24, r30
    4f6a:	80 93 2e 05 	sts	0x052E, r24
    4f6e:	80 91 bb 00 	lds	r24, 0x00BB
    4f72:	f0 e0       	ldi	r31, 0x00	; 0
    4f74:	e1 5d       	subi	r30, 0xD1	; 209
    4f76:	fa 4f       	sbci	r31, 0xFA	; 250
    4f78:	80 83       	st	Z, r24
    4f7a:	80 91 54 05 	lds	r24, 0x0554
    4f7e:	81 11       	cpse	r24, r1
    4f80:	6a c0       	rjmp	.+212    	;  0x5056
    4f82:	81 e0       	ldi	r24, 0x01	; 1
    4f84:	80 93 53 05 	sts	0x0553, r24
    4f88:	84 ea       	ldi	r24, 0xA4	; 164
    4f8a:	5e c0       	rjmp	.+188    	;  0x5048
    4f8c:	83 e0       	ldi	r24, 0x03	; 3
    4f8e:	80 93 56 05 	sts	0x0556, r24
    4f92:	10 92 ea 04 	sts	0x04EA, r1
    4f96:	cf cf       	rjmp	.-98     	;  0x4f36
    4f98:	80 91 ea 04 	lds	r24, 0x04EA
    4f9c:	80 32       	cpi	r24, 0x20	; 32
    4f9e:	08 f0       	brcs	.+2      	;  0x4fa2
    4fa0:	4e c0       	rjmp	.+156    	;  0x503e
    4fa2:	e0 91 ea 04 	lds	r30, 0x04EA
    4fa6:	81 e0       	ldi	r24, 0x01	; 1
    4fa8:	8e 0f       	add	r24, r30
    4faa:	80 93 ea 04 	sts	0x04EA, r24
    4fae:	80 91 bb 00 	lds	r24, 0x00BB
    4fb2:	f0 e0       	ldi	r31, 0x00	; 0
    4fb4:	e5 51       	subi	r30, 0x15	; 21
    4fb6:	fb 4f       	sbci	r31, 0xFB	; 251
    4fb8:	80 83       	st	Z, r24
    4fba:	bd cf       	rjmp	.-134    	;  0x4f36
    4fbc:	0e 94 0b 27 	call	0x4e16	;  0x4e16
    4fc0:	80 91 ea 04 	lds	r24, 0x04EA
    4fc4:	80 32       	cpi	r24, 0x20	; 32
    4fc6:	30 f4       	brcc	.+12     	;  0x4fd4
    4fc8:	e0 91 ea 04 	lds	r30, 0x04EA
    4fcc:	f0 e0       	ldi	r31, 0x00	; 0
    4fce:	e5 51       	subi	r30, 0x15	; 21
    4fd0:	fb 4f       	sbci	r31, 0xFB	; 251
    4fd2:	10 82       	st	Z, r1
    4fd4:	60 91 ea 04 	lds	r22, 0x04EA
    4fd8:	70 e0       	ldi	r23, 0x00	; 0
    4fda:	e0 91 4f 05 	lds	r30, 0x054F
    4fde:	f0 91 50 05 	lds	r31, 0x0550
    4fe2:	8b ee       	ldi	r24, 0xEB	; 235
    4fe4:	94 e0       	ldi	r25, 0x04	; 4
    4fe6:	09 95       	icall
    4fe8:	10 92 ea 04 	sts	0x04EA, r1
    4fec:	36 c0       	rjmp	.+108    	;  0x505a
    4fee:	84 e0       	ldi	r24, 0x04	; 4
    4ff0:	80 93 56 05 	sts	0x0556, r24
    4ff4:	10 92 0c 05 	sts	0x050C, r1
    4ff8:	10 92 0b 05 	sts	0x050B, r1
    4ffc:	e0 91 51 05 	lds	r30, 0x0551
    5000:	f0 91 52 05 	lds	r31, 0x0552
    5004:	09 95       	icall
    5006:	80 91 0b 05 	lds	r24, 0x050B
    500a:	81 11       	cpse	r24, r1
    500c:	05 c0       	rjmp	.+10     	;  0x5018
    500e:	81 e0       	ldi	r24, 0x01	; 1
    5010:	80 93 0b 05 	sts	0x050B, r24
    5014:	10 92 0d 05 	sts	0x050D, r1
    5018:	e0 91 0c 05 	lds	r30, 0x050C
    501c:	81 e0       	ldi	r24, 0x01	; 1
    501e:	8e 0f       	add	r24, r30
    5020:	80 93 0c 05 	sts	0x050C, r24
    5024:	f0 e0       	ldi	r31, 0x00	; 0
    5026:	e3 5f       	subi	r30, 0xF3	; 243
    5028:	fa 4f       	sbci	r31, 0xFA	; 250
    502a:	80 81       	ld	r24, Z
    502c:	80 93 bb 00 	sts	0x00BB, r24
    5030:	90 91 0c 05 	lds	r25, 0x050C
    5034:	80 91 0b 05 	lds	r24, 0x050B
    5038:	98 17       	cp	r25, r24
    503a:	08 f4       	brcc	.+2      	;  0x503e
    503c:	7c cf       	rjmp	.-264    	;  0x4f36
    503e:	85 e8       	ldi	r24, 0x85	; 133
    5040:	80 93 bc 00 	sts	0x00BC, r24
    5044:	0a c0       	rjmp	.+20     	;  0x505a
    5046:	85 ec       	ldi	r24, 0xC5	; 197
    5048:	80 93 bc 00 	sts	0x00BC, r24
    504c:	10 92 56 05 	sts	0x0556, r1
    5050:	04 c0       	rjmp	.+8      	;  0x505a
    5052:	10 92 e9 04 	sts	0x04E9, r1
    5056:	0e 94 01 27 	call	0x4e02	;  0x4e02
    505a:	ff 91       	pop	r31
    505c:	ef 91       	pop	r30
    505e:	bf 91       	pop	r27
    5060:	af 91       	pop	r26
    5062:	9f 91       	pop	r25
    5064:	8f 91       	pop	r24
    5066:	7f 91       	pop	r23
    5068:	6f 91       	pop	r22
    506a:	5f 91       	pop	r21
    506c:	4f 91       	pop	r20
    506e:	3f 91       	pop	r19
    5070:	2f 91       	pop	r18
    5072:	0f 90       	pop	r0
    5074:	0f be       	out	0x3f, r0	; 63
    5076:	0f 90       	pop	r0
    5078:	1f 90       	pop	r1
    507a:	18 95       	reti
    507c:	87 e5       	ldi	r24, 0x57	; 87
    507e:	95 e0       	ldi	r25, 0x05	; 5
    5080:	0c 94 db 25 	jmp	0x4bb6	;  0x4bb6
    5084:	80 91 0a 06 	lds	r24, 0x060A
    5088:	90 91 0b 06 	lds	r25, 0x060B
    508c:	89 2b       	or	r24, r25
    508e:	49 f4       	brne	.+18     	;  0x50a2
    5090:	81 e0       	ldi	r24, 0x01	; 1
    5092:	90 e0       	ldi	r25, 0x00	; 0
    5094:	90 93 0b 06 	sts	0x060B, r25
    5098:	80 93 0a 06 	sts	0x060A, r24
    509c:	40 e0       	ldi	r20, 0x00	; 0
    509e:	64 e6       	ldi	r22, 0x64	; 100
    50a0:	06 c0       	rjmp	.+12     	;  0x50ae
    50a2:	10 92 0b 06 	sts	0x060B, r1
    50a6:	10 92 0a 06 	sts	0x060A, r1
    50aa:	40 e0       	ldi	r20, 0x00	; 0
    50ac:	60 e0       	ldi	r22, 0x00	; 0
    50ae:	81 e1       	ldi	r24, 0x11	; 17
    50b0:	0c 94 68 0f 	jmp	0x1ed0	;  0x1ed0
    50b4:	cf 93       	push	r28
    50b6:	df 93       	push	r29
    50b8:	00 d0       	rcall	.+0      	;  0x50ba
    50ba:	00 d0       	rcall	.+0      	;  0x50bc
    50bc:	cd b7       	in	r28, 0x3d	; 61
    50be:	de b7       	in	r29, 0x3e	; 62
    50c0:	dc 01       	movw	r26, r24
    50c2:	12 96       	adiw	r26, 0x02	; 2
    50c4:	3c 91       	ld	r19, X
    50c6:	12 97       	sbiw	r26, 0x02	; 2
    50c8:	39 83       	std	Y+1, r19	; 0x01
    50ca:	6a 83       	std	Y+2, r22	; 0x02
    50cc:	4b 83       	std	Y+3, r20	; 0x03
    50ce:	2c 83       	std	Y+4, r18	; 0x04
    50d0:	ed 91       	ld	r30, X+
    50d2:	fc 91       	ld	r31, X
    50d4:	01 90       	ld	r0, Z+
    50d6:	f0 81       	ld	r31, Z
    50d8:	e0 2d       	mov	r30, r0
    50da:	44 e0       	ldi	r20, 0x04	; 4
    50dc:	50 e0       	ldi	r21, 0x00	; 0
    50de:	be 01       	movw	r22, r28
    50e0:	6f 5f       	subi	r22, 0xFF	; 255
    50e2:	7f 4f       	sbci	r23, 0xFF	; 255
    50e4:	09 95       	icall
    50e6:	0f 90       	pop	r0
    50e8:	0f 90       	pop	r0
    50ea:	0f 90       	pop	r0
    50ec:	0f 90       	pop	r0
    50ee:	df 91       	pop	r29
    50f0:	cf 91       	pop	r28
    50f2:	08 95       	ret
    50f4:	fc 01       	movw	r30, r24
    50f6:	12 82       	std	Z+2, r1	; 0x02
    50f8:	20 e0       	ldi	r18, 0x00	; 0
    50fa:	40 e0       	ldi	r20, 0x00	; 0
    50fc:	60 e0       	ldi	r22, 0x00	; 0
    50fe:	0c 94 5a 28 	jmp	0x50b4	;  0x50b4
    5102:	cf 93       	push	r28
    5104:	df 93       	push	r29
    5106:	ec 01       	movw	r28, r24
    5108:	6a 83       	std	Y+2, r22	; 0x02
    510a:	20 e0       	ldi	r18, 0x00	; 0
    510c:	40 e0       	ldi	r20, 0x00	; 0
    510e:	60 e0       	ldi	r22, 0x00	; 0
    5110:	0e 94 5a 28 	call	0x50b4	;  0x50b4
    5114:	1a 82       	std	Y+2, r1	; 0x02
    5116:	20 e0       	ldi	r18, 0x00	; 0
    5118:	40 e0       	ldi	r20, 0x00	; 0
    511a:	60 e0       	ldi	r22, 0x00	; 0
    511c:	ce 01       	movw	r24, r28
    511e:	df 91       	pop	r29
    5120:	cf 91       	pop	r28
    5122:	0c 94 5a 28 	jmp	0x50b4	;  0x50b4
    5126:	cf 93       	push	r28
    5128:	df 93       	push	r29
    512a:	ec 01       	movw	r28, r24
    512c:	e8 81       	ld	r30, Y
    512e:	f9 81       	ldd	r31, Y+1	; 0x01
    5130:	04 80       	ldd	r0, Z+4	; 0x04
    5132:	f5 81       	ldd	r31, Z+5	; 0x05
    5134:	e0 2d       	mov	r30, r0
    5136:	09 95       	icall
    5138:	e8 81       	ld	r30, Y
    513a:	f9 81       	ldd	r31, Y+1	; 0x01
    513c:	06 80       	ldd	r0, Z+6	; 0x06
    513e:	f7 81       	ldd	r31, Z+7	; 0x07
    5140:	e0 2d       	mov	r30, r0
    5142:	ce 01       	movw	r24, r28
    5144:	df 91       	pop	r29
    5146:	cf 91       	pop	r28
    5148:	09 94       	ijmp
    514a:	0f 93       	push	r16
    514c:	1f 93       	push	r17
    514e:	cf 93       	push	r28
    5150:	df 93       	push	r29
    5152:	ec 01       	movw	r28, r24
    5154:	e8 81       	ld	r30, Y
    5156:	f9 81       	ldd	r31, Y+1	; 0x01
    5158:	00 84       	ldd	r0, Z+8	; 0x08
    515a:	f1 85       	ldd	r31, Z+9	; 0x09
    515c:	e0 2d       	mov	r30, r0
    515e:	41 e0       	ldi	r20, 0x01	; 1
    5160:	09 95       	icall
    5162:	8c 01       	movw	r16, r24
    5164:	89 2b       	or	r24, r25
    5166:	39 f0       	breq	.+14     	;  0x5176
    5168:	e8 81       	ld	r30, Y
    516a:	f9 81       	ldd	r31, Y+1	; 0x01
    516c:	06 80       	ldd	r0, Z+6	; 0x06
    516e:	f7 81       	ldd	r31, Z+7	; 0x07
    5170:	e0 2d       	mov	r30, r0
    5172:	ce 01       	movw	r24, r28
    5174:	09 95       	icall
    5176:	c8 01       	movw	r24, r16
    5178:	df 91       	pop	r29
    517a:	cf 91       	pop	r28
    517c:	1f 91       	pop	r17
    517e:	0f 91       	pop	r16
    5180:	08 95       	ret
    5182:	0f 93       	push	r16
    5184:	1f 93       	push	r17
    5186:	cf 93       	push	r28
    5188:	df 93       	push	r29
    518a:	ec 01       	movw	r28, r24
    518c:	e8 81       	ld	r30, Y
    518e:	f9 81       	ldd	r31, Y+1	; 0x01
    5190:	04 80       	ldd	r0, Z+4	; 0x04
    5192:	f5 81       	ldd	r31, Z+5	; 0x05
    5194:	e0 2d       	mov	r30, r0
    5196:	09 95       	icall
    5198:	8c 01       	movw	r16, r24
    519a:	89 2b       	or	r24, r25
    519c:	39 f0       	breq	.+14     	;  0x51ac
    519e:	e8 81       	ld	r30, Y
    51a0:	f9 81       	ldd	r31, Y+1	; 0x01
    51a2:	06 80       	ldd	r0, Z+6	; 0x06
    51a4:	f7 81       	ldd	r31, Z+7	; 0x07
    51a6:	e0 2d       	mov	r30, r0
    51a8:	ce 01       	movw	r24, r28
    51aa:	09 95       	icall
    51ac:	c8 01       	movw	r24, r16
    51ae:	df 91       	pop	r29
    51b0:	cf 91       	pop	r28
    51b2:	1f 91       	pop	r17
    51b4:	0f 91       	pop	r16
    51b6:	08 95       	ret
    51b8:	60 e0       	ldi	r22, 0x00	; 0
    51ba:	70 e0       	ldi	r23, 0x00	; 0
    51bc:	87 ee       	ldi	r24, 0xE7	; 231
    51be:	9a e2       	ldi	r25, 0x2A	; 42
    51c0:	0c 94 5a 33 	jmp	0x66b4	;  0x66b4
    51c4:	cf 93       	push	r28
    51c6:	df 93       	push	r29
    51c8:	ec 01       	movw	r28, r24
    51ca:	bc 01       	movw	r22, r24
    51cc:	81 e9       	ldi	r24, 0x91	; 145
    51ce:	96 e0       	ldi	r25, 0x06	; 6
    51d0:	0e 94 a5 18 	call	0x314a	;  0x314a
    51d4:	80 91 aa 06 	lds	r24, 0x06AA
    51d8:	81 11       	cpse	r24, r1
    51da:	07 c0       	rjmp	.+14     	;  0x51ea
    51dc:	be 01       	movw	r22, r28
    51de:	8b ea       	ldi	r24, 0xAB	; 171
    51e0:	96 e0       	ldi	r25, 0x06	; 6
    51e2:	df 91       	pop	r29
    51e4:	cf 91       	pop	r28
    51e6:	0c 94 a5 18 	jmp	0x314a	;  0x314a
    51ea:	df 91       	pop	r29
    51ec:	cf 91       	pop	r28
    51ee:	08 95       	ret
    51f0:	cf 93       	push	r28
    51f2:	df 93       	push	r29
    51f4:	ec 01       	movw	r28, r24
    51f6:	bc 01       	movw	r22, r24
    51f8:	81 e9       	ldi	r24, 0x91	; 145
    51fa:	96 e0       	ldi	r25, 0x06	; 6
    51fc:	0e 94 c9 18 	call	0x3192	;  0x3192
    5200:	80 91 aa 06 	lds	r24, 0x06AA
    5204:	81 11       	cpse	r24, r1
    5206:	07 c0       	rjmp	.+14     	;  0x5216
    5208:	be 01       	movw	r22, r28
    520a:	8b ea       	ldi	r24, 0xAB	; 171
    520c:	96 e0       	ldi	r25, 0x06	; 6
    520e:	df 91       	pop	r29
    5210:	cf 91       	pop	r28
    5212:	0c 94 c9 18 	jmp	0x3192	;  0x3192
    5216:	df 91       	pop	r29
    5218:	cf 91       	pop	r28
    521a:	08 95       	ret
    521c:	cf 93       	push	r28
    521e:	df 93       	push	r29
    5220:	ec 01       	movw	r28, r24
    5222:	bc 01       	movw	r22, r24
    5224:	81 e9       	ldi	r24, 0x91	; 145
    5226:	96 e0       	ldi	r25, 0x06	; 6
    5228:	0e 94 d7 18 	call	0x31ae	;  0x31ae
    522c:	80 91 aa 06 	lds	r24, 0x06AA
    5230:	81 11       	cpse	r24, r1
    5232:	07 c0       	rjmp	.+14     	;  0x5242
    5234:	be 01       	movw	r22, r28
    5236:	8b ea       	ldi	r24, 0xAB	; 171
    5238:	96 e0       	ldi	r25, 0x06	; 6
    523a:	df 91       	pop	r29
    523c:	cf 91       	pop	r28
    523e:	0c 94 d7 18 	jmp	0x31ae	;  0x31ae
    5242:	df 91       	pop	r29
    5244:	cf 91       	pop	r28
    5246:	08 95       	ret
    5248:	0f 93       	push	r16
    524a:	1f 93       	push	r17
    524c:	cf 93       	push	r28
    524e:	c8 2f       	mov	r28, r24
    5250:	8b 01       	movw	r16, r22
    5252:	ab 01       	movw	r20, r22
    5254:	68 2f       	mov	r22, r24
    5256:	81 e9       	ldi	r24, 0x91	; 145
    5258:	96 e0       	ldi	r25, 0x06	; 6
    525a:	0e 94 9e 19 	call	0x333c	;  0x333c
    525e:	80 91 aa 06 	lds	r24, 0x06AA
    5262:	81 11       	cpse	r24, r1
    5264:	09 c0       	rjmp	.+18     	;  0x5278
    5266:	a8 01       	movw	r20, r16
    5268:	6c 2f       	mov	r22, r28
    526a:	8b ea       	ldi	r24, 0xAB	; 171
    526c:	96 e0       	ldi	r25, 0x06	; 6
    526e:	cf 91       	pop	r28
    5270:	1f 91       	pop	r17
    5272:	0f 91       	pop	r16
    5274:	0c 94 9e 19 	jmp	0x333c	;  0x333c
    5278:	cf 91       	pop	r28
    527a:	1f 91       	pop	r17
    527c:	0f 91       	pop	r16
    527e:	08 95       	ret
    5280:	0f 93       	push	r16
    5282:	1f 93       	push	r17
    5284:	cf 93       	push	r28
    5286:	df 93       	push	r29
    5288:	ec 01       	movw	r28, r24
    528a:	8b 01       	movw	r16, r22
    528c:	ab 01       	movw	r20, r22
    528e:	bc 01       	movw	r22, r24
    5290:	81 e9       	ldi	r24, 0x91	; 145
    5292:	96 e0       	ldi	r25, 0x06	; 6
    5294:	0e 94 89 19 	call	0x3312	;  0x3312
    5298:	80 91 aa 06 	lds	r24, 0x06AA
    529c:	81 11       	cpse	r24, r1
    529e:	0a c0       	rjmp	.+20     	;  0x52b4
    52a0:	a8 01       	movw	r20, r16
    52a2:	be 01       	movw	r22, r28
    52a4:	8b ea       	ldi	r24, 0xAB	; 171
    52a6:	96 e0       	ldi	r25, 0x06	; 6
    52a8:	df 91       	pop	r29
    52aa:	cf 91       	pop	r28
    52ac:	1f 91       	pop	r17
    52ae:	0f 91       	pop	r16
    52b0:	0c 94 89 19 	jmp	0x3312	;  0x3312
    52b4:	df 91       	pop	r29
    52b6:	cf 91       	pop	r28
    52b8:	1f 91       	pop	r17
    52ba:	0f 91       	pop	r16
    52bc:	08 95       	ret
    52be:	0f 93       	push	r16
    52c0:	1f 93       	push	r17
    52c2:	cf 93       	push	r28
    52c4:	df 93       	push	r29
    52c6:	ec 01       	movw	r28, r24
    52c8:	8b 01       	movw	r16, r22
    52ca:	ab 01       	movw	r20, r22
    52cc:	bc 01       	movw	r22, r24
    52ce:	81 e9       	ldi	r24, 0x91	; 145
    52d0:	96 e0       	ldi	r25, 0x06	; 6
    52d2:	0e 94 a5 19 	call	0x334a	;  0x334a
    52d6:	80 91 aa 06 	lds	r24, 0x06AA
    52da:	81 11       	cpse	r24, r1
    52dc:	0a c0       	rjmp	.+20     	;  0x52f2
    52de:	a8 01       	movw	r20, r16
    52e0:	be 01       	movw	r22, r28
    52e2:	8b ea       	ldi	r24, 0xAB	; 171
    52e4:	96 e0       	ldi	r25, 0x06	; 6
    52e6:	df 91       	pop	r29
    52e8:	cf 91       	pop	r28
    52ea:	1f 91       	pop	r17
    52ec:	0f 91       	pop	r16
    52ee:	0c 94 a5 19 	jmp	0x334a	;  0x334a
    52f2:	df 91       	pop	r29
    52f4:	cf 91       	pop	r28
    52f6:	1f 91       	pop	r17
    52f8:	0f 91       	pop	r16
    52fa:	08 95       	ret
    52fc:	46 2f       	mov	r20, r22
    52fe:	68 2f       	mov	r22, r24
    5300:	81 e9       	ldi	r24, 0x91	; 145
    5302:	96 e0       	ldi	r25, 0x06	; 6
    5304:	0e 94 3d 06 	call	0xc7a	;  0xc7a
    5308:	80 91 aa 06 	lds	r24, 0x06AA
    530c:	81 11       	cpse	r24, r1
    530e:	04 c0       	rjmp	.+8      	;  0x5318
    5310:	8b ea       	ldi	r24, 0xAB	; 171
    5312:	96 e0       	ldi	r25, 0x06	; 6
    5314:	0c 94 e0 18 	jmp	0x31c0	;  0x31c0
    5318:	08 95       	ret
    531a:	80 91 aa 06 	lds	r24, 0x06AA
    531e:	81 11       	cpse	r24, r1
    5320:	04 c0       	rjmp	.+8      	;  0x532a
    5322:	8b ea       	ldi	r24, 0xAB	; 171
    5324:	96 e0       	ldi	r25, 0x06	; 6
    5326:	0c 94 e0 18 	jmp	0x31c0	;  0x31c0
    532a:	08 95       	ret
    532c:	cf 92       	push	r12
    532e:	df 92       	push	r13
    5330:	ef 92       	push	r14
    5332:	ff 92       	push	r15
    5334:	8f e6       	ldi	r24, 0x6F	; 111
    5336:	96 e0       	ldi	r25, 0x06	; 6
    5338:	0e 94 f4 0a 	call	0x15e8	;  0x15e8
    533c:	85 e6       	ldi	r24, 0x65	; 101
    533e:	95 e0       	ldi	r25, 0x05	; 5
    5340:	0e 94 e2 28 	call	0x51c4	;  0x51c4
    5344:	40 e2       	ldi	r20, 0x20	; 32
    5346:	6f e4       	ldi	r22, 0x4F	; 79
    5348:	76 e0       	ldi	r23, 0x06	; 6
    534a:	8f e6       	ldi	r24, 0x6F	; 111
    534c:	96 e0       	ldi	r25, 0x06	; 6
    534e:	0e 94 7c 0b 	call	0x16f8	;  0x16f8
    5352:	80 93 0c 06 	sts	0x060C, r24
    5356:	61 e0       	ldi	r22, 0x01	; 1
    5358:	80 e0       	ldi	r24, 0x00	; 0
    535a:	0e 94 7e 29 	call	0x52fc	;  0x52fc
    535e:	85 e5       	ldi	r24, 0x55	; 85
    5360:	95 e0       	ldi	r25, 0x05	; 5
    5362:	0e 94 e2 28 	call	0x51c4	;  0x51c4
    5366:	62 e0       	ldi	r22, 0x02	; 2
    5368:	80 e0       	ldi	r24, 0x00	; 0
    536a:	0e 94 7e 29 	call	0x52fc	;  0x52fc
    536e:	80 91 0c 06 	lds	r24, 0x060C
    5372:	88 23       	and	r24, r24
    5374:	f1 f0       	breq	.+60     	;  0x53b2
    5376:	8f e6       	ldi	r24, 0x6F	; 111
    5378:	96 e0       	ldi	r25, 0x06	; 6
    537a:	0e 94 38 0c 	call	0x1870	;  0x1870
    537e:	0e 94 dc 1f 	call	0x3fb8	;  0x3fb8
    5382:	6b 01       	movw	r12, r22
    5384:	7c 01       	movw	r14, r24
    5386:	8f e6       	ldi	r24, 0x6F	; 111
    5388:	96 e0       	ldi	r25, 0x06	; 6
    538a:	0e 94 9d 0b 	call	0x173a	;  0x173a
    538e:	81 11       	cpse	r24, r1
    5390:	18 c0       	rjmp	.+48     	;  0x53c2
    5392:	0e 94 dc 1f 	call	0x3fb8	;  0x3fb8
    5396:	dc 01       	movw	r26, r24
    5398:	cb 01       	movw	r24, r22
    539a:	8c 19       	sub	r24, r12
    539c:	9d 09       	sbc	r25, r13
    539e:	ae 09       	sbc	r26, r14
    53a0:	bf 09       	sbc	r27, r15
    53a2:	81 30       	cpi	r24, 0x01	; 1
    53a4:	9d 42       	sbci	r25, 0x2D	; 45
    53a6:	a1 43       	sbci	r26, 0x31	; 49
    53a8:	b1 40       	sbci	r27, 0x01	; 1
    53aa:	68 f3       	brcs	.-38     	;  0x5386
    53ac:	89 e3       	ldi	r24, 0x39	; 57
    53ae:	95 e0       	ldi	r25, 0x05	; 5
    53b0:	02 c0       	rjmp	.+4      	;  0x53b6
    53b2:	8a e1       	ldi	r24, 0x1A	; 26
    53b4:	95 e0       	ldi	r25, 0x05	; 5
    53b6:	ff 90       	pop	r15
    53b8:	ef 90       	pop	r14
    53ba:	df 90       	pop	r13
    53bc:	cf 90       	pop	r12
    53be:	0c 94 e2 28 	jmp	0x51c4	;  0x51c4
    53c2:	40 e2       	ldi	r20, 0x20	; 32
    53c4:	6f e2       	ldi	r22, 0x2F	; 47
    53c6:	76 e0       	ldi	r23, 0x06	; 6
    53c8:	8f e6       	ldi	r24, 0x6F	; 111
    53ca:	96 e0       	ldi	r25, 0x06	; 6
    53cc:	0e 94 a1 0b 	call	0x1742	;  0x1742
    53d0:	8a e2       	ldi	r24, 0x2A	; 42
    53d2:	95 e0       	ldi	r25, 0x05	; 5
    53d4:	0e 94 e2 28 	call	0x51c4	;  0x51c4
    53d8:	63 e0       	ldi	r22, 0x03	; 3
    53da:	80 e0       	ldi	r24, 0x00	; 0
    53dc:	0e 94 7e 29 	call	0x52fc	;  0x52fc
    53e0:	8f e2       	ldi	r24, 0x2F	; 47
    53e2:	96 e0       	ldi	r25, 0x06	; 6
    53e4:	0e 94 0e 29 	call	0x521c	;  0x521c
    53e8:	81 e0       	ldi	r24, 0x01	; 1
    53ea:	80 93 0d 06 	sts	0x060D, r24
    53ee:	ff 90       	pop	r15
    53f0:	ef 90       	pop	r14
    53f2:	df 90       	pop	r13
    53f4:	cf 90       	pop	r12
    53f6:	08 95       	ret
    53f8:	80 38       	cpi	r24, 0x80	; 128
    53fa:	39 f4       	brne	.+14     	;  0x540a
    53fc:	21 e0       	ldi	r18, 0x01	; 1
    53fe:	30 e0       	ldi	r19, 0x00	; 0
    5400:	30 93 09 06 	sts	0x0609, r19
    5404:	20 93 08 06 	sts	0x0608, r18
    5408:	11 c0       	rjmp	.+34     	;  0x542c
    540a:	82 38       	cpi	r24, 0x82	; 130
    540c:	39 f4       	brne	.+14     	;  0x541c
    540e:	21 e0       	ldi	r18, 0x01	; 1
    5410:	30 e0       	ldi	r19, 0x00	; 0
    5412:	30 93 07 06 	sts	0x0607, r19
    5416:	20 93 06 06 	sts	0x0606, r18
    541a:	08 c0       	rjmp	.+16     	;  0x542c
    541c:	82 33       	cpi	r24, 0x32	; 50
    541e:	31 f4       	brne	.+12     	;  0x542c
    5420:	21 e0       	ldi	r18, 0x01	; 1
    5422:	30 e0       	ldi	r19, 0x00	; 0
    5424:	30 93 05 06 	sts	0x0605, r19
    5428:	20 93 04 06 	sts	0x0604, r18
    542c:	20 91 08 06 	lds	r18, 0x0608
    5430:	30 91 09 06 	lds	r19, 0x0609
    5434:	21 30       	cpi	r18, 0x01	; 1
    5436:	31 05       	cpc	r19, r1
    5438:	a9 f4       	brne	.+42     	;  0x5464
    543a:	40 91 06 06 	lds	r20, 0x0606
    543e:	50 91 07 06 	lds	r21, 0x0607
    5442:	41 30       	cpi	r20, 0x01	; 1
    5444:	51 05       	cpc	r21, r1
    5446:	09 f0       	breq	.+2      	;  0x544a
    5448:	75 c0       	rjmp	.+234    	;  0x5534
    544a:	40 91 04 06 	lds	r20, 0x0604
    544e:	50 91 05 06 	lds	r21, 0x0605
    5452:	41 30       	cpi	r20, 0x01	; 1
    5454:	51 05       	cpc	r21, r1
    5456:	09 f0       	breq	.+2      	;  0x545a
    5458:	6d c0       	rjmp	.+218    	;  0x5534
    545a:	30 93 fb 05 	sts	0x05FB, r19
    545e:	20 93 fa 05 	sts	0x05FA, r18
    5462:	68 c0       	rjmp	.+208    	;  0x5534
    5464:	81 38       	cpi	r24, 0x81	; 129
    5466:	39 f4       	brne	.+14     	;  0x5476
    5468:	81 e0       	ldi	r24, 0x01	; 1
    546a:	90 e0       	ldi	r25, 0x00	; 0
    546c:	90 93 03 06 	sts	0x0603, r25
    5470:	80 93 02 06 	sts	0x0602, r24
    5474:	08 95       	ret
    5476:	89 3d       	cpi	r24, 0xD9	; 217
    5478:	e9 f4       	brne	.+58     	;  0x54b4
    547a:	41 e0       	ldi	r20, 0x01	; 1
    547c:	50 e0       	ldi	r21, 0x00	; 0
    547e:	50 93 01 06 	sts	0x0601, r21
    5482:	40 93 00 06 	sts	0x0600, r20
    5486:	21 30       	cpi	r18, 0x01	; 1
    5488:	31 05       	cpc	r19, r1
    548a:	09 f0       	breq	.+2      	;  0x548e
    548c:	63 c0       	rjmp	.+198    	;  0x5554
    548e:	40 91 02 06 	lds	r20, 0x0602
    5492:	50 91 03 06 	lds	r21, 0x0603
    5496:	41 30       	cpi	r20, 0x01	; 1
    5498:	51 05       	cpc	r21, r1
    549a:	89 f4       	brne	.+34     	;  0x54be
    549c:	40 91 00 06 	lds	r20, 0x0600
    54a0:	50 91 01 06 	lds	r21, 0x0601
    54a4:	41 30       	cpi	r20, 0x01	; 1
    54a6:	51 05       	cpc	r21, r1
    54a8:	51 f4       	brne	.+20     	;  0x54be
    54aa:	50 93 f7 05 	sts	0x05F7, r21
    54ae:	40 93 f6 05 	sts	0x05F6, r20
    54b2:	05 c0       	rjmp	.+10     	;  0x54be
    54b4:	21 30       	cpi	r18, 0x01	; 1
    54b6:	31 05       	cpc	r19, r1
    54b8:	09 f0       	breq	.+2      	;  0x54bc
    54ba:	46 c0       	rjmp	.+140    	;  0x5548
    54bc:	e8 cf       	rjmp	.-48     	;  0x548e
    54be:	8a 3d       	cpi	r24, 0xDA	; 218
    54c0:	51 f4       	brne	.+20     	;  0x54d6
    54c2:	41 e0       	ldi	r20, 0x01	; 1
    54c4:	50 e0       	ldi	r21, 0x00	; 0
    54c6:	50 93 ff 05 	sts	0x05FF, r21
    54ca:	40 93 fe 05 	sts	0x05FE, r20
    54ce:	21 30       	cpi	r18, 0x01	; 1
    54d0:	31 05       	cpc	r19, r1
    54d2:	09 f0       	breq	.+2      	;  0x54d6
    54d4:	3f c0       	rjmp	.+126    	;  0x5554
    54d6:	40 91 02 06 	lds	r20, 0x0602
    54da:	50 91 03 06 	lds	r21, 0x0603
    54de:	41 30       	cpi	r20, 0x01	; 1
    54e0:	51 05       	cpc	r21, r1
    54e2:	59 f4       	brne	.+22     	;  0x54fa
    54e4:	40 91 fe 05 	lds	r20, 0x05FE
    54e8:	50 91 ff 05 	lds	r21, 0x05FF
    54ec:	41 30       	cpi	r20, 0x01	; 1
    54ee:	51 05       	cpc	r21, r1
    54f0:	21 f4       	brne	.+8      	;  0x54fa
    54f2:	50 93 f9 05 	sts	0x05F9, r21
    54f6:	40 93 f8 05 	sts	0x05F8, r20
    54fa:	86 33       	cpi	r24, 0x36	; 54
    54fc:	49 f4       	brne	.+18     	;  0x5510
    54fe:	81 e0       	ldi	r24, 0x01	; 1
    5500:	90 e0       	ldi	r25, 0x00	; 0
    5502:	90 93 fd 05 	sts	0x05FD, r25
    5506:	80 93 fc 05 	sts	0x05FC, r24
    550a:	21 30       	cpi	r18, 0x01	; 1
    550c:	31 05       	cpc	r19, r1
    550e:	11 f5       	brne	.+68     	;  0x5554
    5510:	80 91 06 06 	lds	r24, 0x0606
    5514:	90 91 07 06 	lds	r25, 0x0607
    5518:	01 97       	sbiw	r24, 0x01	; 1
    551a:	e1 f4       	brne	.+56     	;  0x5554
    551c:	80 91 fc 05 	lds	r24, 0x05FC
    5520:	90 91 fd 05 	lds	r25, 0x05FD
    5524:	81 30       	cpi	r24, 0x01	; 1
    5526:	91 05       	cpc	r25, r1
    5528:	a9 f4       	brne	.+42     	;  0x5554
    552a:	90 93 ef 05 	sts	0x05EF, r25
    552e:	80 93 ee 05 	sts	0x05EE, r24
    5532:	08 95       	ret
    5534:	81 38       	cpi	r24, 0x81	; 129
    5536:	09 f0       	breq	.+2      	;  0x553a
    5538:	9e cf       	rjmp	.-196    	;  0x5476
    553a:	41 e0       	ldi	r20, 0x01	; 1
    553c:	50 e0       	ldi	r21, 0x00	; 0
    553e:	50 93 03 06 	sts	0x0603, r21
    5542:	40 93 02 06 	sts	0x0602, r20
    5546:	aa cf       	rjmp	.-172    	;  0x549c
    5548:	8a 3d       	cpi	r24, 0xDA	; 218
    554a:	09 f4       	brne	.+2      	;  0x554e
    554c:	ba cf       	rjmp	.-140    	;  0x54c2
    554e:	86 33       	cpi	r24, 0x36	; 54
    5550:	b1 f2       	breq	.-84     	;  0x54fe
    5552:	08 95       	ret
    5554:	08 95       	ret
    5556:	81 e9       	ldi	r24, 0x91	; 145
    5558:	96 e0       	ldi	r25, 0x06	; 6
    555a:	0e 94 36 06 	call	0xc6c	;  0xc6c
    555e:	84 ec       	ldi	r24, 0xC4	; 196
    5560:	94 e0       	ldi	r25, 0x04	; 4
    5562:	0c 94 e2 28 	jmp	0x51c4	;  0x51c4
    5566:	8f 92       	push	r8
    5568:	af 92       	push	r10
    556a:	cf 92       	push	r12
    556c:	ef 92       	push	r14
    556e:	0f 93       	push	r16
    5570:	20 e0       	ldi	r18, 0x00	; 0
    5572:	4a e0       	ldi	r20, 0x0A	; 10
    5574:	69 e0       	ldi	r22, 0x09	; 9
    5576:	8b ea       	ldi	r24, 0xAB	; 171
    5578:	96 e0       	ldi	r25, 0x06	; 6
    557a:	0e 94 d2 24 	call	0x49a4	;  0x49a4
    557e:	1f 92       	push	r1
    5580:	1f 92       	push	r1
    5582:	83 e0       	ldi	r24, 0x03	; 3
    5584:	8f 93       	push	r24
    5586:	87 e0       	ldi	r24, 0x07	; 7
    5588:	88 2e       	mov	r8, r24
    558a:	96 e0       	ldi	r25, 0x06	; 6
    558c:	a9 2e       	mov	r10, r25
    558e:	25 e0       	ldi	r18, 0x05	; 5
    5590:	c2 2e       	mov	r12, r18
    5592:	34 e0       	ldi	r19, 0x04	; 4
    5594:	e3 2e       	mov	r14, r19
    5596:	00 e0       	ldi	r16, 0x00	; 0
    5598:	21 e0       	ldi	r18, 0x01	; 1
    559a:	42 e0       	ldi	r20, 0x02	; 2
    559c:	67 e2       	ldi	r22, 0x27	; 39
    559e:	81 e9       	ldi	r24, 0x91	; 145
    55a0:	96 e0       	ldi	r25, 0x06	; 6
    55a2:	0e 94 8f 07 	call	0xf1e	;  0xf1e
    55a6:	0f 90       	pop	r0
    55a8:	0f 90       	pop	r0
    55aa:	0f 90       	pop	r0
    55ac:	43 e1       	ldi	r20, 0x13	; 19
    55ae:	50 e0       	ldi	r21, 0x00	; 0
    55b0:	62 e1       	ldi	r22, 0x12	; 18
    55b2:	70 e0       	ldi	r23, 0x00	; 0
    55b4:	8f e6       	ldi	r24, 0x6F	; 111
    55b6:	96 e0       	ldi	r25, 0x06	; 6
    55b8:	0f 91       	pop	r16
    55ba:	ef 90       	pop	r14
    55bc:	cf 90       	pop	r12
    55be:	af 90       	pop	r10
    55c0:	8f 90       	pop	r8
    55c2:	0c 94 d5 0a 	jmp	0x15aa	;  0x15aa
    55c6:	8b ea       	ldi	r24, 0xAB	; 171
    55c8:	96 e0       	ldi	r25, 0x06	; 6
    55ca:	0c 94 79 24 	jmp	0x48f2	;  0x48f2
    55ce:	cf 93       	push	r28
    55d0:	c8 2f       	mov	r28, r24
    55d2:	68 2f       	mov	r22, r24
    55d4:	8c eb       	ldi	r24, 0xBC	; 188
    55d6:	93 e0       	ldi	r25, 0x03	; 3
    55d8:	0e 94 60 14 	call	0x28c0	;  0x28c0
    55dc:	8c 2f       	mov	r24, r28
    55de:	99 27       	eor	r25, r25
    55e0:	87 fd       	sbrc	r24, 7
    55e2:	90 95       	com	r25
    55e4:	cf 91       	pop	r28
    55e6:	08 95       	ret
    55e8:	0f 93       	push	r16
    55ea:	1f 93       	push	r17
    55ec:	cf 93       	push	r28
    55ee:	df 93       	push	r29
    55f0:	cd b7       	in	r28, 0x3d	; 61
    55f2:	de b7       	in	r29, 0x3e	; 62
    55f4:	62 97       	sbiw	r28, 0x12	; 18
    55f6:	0f b6       	in	r0, 0x3f	; 63
    55f8:	f8 94       	cli
    55fa:	de bf       	out	0x3e, r29	; 62
    55fc:	0f be       	out	0x3f, r0	; 63
    55fe:	cd bf       	out	0x3d, r28	; 61
    5600:	60 ee       	ldi	r22, 0xE0	; 224
    5602:	71 e0       	ldi	r23, 0x01	; 1
    5604:	8f e0       	ldi	r24, 0x0F	; 15
    5606:	96 e0       	ldi	r25, 0x06	; 6
    5608:	0e 94 1f 33 	call	0x663e	;  0x663e
    560c:	6f e1       	ldi	r22, 0x1F	; 31
    560e:	76 e0       	ldi	r23, 0x06	; 6
    5610:	ce 01       	movw	r24, r28
    5612:	01 96       	adiw	r24, 0x01	; 1
    5614:	0e 94 91 22 	call	0x4522	;  0x4522
    5618:	be 01       	movw	r22, r28
    561a:	6f 5f       	subi	r22, 0xFF	; 255
    561c:	7f 4f       	sbci	r23, 0xFF	; 255
    561e:	8b e0       	ldi	r24, 0x0B	; 11
    5620:	93 e0       	ldi	r25, 0x03	; 3
    5622:	0e 94 a0 13 	call	0x2740	;  0x2740
    5626:	ce 01       	movw	r24, r28
    5628:	01 96       	adiw	r24, 0x01	; 1
    562a:	0e 94 95 21 	call	0x432a	;  0x432a
    562e:	62 e0       	ldi	r22, 0x02	; 2
    5630:	80 91 2e 01 	lds	r24, 0x012E
    5634:	0e 94 db 20 	call	0x41b6	;  0x41b6
    5638:	5d 9a       	sbi	0x0b, 5	; 11
    563a:	28 9a       	sbi	0x05, 0	; 5
    563c:	61 e0       	ldi	r22, 0x01	; 1
    563e:	85 e0       	ldi	r24, 0x05	; 5
    5640:	0e 94 db 20 	call	0x41b6	;  0x41b6
    5644:	81 e0       	ldi	r24, 0x01	; 1
    5646:	90 e0       	ldi	r25, 0x00	; 0
    5648:	90 93 88 06 	sts	0x0688, r25
    564c:	80 93 87 06 	sts	0x0687, r24
    5650:	80 91 87 06 	lds	r24, 0x0687
    5654:	90 91 88 06 	lds	r25, 0x0688
    5658:	05 97       	sbiw	r24, 0x05	; 5
    565a:	b4 f4       	brge	.+44     	;  0x5688
    565c:	85 e0       	ldi	r24, 0x05	; 5
    565e:	0e 94 47 21 	call	0x428e	;  0x428e
    5662:	61 e0       	ldi	r22, 0x01	; 1
    5664:	89 2b       	or	r24, r25
    5666:	09 f0       	breq	.+2      	;  0x566a
    5668:	60 e0       	ldi	r22, 0x00	; 0
    566a:	85 e0       	ldi	r24, 0x05	; 5
    566c:	0e 94 17 21 	call	0x422e	;  0x422e
    5670:	60 e9       	ldi	r22, 0x90	; 144
    5672:	71 e0       	ldi	r23, 0x01	; 1
    5674:	80 e0       	ldi	r24, 0x00	; 0
    5676:	90 e0       	ldi	r25, 0x00	; 0
    5678:	0e 94 01 20 	call	0x4002	;  0x4002
    567c:	80 91 87 06 	lds	r24, 0x0687
    5680:	90 91 88 06 	lds	r25, 0x0688
    5684:	01 96       	adiw	r24, 0x01	; 1
    5686:	e0 cf       	rjmp	.-64     	;  0x5648
    5688:	20 e0       	ldi	r18, 0x00	; 0
    568a:	44 e0       	ldi	r20, 0x04	; 4
    568c:	64 e1       	ldi	r22, 0x14	; 20
    568e:	81 e9       	ldi	r24, 0x91	; 145
    5690:	96 e0       	ldi	r25, 0x06	; 6
    5692:	0e 94 1f 08 	call	0x103e	;  0x103e
    5696:	40 e8       	ldi	r20, 0x80	; 128
    5698:	55 e2       	ldi	r21, 0x25	; 37
    569a:	60 e0       	ldi	r22, 0x00	; 0
    569c:	70 e0       	ldi	r23, 0x00	; 0
    569e:	8b ea       	ldi	r24, 0xAB	; 171
    56a0:	96 e0       	ldi	r25, 0x06	; 6
    56a2:	0e 94 fd 24 	call	0x49fa	;  0x49fa
    56a6:	81 e9       	ldi	r24, 0x91	; 145
    56a8:	96 e0       	ldi	r25, 0x06	; 6
    56aa:	0e 94 36 06 	call	0xc6c	;  0xc6c
    56ae:	6e e0       	ldi	r22, 0x0E	; 14
    56b0:	76 e0       	ldi	r23, 0x06	; 6
    56b2:	ce 01       	movw	r24, r28
    56b4:	0d 96       	adiw	r24, 0x0d	; 13
    56b6:	0e 94 91 22 	call	0x4522	;  0x4522
    56ba:	be 01       	movw	r22, r28
    56bc:	63 5f       	subi	r22, 0xF3	; 243
    56be:	7f 4f       	sbci	r23, 0xFF	; 255
    56c0:	ce 01       	movw	r24, r28
    56c2:	01 96       	adiw	r24, 0x01	; 1
    56c4:	0e 94 50 22 	call	0x44a0	;  0x44a0
    56c8:	ae 01       	movw	r20, r28
    56ca:	4f 5f       	subi	r20, 0xFF	; 255
    56cc:	5f 4f       	sbci	r21, 0xFF	; 255
    56ce:	6b e0       	ldi	r22, 0x0B	; 11
    56d0:	73 e0       	ldi	r23, 0x03	; 3
    56d2:	ce 01       	movw	r24, r28
    56d4:	07 96       	adiw	r24, 0x07	; 7
    56d6:	0e 94 b8 13 	call	0x2770	;  0x2770
    56da:	ce 01       	movw	r24, r28
    56dc:	01 96       	adiw	r24, 0x01	; 1
    56de:	0e 94 95 21 	call	0x432a	;  0x432a
    56e2:	0e 94 dc 28 	call	0x51b8	;  0x51b8
    56e6:	80 91 2e 01 	lds	r24, 0x012E
    56ea:	0e 94 47 21 	call	0x428e	;  0x428e
    56ee:	89 2b       	or	r24, r25
    56f0:	19 f4       	brne	.+6      	;  0x56f8
    56f2:	10 92 0d 06 	sts	0x060D, r1
    56f6:	d7 c0       	rjmp	.+430    	;  0x58a6
    56f8:	8f e6       	ldi	r24, 0x6F	; 111
    56fa:	96 e0       	ldi	r25, 0x06	; 6
    56fc:	0e 94 d7 0c 	call	0x19ae	;  0x19ae
    5700:	80 93 0e 06 	sts	0x060E, r24
    5704:	83 e0       	ldi	r24, 0x03	; 3
    5706:	96 e0       	ldi	r25, 0x06	; 6
    5708:	0e 94 e2 28 	call	0x51c4	;  0x51c4
    570c:	6a e0       	ldi	r22, 0x0A	; 10
    570e:	70 e0       	ldi	r23, 0x00	; 0
    5710:	80 91 0e 06 	lds	r24, 0x060E
    5714:	0e 94 24 29 	call	0x5248	;  0x5248
    5718:	0e 94 8d 29 	call	0x531a	;  0x531a
    571c:	60 ea       	ldi	r22, 0xA0	; 160
    571e:	7f e0       	ldi	r23, 0x0F	; 15
    5720:	80 e0       	ldi	r24, 0x00	; 0
    5722:	90 e0       	ldi	r25, 0x00	; 0
    5724:	0e 94 01 20 	call	0x4002	;  0x4002
    5728:	81 e9       	ldi	r24, 0x91	; 145
    572a:	96 e0       	ldi	r25, 0x06	; 6
    572c:	0e 94 36 06 	call	0xc6c	;  0xc6c
    5730:	69 e6       	ldi	r22, 0x69	; 105
    5732:	8f e6       	ldi	r24, 0x6F	; 111
    5734:	96 e0       	ldi	r25, 0x06	; 6
    5736:	0e 94 ea 0a 	call	0x15d4	;  0x15d4
    573a:	61 e0       	ldi	r22, 0x01	; 1
    573c:	8f e6       	ldi	r24, 0x6F	; 111
    573e:	96 e0       	ldi	r25, 0x06	; 6
    5740:	0e 94 7e 0c 	call	0x18fc	;  0x18fc
    5744:	62 e0       	ldi	r22, 0x02	; 2
    5746:	70 e0       	ldi	r23, 0x00	; 0
    5748:	8f e6       	ldi	r24, 0x6F	; 111
    574a:	96 e0       	ldi	r25, 0x06	; 6
    574c:	0e 94 9c 0c 	call	0x1938	;  0x1938
    5750:	4a e0       	ldi	r20, 0x0A	; 10
    5752:	61 e0       	ldi	r22, 0x01	; 1
    5754:	8f e6       	ldi	r24, 0x6F	; 111
    5756:	96 e0       	ldi	r25, 0x06	; 6
    5758:	0e 94 1e 0e 	call	0x1c3c	;  0x1c3c
    575c:	80 ef       	ldi	r24, 0xF0	; 240
    575e:	95 e0       	ldi	r25, 0x05	; 5
    5760:	0e 94 e2 28 	call	0x51c4	;  0x51c4
    5764:	8f e6       	ldi	r24, 0x6F	; 111
    5766:	96 e0       	ldi	r25, 0x06	; 6
    5768:	0e 94 f1 0a 	call	0x15e2	;  0x15e2
    576c:	80 93 0e 06 	sts	0x060E, r24
    5770:	61 e0       	ldi	r22, 0x01	; 1
    5772:	80 e0       	ldi	r24, 0x00	; 0
    5774:	0e 94 7e 29 	call	0x52fc	;  0x52fc
    5778:	83 ee       	ldi	r24, 0xE3	; 227
    577a:	95 e0       	ldi	r25, 0x05	; 5
    577c:	0e 94 e2 28 	call	0x51c4	;  0x51c4
    5780:	6a e0       	ldi	r22, 0x0A	; 10
    5782:	70 e0       	ldi	r23, 0x00	; 0
    5784:	80 91 0e 06 	lds	r24, 0x060E
    5788:	0e 94 24 29 	call	0x5248	;  0x5248
    578c:	68 eb       	ldi	r22, 0xB8	; 184
    578e:	7b e0       	ldi	r23, 0x0B	; 11
    5790:	80 e0       	ldi	r24, 0x00	; 0
    5792:	90 e0       	ldi	r25, 0x00	; 0
    5794:	0e 94 01 20 	call	0x4002	;  0x4002
    5798:	8f e6       	ldi	r24, 0x6F	; 111
    579a:	96 e0       	ldi	r25, 0x06	; 6
    579c:	0e 94 96 0c 	call	0x192c	;  0x192c
    57a0:	80 93 0e 06 	sts	0x060E, r24
    57a4:	62 e0       	ldi	r22, 0x02	; 2
    57a6:	80 e0       	ldi	r24, 0x00	; 0
    57a8:	0e 94 7e 29 	call	0x52fc	;  0x52fc
    57ac:	88 ed       	ldi	r24, 0xD8	; 216
    57ae:	95 e0       	ldi	r25, 0x05	; 5
    57b0:	0e 94 e2 28 	call	0x51c4	;  0x51c4
    57b4:	6a e0       	ldi	r22, 0x0A	; 10
    57b6:	70 e0       	ldi	r23, 0x00	; 0
    57b8:	80 91 0e 06 	lds	r24, 0x060E
    57bc:	0e 94 24 29 	call	0x5248	;  0x5248
    57c0:	68 eb       	ldi	r22, 0xB8	; 184
    57c2:	7b e0       	ldi	r23, 0x0B	; 11
    57c4:	80 e0       	ldi	r24, 0x00	; 0
    57c6:	90 e0       	ldi	r25, 0x00	; 0
    57c8:	0e 94 01 20 	call	0x4002	;  0x4002
    57cc:	8f e6       	ldi	r24, 0x6F	; 111
    57ce:	96 e0       	ldi	r25, 0x06	; 6
    57d0:	0e 94 4f 0d 	call	0x1a9e	;  0x1a9e
    57d4:	80 93 0e 06 	sts	0x060E, r24
    57d8:	63 e0       	ldi	r22, 0x03	; 3
    57da:	80 e0       	ldi	r24, 0x00	; 0
    57dc:	0e 94 7e 29 	call	0x52fc	;  0x52fc
    57e0:	8e ec       	ldi	r24, 0xCE	; 206
    57e2:	95 e0       	ldi	r25, 0x05	; 5
    57e4:	0e 94 e2 28 	call	0x51c4	;  0x51c4
    57e8:	6a e0       	ldi	r22, 0x0A	; 10
    57ea:	70 e0       	ldi	r23, 0x00	; 0
    57ec:	80 91 0e 06 	lds	r24, 0x060E
    57f0:	0e 94 24 29 	call	0x5248	;  0x5248
    57f4:	0e 94 8d 29 	call	0x531a	;  0x531a
    57f8:	67 e1       	ldi	r22, 0x17	; 23
    57fa:	72 e0       	ldi	r23, 0x02	; 2
    57fc:	8f e6       	ldi	r24, 0x6F	; 111
    57fe:	96 e0       	ldi	r25, 0x06	; 6
    5800:	0e 94 ad 0b 	call	0x175a	;  0x175a
    5804:	4d e1       	ldi	r20, 0x1D	; 29
    5806:	52 e0       	ldi	r21, 0x02	; 2
    5808:	61 e0       	ldi	r22, 0x01	; 1
    580a:	8f e6       	ldi	r24, 0x6F	; 111
    580c:	96 e0       	ldi	r25, 0x06	; 6
    580e:	0e 94 c7 0b 	call	0x178e	;  0x178e
    5812:	68 eb       	ldi	r22, 0xB8	; 184
    5814:	7b e0       	ldi	r23, 0x0B	; 11
    5816:	80 e0       	ldi	r24, 0x00	; 0
    5818:	90 e0       	ldi	r25, 0x00	; 0
    581a:	0e 94 01 20 	call	0x4002	;  0x4002
    581e:	81 e9       	ldi	r24, 0x91	; 145
    5820:	96 e0       	ldi	r25, 0x06	; 6
    5822:	0e 94 36 06 	call	0xc6c	;  0xc6c
    5826:	8f e6       	ldi	r24, 0x6F	; 111
    5828:	96 e0       	ldi	r25, 0x06	; 6
    582a:	0e 94 38 0c 	call	0x1870	;  0x1870
    582e:	64 e6       	ldi	r22, 0x64	; 100
    5830:	70 e0       	ldi	r23, 0x00	; 0
    5832:	80 e0       	ldi	r24, 0x00	; 0
    5834:	90 e0       	ldi	r25, 0x00	; 0
    5836:	0e 94 01 20 	call	0x4002	;  0x4002
    583a:	8c eb       	ldi	r24, 0xBC	; 188
    583c:	95 e0       	ldi	r25, 0x05	; 5
    583e:	0e 94 e2 28 	call	0x51c4	;  0x51c4
    5842:	6a e0       	ldi	r22, 0x0A	; 10
    5844:	70 e0       	ldi	r23, 0x00	; 0
    5846:	8b 85       	ldd	r24, Y+11	; 0x0b
    5848:	9c 85       	ldd	r25, Y+12	; 0x0c
    584a:	0e 94 5f 29 	call	0x52be	;  0x52be
    584e:	61 e0       	ldi	r22, 0x01	; 1
    5850:	80 e0       	ldi	r24, 0x00	; 0
    5852:	0e 94 7e 29 	call	0x52fc	;  0x52fc
    5856:	8c ea       	ldi	r24, 0xAC	; 172
    5858:	95 e0       	ldi	r25, 0x05	; 5
    585a:	0e 94 e2 28 	call	0x51c4	;  0x51c4
    585e:	62 e0       	ldi	r22, 0x02	; 2
    5860:	80 e0       	ldi	r24, 0x00	; 0
    5862:	0e 94 7e 29 	call	0x52fc	;  0x52fc
    5866:	ce 01       	movw	r24, r28
    5868:	07 96       	adiw	r24, 0x07	; 7
    586a:	0e 94 f8 28 	call	0x51f0	;  0x51f0
    586e:	0e 94 8d 29 	call	0x531a	;  0x531a
    5872:	60 ed       	ldi	r22, 0xD0	; 208
    5874:	77 e0       	ldi	r23, 0x07	; 7
    5876:	80 e0       	ldi	r24, 0x00	; 0
    5878:	90 e0       	ldi	r25, 0x00	; 0
    587a:	0e 94 01 20 	call	0x4002	;  0x4002
    587e:	81 e9       	ldi	r24, 0x91	; 145
    5880:	96 e0       	ldi	r25, 0x06	; 6
    5882:	0e 94 36 06 	call	0xc6c	;  0xc6c
    5886:	40 e2       	ldi	r20, 0x20	; 32
    5888:	50 e0       	ldi	r21, 0x00	; 0
    588a:	63 ef       	ldi	r22, 0xF3	; 243
    588c:	71 e0       	ldi	r23, 0x01	; 1
    588e:	8f e4       	ldi	r24, 0x4F	; 79
    5890:	96 e0       	ldi	r25, 0x06	; 6
    5892:	0e 94 26 33 	call	0x664c	;  0x664c
    5896:	0e 94 96 29 	call	0x532c	;  0x532c
    589a:	0e 94 8d 29 	call	0x531a	;  0x531a
    589e:	8f e6       	ldi	r24, 0x6F	; 111
    58a0:	96 e0       	ldi	r25, 0x06	; 6
    58a2:	0e 94 7d 0d 	call	0x1afa	;  0x1afa
    58a6:	0e 94 8d 29 	call	0x531a	;  0x531a
    58aa:	68 eb       	ldi	r22, 0xB8	; 184
    58ac:	7b e0       	ldi	r23, 0x0B	; 11
    58ae:	80 e0       	ldi	r24, 0x00	; 0
    58b0:	90 e0       	ldi	r25, 0x00	; 0
    58b2:	0e 94 01 20 	call	0x4002	;  0x4002
    58b6:	81 e9       	ldi	r24, 0x91	; 145
    58b8:	96 e0       	ldi	r25, 0x06	; 6
    58ba:	0e 94 36 06 	call	0xc6c	;  0xc6c
    58be:	87 e9       	ldi	r24, 0x97	; 151
    58c0:	95 e0       	ldi	r25, 0x05	; 5
    58c2:	0e 94 e2 28 	call	0x51c4	;  0x51c4
    58c6:	61 e0       	ldi	r22, 0x01	; 1
    58c8:	80 e0       	ldi	r24, 0x00	; 0
    58ca:	0e 94 7e 29 	call	0x52fc	;  0x52fc
    58ce:	83 e8       	ldi	r24, 0x83	; 131
    58d0:	95 e0       	ldi	r25, 0x05	; 5
    58d2:	0e 94 e2 28 	call	0x51c4	;  0x51c4
    58d6:	62 e0       	ldi	r22, 0x02	; 2
    58d8:	80 e0       	ldi	r24, 0x00	; 0
    58da:	0e 94 7e 29 	call	0x52fc	;  0x52fc
    58de:	0a e0       	ldi	r16, 0x0A	; 10
    58e0:	10 e0       	ldi	r17, 0x00	; 0
    58e2:	8b ea       	ldi	r24, 0xAB	; 171
    58e4:	96 e0       	ldi	r25, 0x06	; 6
    58e6:	0e 94 a8 23 	call	0x4750	;  0x4750
    58ea:	18 16       	cp	r1, r24
    58ec:	19 06       	cpc	r1, r25
    58ee:	44 f0       	brlt	.+16     	;  0x5900
    58f0:	80 91 89 06 	lds	r24, 0x0689
    58f4:	90 91 8a 06 	lds	r25, 0x068A
    58f8:	84 36       	cpi	r24, 0x64	; 100
    58fa:	91 05       	cpc	r25, r1
    58fc:	0c f4       	brge	.+2      	;  0x5900
    58fe:	67 c0       	rjmp	.+206    	;  0x59ce
    5900:	8b ea       	ldi	r24, 0xAB	; 171
    5902:	96 e0       	ldi	r25, 0x06	; 6
    5904:	0e 94 a8 23 	call	0x4750	;  0x4750
    5908:	89 2b       	or	r24, r25
    590a:	59 f0       	breq	.+22     	;  0x5922
    590c:	8b ea       	ldi	r24, 0xAB	; 171
    590e:	96 e0       	ldi	r25, 0x06	; 6
    5910:	0e 94 ee 22 	call	0x45dc	;  0x45dc
    5914:	68 ec       	ldi	r22, 0xC8	; 200
    5916:	70 e0       	ldi	r23, 0x00	; 0
    5918:	80 e0       	ldi	r24, 0x00	; 0
    591a:	90 e0       	ldi	r25, 0x00	; 0
    591c:	0e 94 01 20 	call	0x4002	;  0x4002
    5920:	ef cf       	rjmp	.-34     	;  0x5900
    5922:	81 e9       	ldi	r24, 0x91	; 145
    5924:	96 e0       	ldi	r25, 0x06	; 6
    5926:	0e 94 36 06 	call	0xc6c	;  0xc6c
    592a:	0e 94 8d 29 	call	0x531a	;  0x531a
    592e:	82 e7       	ldi	r24, 0x72	; 114
    5930:	95 e0       	ldi	r25, 0x05	; 5
    5932:	0e 94 e2 28 	call	0x51c4	;  0x51c4
    5936:	0e 94 8d 29 	call	0x531a	;  0x531a
    593a:	68 ee       	ldi	r22, 0xE8	; 232
    593c:	73 e0       	ldi	r23, 0x03	; 3
    593e:	80 e0       	ldi	r24, 0x00	; 0
    5940:	90 e0       	ldi	r25, 0x00	; 0
    5942:	0e 94 01 20 	call	0x4002	;  0x4002
    5946:	80 e1       	ldi	r24, 0x10	; 16
    5948:	80 93 81 00 	sts	0x0081, r24
    594c:	10 92 80 00 	sts	0x0080, r1
    5950:	84 e0       	ldi	r24, 0x04	; 4
    5952:	80 93 08 03 	sts	0x0308, r24
    5956:	8b e1       	ldi	r24, 0x1B	; 27
    5958:	97 eb       	ldi	r25, 0xB7	; 183
    595a:	90 93 0a 03 	sts	0x030A, r25
    595e:	80 93 09 03 	sts	0x0309, r24
    5962:	90 93 87 00 	sts	0x0087, r25
    5966:	80 93 86 00 	sts	0x0086, r24
    596a:	84 e1       	ldi	r24, 0x14	; 20
    596c:	80 93 81 00 	sts	0x0081, r24
    5970:	82 e4       	ldi	r24, 0x42	; 66
    5972:	98 e2       	ldi	r25, 0x28	; 40
    5974:	90 93 08 01 	sts	0x0108, r25
    5978:	80 93 07 01 	sts	0x0107, r24
    597c:	81 e0       	ldi	r24, 0x01	; 1
    597e:	80 93 6f 00 	sts	0x006F, r24
    5982:	8f e3       	ldi	r24, 0x3F	; 63
    5984:	92 e0       	ldi	r25, 0x02	; 2
    5986:	0e 94 93 28 	call	0x5126	;  0x5126
    598a:	80 e0       	ldi	r24, 0x00	; 0
    598c:	0e 94 d4 0e 	call	0x1da8	;  0x1da8
    5990:	40 e0       	ldi	r20, 0x00	; 0
    5992:	60 e0       	ldi	r22, 0x00	; 0
    5994:	81 e1       	ldi	r24, 0x11	; 17
    5996:	0e 94 03 0f 	call	0x1e06	;  0x1e06
    599a:	48 e5       	ldi	r20, 0x58	; 88
    599c:	52 e0       	ldi	r21, 0x02	; 2
    599e:	68 e5       	ldi	r22, 0x58	; 88
    59a0:	72 e0       	ldi	r23, 0x02	; 2
    59a2:	81 e1       	ldi	r24, 0x11	; 17
    59a4:	0e 94 74 0f 	call	0x1ee8	;  0x1ee8
    59a8:	ce 01       	movw	r24, r28
    59aa:	07 96       	adiw	r24, 0x07	; 7
    59ac:	0e 94 95 21 	call	0x432a	;  0x432a
    59b0:	ce 01       	movw	r24, r28
    59b2:	0d 96       	adiw	r24, 0x0d	; 13
    59b4:	0e 94 95 21 	call	0x432a	;  0x432a
    59b8:	62 96       	adiw	r28, 0x12	; 18
    59ba:	0f b6       	in	r0, 0x3f	; 63
    59bc:	f8 94       	cli
    59be:	de bf       	out	0x3e, r29	; 62
    59c0:	0f be       	out	0x3f, r0	; 63
    59c2:	cd bf       	out	0x3d, r28	; 61
    59c4:	df 91       	pop	r29
    59c6:	cf 91       	pop	r28
    59c8:	1f 91       	pop	r17
    59ca:	0f 91       	pop	r16
    59cc:	08 95       	ret
    59ce:	64 e6       	ldi	r22, 0x64	; 100
    59d0:	70 e0       	ldi	r23, 0x00	; 0
    59d2:	80 e0       	ldi	r24, 0x00	; 0
    59d4:	90 e0       	ldi	r25, 0x00	; 0
    59d6:	0e 94 01 20 	call	0x4002	;  0x4002
    59da:	80 91 89 06 	lds	r24, 0x0689
    59de:	90 91 8a 06 	lds	r25, 0x068A
    59e2:	b8 01       	movw	r22, r16
    59e4:	0e 94 a6 30 	call	0x614c	;  0x614c
    59e8:	89 2b       	or	r24, r25
    59ea:	d9 f4       	brne	.+54     	;  0x5a22
    59ec:	6a e0       	ldi	r22, 0x0A	; 10
    59ee:	70 e0       	ldi	r23, 0x00	; 0
    59f0:	80 91 30 01 	lds	r24, 0x0130
    59f4:	90 91 31 01 	lds	r25, 0x0131
    59f8:	0e 94 40 29 	call	0x5280	;  0x5280
    59fc:	81 e8       	ldi	r24, 0x81	; 129
    59fe:	95 e0       	ldi	r25, 0x05	; 5
    5a00:	0e 94 e2 28 	call	0x51c4	;  0x51c4
    5a04:	80 91 30 01 	lds	r24, 0x0130
    5a08:	90 91 31 01 	lds	r25, 0x0131
    5a0c:	01 97       	sbiw	r24, 0x01	; 1
    5a0e:	90 93 31 01 	sts	0x0131, r25
    5a12:	80 93 30 01 	sts	0x0130, r24
    5a16:	01 97       	sbiw	r24, 0x01	; 1
    5a18:	21 f4       	brne	.+8      	;  0x5a22
    5a1a:	63 e0       	ldi	r22, 0x03	; 3
    5a1c:	80 e0       	ldi	r24, 0x00	; 0
    5a1e:	0e 94 7e 29 	call	0x52fc	;  0x52fc
    5a22:	80 91 89 06 	lds	r24, 0x0689
    5a26:	90 91 8a 06 	lds	r25, 0x068A
    5a2a:	01 96       	adiw	r24, 0x01	; 1
    5a2c:	90 93 8a 06 	sts	0x068A, r25
    5a30:	80 93 89 06 	sts	0x0689, r24
    5a34:	56 cf       	rjmp	.-340    	;  0x58e2
    5a36:	cf 93       	push	r28
    5a38:	df 93       	push	r29
    5a3a:	80 38       	cpi	r24, 0x80	; 128
    5a3c:	29 f4       	brne	.+10     	;  0x5a48
    5a3e:	10 92 09 06 	sts	0x0609, r1
    5a42:	10 92 08 06 	sts	0x0608, r1
    5a46:	0d c0       	rjmp	.+26     	;  0x5a62
    5a48:	82 38       	cpi	r24, 0x82	; 130
    5a4a:	29 f4       	brne	.+10     	;  0x5a56
    5a4c:	10 92 07 06 	sts	0x0607, r1
    5a50:	10 92 06 06 	sts	0x0606, r1
    5a54:	06 c0       	rjmp	.+12     	;  0x5a62
    5a56:	82 33       	cpi	r24, 0x32	; 50
    5a58:	21 f4       	brne	.+8      	;  0x5a62
    5a5a:	10 92 05 06 	sts	0x0605, r1
    5a5e:	10 92 04 06 	sts	0x0604, r1
    5a62:	20 91 08 06 	lds	r18, 0x0608
    5a66:	30 91 09 06 	lds	r19, 0x0609
    5a6a:	21 15       	cp	r18, r1
    5a6c:	31 05       	cpc	r19, r1
    5a6e:	09 f0       	breq	.+2      	;  0x5a72
    5a70:	84 c0       	rjmp	.+264    	;  0x5b7a
    5a72:	40 91 06 06 	lds	r20, 0x0606
    5a76:	50 91 07 06 	lds	r21, 0x0607
    5a7a:	45 2b       	or	r20, r21
    5a7c:	09 f0       	breq	.+2      	;  0x5a80
    5a7e:	5a c1       	rjmp	.+692    	;  0x5d34
    5a80:	40 91 04 06 	lds	r20, 0x0604
    5a84:	50 91 05 06 	lds	r21, 0x0605
    5a88:	45 2b       	or	r20, r21
    5a8a:	09 f0       	breq	.+2      	;  0x5a8e
    5a8c:	53 c1       	rjmp	.+678    	;  0x5d34
    5a8e:	c0 91 fa 05 	lds	r28, 0x05FA
    5a92:	d0 91 fb 05 	lds	r29, 0x05FB
    5a96:	c1 30       	cpi	r28, 0x01	; 1
    5a98:	d1 05       	cpc	r29, r1
    5a9a:	09 f0       	breq	.+2      	;  0x5a9e
    5a9c:	4b c1       	rjmp	.+662    	;  0x5d34
    5a9e:	10 92 fb 05 	sts	0x05FB, r1
    5aa2:	10 92 fa 05 	sts	0x05FA, r1
    5aa6:	80 91 26 01 	lds	r24, 0x0126
    5aaa:	90 91 27 01 	lds	r25, 0x0127
    5aae:	89 2b       	or	r24, r25
    5ab0:	49 f4       	brne	.+18     	;  0x5ac4
    5ab2:	6f ef       	ldi	r22, 0xFF	; 255
    5ab4:	81 e9       	ldi	r24, 0x91	; 145
    5ab6:	96 e0       	ldi	r25, 0x06	; 6
    5ab8:	0e 94 12 07 	call	0xe24	;  0xe24
    5abc:	d0 93 27 01 	sts	0x0127, r29
    5ac0:	c0 93 26 01 	sts	0x0126, r28
    5ac4:	60 ee       	ldi	r22, 0xE0	; 224
    5ac6:	8f e3       	ldi	r24, 0x3F	; 63
    5ac8:	92 e0       	ldi	r25, 0x02	; 2
    5aca:	0e 94 a5 28 	call	0x514a	;  0x514a
    5ace:	64 e6       	ldi	r22, 0x64	; 100
    5ad0:	70 e0       	ldi	r23, 0x00	; 0
    5ad2:	80 e0       	ldi	r24, 0x00	; 0
    5ad4:	90 e0       	ldi	r25, 0x00	; 0
    5ad6:	0e 94 01 20 	call	0x4002	;  0x4002
    5ada:	62 ee       	ldi	r22, 0xE2	; 226
    5adc:	8f e3       	ldi	r24, 0x3F	; 63
    5ade:	92 e0       	ldi	r25, 0x02	; 2
    5ae0:	0e 94 a5 28 	call	0x514a	;  0x514a
    5ae4:	64 e6       	ldi	r22, 0x64	; 100
    5ae6:	70 e0       	ldi	r23, 0x00	; 0
    5ae8:	80 e0       	ldi	r24, 0x00	; 0
    5aea:	90 e0       	ldi	r25, 0x00	; 0
    5aec:	0e 94 01 20 	call	0x4002	;  0x4002
    5af0:	6c e4       	ldi	r22, 0x4C	; 76
    5af2:	8f e3       	ldi	r24, 0x3F	; 63
    5af4:	92 e0       	ldi	r25, 0x02	; 2
    5af6:	0e 94 a5 28 	call	0x514a	;  0x514a
    5afa:	64 e6       	ldi	r22, 0x64	; 100
    5afc:	70 e0       	ldi	r23, 0x00	; 0
    5afe:	80 e0       	ldi	r24, 0x00	; 0
    5b00:	90 e0       	ldi	r25, 0x00	; 0
    5b02:	0e 94 01 20 	call	0x4002	;  0x4002
    5b06:	8f e3       	ldi	r24, 0x3F	; 63
    5b08:	92 e0       	ldi	r25, 0x02	; 2
    5b0a:	0e 94 c1 28 	call	0x5182	;  0x5182
    5b0e:	81 e9       	ldi	r24, 0x91	; 145
    5b10:	96 e0       	ldi	r25, 0x06	; 6
    5b12:	0e 94 36 06 	call	0xc6c	;  0xc6c
    5b16:	85 e1       	ldi	r24, 0x15	; 21
    5b18:	95 e0       	ldi	r25, 0x05	; 5
    5b1a:	0e 94 e2 28 	call	0x51c4	;  0x51c4
    5b1e:	61 e0       	ldi	r22, 0x01	; 1
    5b20:	80 e0       	ldi	r24, 0x00	; 0
    5b22:	0e 94 7e 29 	call	0x52fc	;  0x52fc
    5b26:	85 e0       	ldi	r24, 0x05	; 5
    5b28:	95 e0       	ldi	r25, 0x05	; 5
    5b2a:	0e 94 e2 28 	call	0x51c4	;  0x51c4
    5b2e:	0e 94 8d 29 	call	0x531a	;  0x531a
    5b32:	28 9a       	sbi	0x05, 0	; 5
    5b34:	81 e0       	ldi	r24, 0x01	; 1
    5b36:	90 e0       	ldi	r25, 0x00	; 0
    5b38:	90 93 88 06 	sts	0x0688, r25
    5b3c:	80 93 87 06 	sts	0x0687, r24
    5b40:	80 91 87 06 	lds	r24, 0x0687
    5b44:	90 91 88 06 	lds	r25, 0x0688
    5b48:	09 97       	sbiw	r24, 0x09	; 9
    5b4a:	0c f0       	brlt	.+2      	;  0x5b4e
    5b4c:	02 c1       	rjmp	.+516    	;  0x5d52
    5b4e:	85 e0       	ldi	r24, 0x05	; 5
    5b50:	0e 94 47 21 	call	0x428e	;  0x428e
    5b54:	61 e0       	ldi	r22, 0x01	; 1
    5b56:	89 2b       	or	r24, r25
    5b58:	09 f0       	breq	.+2      	;  0x5b5c
    5b5a:	60 e0       	ldi	r22, 0x00	; 0
    5b5c:	85 e0       	ldi	r24, 0x05	; 5
    5b5e:	0e 94 17 21 	call	0x422e	;  0x422e
    5b62:	60 e9       	ldi	r22, 0x90	; 144
    5b64:	71 e0       	ldi	r23, 0x01	; 1
    5b66:	80 e0       	ldi	r24, 0x00	; 0
    5b68:	90 e0       	ldi	r25, 0x00	; 0
    5b6a:	0e 94 01 20 	call	0x4002	;  0x4002
    5b6e:	80 91 87 06 	lds	r24, 0x0687
    5b72:	90 91 88 06 	lds	r25, 0x0688
    5b76:	01 96       	adiw	r24, 0x01	; 1
    5b78:	df cf       	rjmp	.-66     	;  0x5b38
    5b7a:	81 38       	cpi	r24, 0x81	; 129
    5b7c:	29 f4       	brne	.+10     	;  0x5b88
    5b7e:	10 92 03 06 	sts	0x0603, r1
    5b82:	10 92 02 06 	sts	0x0602, r1
    5b86:	4f c0       	rjmp	.+158    	;  0x5c26
    5b88:	89 3d       	cpi	r24, 0xD9	; 217
    5b8a:	b1 f4       	brne	.+44     	;  0x5bb8
    5b8c:	10 92 01 06 	sts	0x0601, r1
    5b90:	10 92 00 06 	sts	0x0600, r1
    5b94:	21 15       	cp	r18, r1
    5b96:	31 05       	cpc	r19, r1
    5b98:	09 f0       	breq	.+2      	;  0x5b9c
    5b9a:	45 c0       	rjmp	.+138    	;  0x5c26
    5b9c:	40 91 02 06 	lds	r20, 0x0602
    5ba0:	50 91 03 06 	lds	r21, 0x0603
    5ba4:	45 2b       	or	r20, r21
    5ba6:	09 f0       	breq	.+2      	;  0x5baa
    5ba8:	78 c0       	rjmp	.+240    	;  0x5c9a
    5baa:	40 91 00 06 	lds	r20, 0x0600
    5bae:	50 91 01 06 	lds	r21, 0x0601
    5bb2:	45 2b       	or	r20, r21
    5bb4:	29 f0       	breq	.+10     	;  0x5bc0
    5bb6:	2e c0       	rjmp	.+92     	;  0x5c14
    5bb8:	21 15       	cp	r18, r1
    5bba:	31 05       	cpc	r19, r1
    5bbc:	79 f3       	breq	.-34     	;  0x5b9c
    5bbe:	c2 c0       	rjmp	.+388    	;  0x5d44
    5bc0:	40 91 f6 05 	lds	r20, 0x05F6
    5bc4:	50 91 f7 05 	lds	r21, 0x05F7
    5bc8:	41 30       	cpi	r20, 0x01	; 1
    5bca:	51 05       	cpc	r21, r1
    5bcc:	19 f5       	brne	.+70     	;  0x5c14
    5bce:	10 92 f7 05 	sts	0x05F7, r1
    5bd2:	10 92 f6 05 	sts	0x05F6, r1
    5bd6:	8a e2       	ldi	r24, 0x2A	; 42
    5bd8:	92 e0       	ldi	r25, 0x02	; 2
    5bda:	0e 94 7a 28 	call	0x50f4	;  0x50f4
    5bde:	8f e3       	ldi	r24, 0x3F	; 63
    5be0:	92 e0       	ldi	r25, 0x02	; 2
    5be2:	0e 94 93 28 	call	0x5126	;  0x5126
    5be6:	81 e9       	ldi	r24, 0x91	; 145
    5be8:	96 e0       	ldi	r25, 0x06	; 6
    5bea:	0e 94 36 06 	call	0xc6c	;  0xc6c
    5bee:	87 ef       	ldi	r24, 0xF7	; 247
    5bf0:	94 e0       	ldi	r25, 0x04	; 4
    5bf2:	0e 94 e2 28 	call	0x51c4	;  0x51c4
    5bf6:	62 e0       	ldi	r22, 0x02	; 2
    5bf8:	80 e0       	ldi	r24, 0x00	; 0
    5bfa:	0e 94 7e 29 	call	0x52fc	;  0x52fc
    5bfe:	8f ee       	ldi	r24, 0xEF	; 239
    5c00:	94 e0       	ldi	r25, 0x04	; 4
    5c02:	0e 94 e2 28 	call	0x51c4	;  0x51c4
    5c06:	0e 94 8d 29 	call	0x531a	;  0x531a
    5c0a:	10 92 f3 05 	sts	0x05F3, r1
    5c0e:	10 92 f2 05 	sts	0x05F2, r1
    5c12:	9f c0       	rjmp	.+318    	;  0x5d52
    5c14:	8a 3d       	cpi	r24, 0xDA	; 218
    5c16:	59 f4       	brne	.+22     	;  0x5c2e
    5c18:	10 92 ff 05 	sts	0x05FF, r1
    5c1c:	10 92 fe 05 	sts	0x05FE, r1
    5c20:	21 15       	cp	r18, r1
    5c22:	31 05       	cpc	r19, r1
    5c24:	21 f0       	breq	.+8      	;  0x5c2e
    5c26:	df 91       	pop	r29
    5c28:	cf 91       	pop	r28
    5c2a:	0c 94 8d 29 	jmp	0x531a	;  0x531a
    5c2e:	40 91 02 06 	lds	r20, 0x0602
    5c32:	50 91 03 06 	lds	r21, 0x0603
    5c36:	45 2b       	or	r20, r21
    5c38:	99 f5       	brne	.+102    	;  0x5ca0
    5c3a:	40 91 fe 05 	lds	r20, 0x05FE
    5c3e:	50 91 ff 05 	lds	r21, 0x05FF
    5c42:	45 2b       	or	r20, r21
    5c44:	69 f5       	brne	.+90     	;  0x5ca0
    5c46:	c0 91 f8 05 	lds	r28, 0x05F8
    5c4a:	d0 91 f9 05 	lds	r29, 0x05F9
    5c4e:	c1 30       	cpi	r28, 0x01	; 1
    5c50:	d1 05       	cpc	r29, r1
    5c52:	31 f5       	brne	.+76     	;  0x5ca0
    5c54:	10 92 f9 05 	sts	0x05F9, r1
    5c58:	10 92 f8 05 	sts	0x05F8, r1
    5c5c:	8f e3       	ldi	r24, 0x3F	; 63
    5c5e:	92 e0       	ldi	r25, 0x02	; 2
    5c60:	0e 94 c1 28 	call	0x5182	;  0x5182
    5c64:	8a e2       	ldi	r24, 0x2A	; 42
    5c66:	92 e0       	ldi	r25, 0x02	; 2
    5c68:	0e 94 7a 28 	call	0x50f4	;  0x50f4
    5c6c:	81 e9       	ldi	r24, 0x91	; 145
    5c6e:	96 e0       	ldi	r25, 0x06	; 6
    5c70:	0e 94 36 06 	call	0xc6c	;  0xc6c
    5c74:	84 ee       	ldi	r24, 0xE4	; 228
    5c76:	94 e0       	ldi	r25, 0x04	; 4
    5c78:	0e 94 e2 28 	call	0x51c4	;  0x51c4
    5c7c:	62 e0       	ldi	r22, 0x02	; 2
    5c7e:	80 e0       	ldi	r24, 0x00	; 0
    5c80:	0e 94 7e 29 	call	0x52fc	;  0x52fc
    5c84:	8c ed       	ldi	r24, 0xDC	; 220
    5c86:	94 e0       	ldi	r25, 0x04	; 4
    5c88:	0e 94 e2 28 	call	0x51c4	;  0x51c4
    5c8c:	0e 94 8d 29 	call	0x531a	;  0x531a
    5c90:	d0 93 f3 05 	sts	0x05F3, r29
    5c94:	c0 93 f2 05 	sts	0x05F2, r28
    5c98:	5c c0       	rjmp	.+184    	;  0x5d52
    5c9a:	8a 3d       	cpi	r24, 0xDA	; 218
    5c9c:	09 f4       	brne	.+2      	;  0x5ca0
    5c9e:	bc cf       	rjmp	.-136    	;  0x5c18
    5ca0:	86 33       	cpi	r24, 0x36	; 54
    5ca2:	39 f4       	brne	.+14     	;  0x5cb2
    5ca4:	10 92 fd 05 	sts	0x05FD, r1
    5ca8:	10 92 fc 05 	sts	0x05FC, r1
    5cac:	23 2b       	or	r18, r19
    5cae:	09 f0       	breq	.+2      	;  0x5cb2
    5cb0:	ba cf       	rjmp	.-140    	;  0x5c26
    5cb2:	80 91 06 06 	lds	r24, 0x0606
    5cb6:	90 91 07 06 	lds	r25, 0x0607
    5cba:	89 2b       	or	r24, r25
    5cbc:	09 f0       	breq	.+2      	;  0x5cc0
    5cbe:	b3 cf       	rjmp	.-154    	;  0x5c26
    5cc0:	80 91 fc 05 	lds	r24, 0x05FC
    5cc4:	90 91 fd 05 	lds	r25, 0x05FD
    5cc8:	89 2b       	or	r24, r25
    5cca:	09 f0       	breq	.+2      	;  0x5cce
    5ccc:	ac cf       	rjmp	.-168    	;  0x5c26
    5cce:	c0 91 ee 05 	lds	r28, 0x05EE
    5cd2:	d0 91 ef 05 	lds	r29, 0x05EF
    5cd6:	c1 30       	cpi	r28, 0x01	; 1
    5cd8:	d1 05       	cpc	r29, r1
    5cda:	09 f0       	breq	.+2      	;  0x5cde
    5cdc:	a4 cf       	rjmp	.-184    	;  0x5c26
    5cde:	10 92 ef 05 	sts	0x05EF, r1
    5ce2:	10 92 ee 05 	sts	0x05EE, r1
    5ce6:	80 91 26 01 	lds	r24, 0x0126
    5cea:	90 91 27 01 	lds	r25, 0x0127
    5cee:	89 2b       	or	r24, r25
    5cf0:	49 f4       	brne	.+18     	;  0x5d04
    5cf2:	6f ef       	ldi	r22, 0xFF	; 255
    5cf4:	81 e9       	ldi	r24, 0x91	; 145
    5cf6:	96 e0       	ldi	r25, 0x06	; 6
    5cf8:	0e 94 12 07 	call	0xe24	;  0xe24
    5cfc:	d0 93 27 01 	sts	0x0127, r29
    5d00:	c0 93 26 01 	sts	0x0126, r28
    5d04:	81 e9       	ldi	r24, 0x91	; 145
    5d06:	96 e0       	ldi	r25, 0x06	; 6
    5d08:	0e 94 36 06 	call	0xc6c	;  0xc6c
    5d0c:	80 91 0d 06 	lds	r24, 0x060D
    5d10:	88 23       	and	r24, r24
    5d12:	59 f0       	breq	.+22     	;  0x5d2a
    5d14:	40 e2       	ldi	r20, 0x20	; 32
    5d16:	50 e0       	ldi	r21, 0x00	; 0
    5d18:	6e ef       	ldi	r22, 0xFE	; 254
    5d1a:	71 e0       	ldi	r23, 0x01	; 1
    5d1c:	8f e4       	ldi	r24, 0x4F	; 79
    5d1e:	96 e0       	ldi	r25, 0x06	; 6
    5d20:	0e 94 26 33 	call	0x664c	;  0x664c
    5d24:	0e 94 96 29 	call	0x532c	;  0x532c
    5d28:	7e cf       	rjmp	.-260    	;  0x5c26
    5d2a:	8d ec       	ldi	r24, 0xCD	; 205
    5d2c:	94 e0       	ldi	r25, 0x04	; 4
    5d2e:	0e 94 e2 28 	call	0x51c4	;  0x51c4
    5d32:	79 cf       	rjmp	.-270    	;  0x5c26
    5d34:	81 38       	cpi	r24, 0x81	; 129
    5d36:	09 f0       	breq	.+2      	;  0x5d3a
    5d38:	27 cf       	rjmp	.-434    	;  0x5b88
    5d3a:	10 92 03 06 	sts	0x0603, r1
    5d3e:	10 92 02 06 	sts	0x0602, r1
    5d42:	33 cf       	rjmp	.-410    	;  0x5baa
    5d44:	8a 3d       	cpi	r24, 0xDA	; 218
    5d46:	09 f4       	brne	.+2      	;  0x5d4a
    5d48:	67 cf       	rjmp	.-306    	;  0x5c18
    5d4a:	86 33       	cpi	r24, 0x36	; 54
    5d4c:	09 f4       	brne	.+2      	;  0x5d50
    5d4e:	aa cf       	rjmp	.-172    	;  0x5ca4
    5d50:	6a cf       	rjmp	.-300    	;  0x5c26
    5d52:	df 91       	pop	r29
    5d54:	cf 91       	pop	r28
    5d56:	08 95       	ret
    5d58:	df 92       	push	r13
    5d5a:	ef 92       	push	r14
    5d5c:	ff 92       	push	r15
    5d5e:	0f 93       	push	r16
    5d60:	1f 93       	push	r17
    5d62:	cf 93       	push	r28
    5d64:	df 93       	push	r29
    5d66:	cd b7       	in	r28, 0x3d	; 61
    5d68:	de b7       	in	r29, 0x3e	; 62
    5d6a:	62 97       	sbiw	r28, 0x12	; 18
    5d6c:	0f b6       	in	r0, 0x3f	; 63
    5d6e:	f8 94       	cli
    5d70:	de bf       	out	0x3e, r29	; 62
    5d72:	0f be       	out	0x3f, r0	; 63
    5d74:	cd bf       	out	0x3d, r28	; 61
    5d76:	8b ea       	ldi	r24, 0xAB	; 171
    5d78:	96 e0       	ldi	r25, 0x06	; 6
    5d7a:	0e 94 a8 23 	call	0x4750	;  0x4750
    5d7e:	89 2b       	or	r24, r25
    5d80:	09 f4       	brne	.+2      	;  0x5d84
    5d82:	a7 c1       	rjmp	.+846    	;  0x60d2
    5d84:	8b ea       	ldi	r24, 0xAB	; 171
    5d86:	96 e0       	ldi	r25, 0x06	; 6
    5d88:	0e 94 ee 22 	call	0x45dc	;  0x45dc
    5d8c:	7c 01       	movw	r14, r24
    5d8e:	d8 2e       	mov	r13, r24
    5d90:	8c 01       	movw	r16, r24
    5d92:	11 27       	eor	r17, r17
    5d94:	4a e0       	ldi	r20, 0x0A	; 10
    5d96:	6b e8       	ldi	r22, 0x8B	; 139
    5d98:	76 e0       	ldi	r23, 0x06	; 6
    5d9a:	c8 01       	movw	r24, r16
    5d9c:	0e 94 35 33 	call	0x666a	;  0x666a
    5da0:	80 91 32 01 	lds	r24, 0x0132
    5da4:	81 11       	cpse	r24, r1
    5da6:	12 c0       	rjmp	.+36     	;  0x5dcc
    5da8:	6f eb       	ldi	r22, 0xBF	; 191
    5daa:	74 e0       	ldi	r23, 0x04	; 4
    5dac:	8b ea       	ldi	r24, 0xAB	; 171
    5dae:	96 e0       	ldi	r25, 0x06	; 6
    5db0:	0e 94 a5 18 	call	0x314a	;  0x314a
    5db4:	6b e8       	ldi	r22, 0x8B	; 139
    5db6:	76 e0       	ldi	r23, 0x06	; 6
    5db8:	8b ea       	ldi	r24, 0xAB	; 171
    5dba:	96 e0       	ldi	r25, 0x06	; 6
    5dbc:	0e 94 d7 18 	call	0x31ae	;  0x31ae
    5dc0:	65 eb       	ldi	r22, 0xB5	; 181
    5dc2:	74 e0       	ldi	r23, 0x04	; 4
    5dc4:	8b ea       	ldi	r24, 0xAB	; 171
    5dc6:	96 e0       	ldi	r25, 0x06	; 6
    5dc8:	0e 94 e4 18 	call	0x31c8	;  0x31c8
    5dcc:	d1 10       	cpse	r13, r1
    5dce:	03 c0       	rjmp	.+6      	;  0x5dd6
    5dd0:	10 92 33 01 	sts	0x0133, r1
    5dd4:	7e c1       	rjmp	.+764    	;  0x60d2
    5dd6:	81 e0       	ldi	r24, 0x01	; 1
    5dd8:	d8 12       	cpse	r13, r24
    5dda:	03 c0       	rjmp	.+6      	;  0x5de2
    5ddc:	e0 92 33 01 	sts	0x0133, r14
    5de0:	78 c1       	rjmp	.+752    	;  0x60d2
    5de2:	20 91 33 01 	lds	r18, 0x0133
    5de6:	80 91 f2 05 	lds	r24, 0x05F2
    5dea:	90 91 f3 05 	lds	r25, 0x05F3
    5dee:	22 23       	and	r18, r18
    5df0:	09 f4       	brne	.+2      	;  0x5df4
    5df2:	fb c0       	rjmp	.+502    	;  0x5fea
    5df4:	20 91 f4 05 	lds	r18, 0x05F4
    5df8:	30 91 f5 05 	lds	r19, 0x05F5
    5dfc:	89 2b       	or	r24, r25
    5dfe:	09 f0       	breq	.+2      	;  0x5e02
    5e00:	5c c0       	rjmp	.+184    	;  0x5eba
    5e02:	21 15       	cp	r18, r1
    5e04:	31 05       	cpc	r19, r1
    5e06:	09 f0       	breq	.+2      	;  0x5e0a
    5e08:	58 c0       	rjmp	.+176    	;  0x5eba
    5e0a:	80 91 32 01 	lds	r24, 0x0132
    5e0e:	88 23       	and	r24, r24
    5e10:	91 f0       	breq	.+36     	;  0x5e36
    5e12:	80 91 26 01 	lds	r24, 0x0126
    5e16:	90 91 27 01 	lds	r25, 0x0127
    5e1a:	01 97       	sbiw	r24, 0x01	; 1
    5e1c:	49 f4       	brne	.+18     	;  0x5e30
    5e1e:	60 e0       	ldi	r22, 0x00	; 0
    5e20:	81 e9       	ldi	r24, 0x91	; 145
    5e22:	96 e0       	ldi	r25, 0x06	; 6
    5e24:	0e 94 12 07 	call	0xe24	;  0xe24
    5e28:	10 92 27 01 	sts	0x0127, r1
    5e2c:	10 92 26 01 	sts	0x0126, r1
    5e30:	81 e0       	ldi	r24, 0x01	; 1
    5e32:	80 93 aa 06 	sts	0x06AA, r24
    5e36:	0e 94 ab 2a 	call	0x5556	;  0x5556
    5e3a:	4a e0       	ldi	r20, 0x0A	; 10
    5e3c:	6b e8       	ldi	r22, 0x8B	; 139
    5e3e:	76 e0       	ldi	r23, 0x06	; 6
    5e40:	c8 01       	movw	r24, r16
    5e42:	0e 94 35 33 	call	0x666a	;  0x666a
    5e46:	6c ea       	ldi	r22, 0xAC	; 172
    5e48:	74 e0       	ldi	r23, 0x04	; 4
    5e4a:	ce 01       	movw	r24, r28
    5e4c:	07 96       	adiw	r24, 0x07	; 7
    5e4e:	0e 94 91 22 	call	0x4522	;  0x4522
    5e52:	6b e8       	ldi	r22, 0x8B	; 139
    5e54:	76 e0       	ldi	r23, 0x06	; 6
    5e56:	ce 01       	movw	r24, r28
    5e58:	0d 96       	adiw	r24, 0x0d	; 13
    5e5a:	0e 94 03 22 	call	0x4406	;  0x4406
    5e5e:	be 01       	movw	r22, r28
    5e60:	63 5f       	subi	r22, 0xF3	; 243
    5e62:	7f 4f       	sbci	r23, 0xFF	; 255
    5e64:	ce 01       	movw	r24, r28
    5e66:	01 96       	adiw	r24, 0x01	; 1
    5e68:	0e 94 50 22 	call	0x44a0	;  0x44a0
    5e6c:	be 01       	movw	r22, r28
    5e6e:	69 5f       	subi	r22, 0xF9	; 249
    5e70:	7f 4f       	sbci	r23, 0xFF	; 255
    5e72:	ce 01       	movw	r24, r28
    5e74:	01 96       	adiw	r24, 0x01	; 1
    5e76:	0e 94 db 22 	call	0x45b6	;  0x45b6
    5e7a:	0e 94 f8 28 	call	0x51f0	;  0x51f0
    5e7e:	ce 01       	movw	r24, r28
    5e80:	01 96       	adiw	r24, 0x01	; 1
    5e82:	0e 94 95 21 	call	0x432a	;  0x432a
    5e86:	ce 01       	movw	r24, r28
    5e88:	0d 96       	adiw	r24, 0x0d	; 13
    5e8a:	0e 94 95 21 	call	0x432a	;  0x432a
    5e8e:	ce 01       	movw	r24, r28
    5e90:	07 96       	adiw	r24, 0x07	; 7
    5e92:	0e 94 95 21 	call	0x432a	;  0x432a
    5e96:	0e 94 8d 29 	call	0x531a	;  0x531a
    5e9a:	f8 01       	movw	r30, r16
    5e9c:	e2 5d       	subi	r30, 0xD2	; 210
    5e9e:	f9 4f       	sbci	r31, 0xF9	; 249
    5ea0:	64 91       	lpm	r22, Z
    5ea2:	8f e3       	ldi	r24, 0x3F	; 63
    5ea4:	92 e0       	ldi	r25, 0x02	; 2
    5ea6:	0e 94 a5 28 	call	0x514a	;  0x514a
    5eaa:	80 91 32 01 	lds	r24, 0x0132
    5eae:	88 23       	and	r24, r24
    5eb0:	09 f4       	brne	.+2      	;  0x5eb4
    5eb2:	97 c0       	rjmp	.+302    	;  0x5fe2
    5eb4:	10 92 aa 06 	sts	0x06AA, r1
    5eb8:	94 c0       	rjmp	.+296    	;  0x5fe2
    5eba:	21 30       	cpi	r18, 0x01	; 1
    5ebc:	31 05       	cpc	r19, r1
    5ebe:	09 f4       	brne	.+2      	;  0x5ec2
    5ec0:	90 c0       	rjmp	.+288    	;  0x5fe2
    5ec2:	80 91 32 01 	lds	r24, 0x0132
    5ec6:	88 23       	and	r24, r24
    5ec8:	19 f0       	breq	.+6      	;  0x5ed0
    5eca:	81 e0       	ldi	r24, 0x01	; 1
    5ecc:	80 93 aa 06 	sts	0x06AA, r24
    5ed0:	40 91 2c 01 	lds	r20, 0x012C
    5ed4:	50 91 2d 01 	lds	r21, 0x012D
    5ed8:	20 91 2a 01 	lds	r18, 0x012A
    5edc:	30 91 2b 01 	lds	r19, 0x012B
    5ee0:	24 1b       	sub	r18, r20
    5ee2:	35 0b       	sbc	r19, r21
    5ee4:	80 91 08 06 	lds	r24, 0x0608
    5ee8:	90 91 09 06 	lds	r25, 0x0609
    5eec:	28 9f       	mul	r18, r24
    5eee:	b0 01       	movw	r22, r0
    5ef0:	29 9f       	mul	r18, r25
    5ef2:	70 0d       	add	r23, r0
    5ef4:	38 9f       	mul	r19, r24
    5ef6:	70 0d       	add	r23, r0
    5ef8:	11 24       	eor	r1, r1
    5efa:	20 91 28 01 	lds	r18, 0x0128
    5efe:	30 91 29 01 	lds	r19, 0x0129
    5f02:	24 1b       	sub	r18, r20
    5f04:	35 0b       	sbc	r19, r21
    5f06:	40 91 02 06 	lds	r20, 0x0602
    5f0a:	50 91 03 06 	lds	r21, 0x0603
    5f0e:	24 9f       	mul	r18, r20
    5f10:	c0 01       	movw	r24, r0
    5f12:	25 9f       	mul	r18, r21
    5f14:	90 0d       	add	r25, r0
    5f16:	34 9f       	mul	r19, r20
    5f18:	90 0d       	add	r25, r0
    5f1a:	11 24       	eor	r1, r1
    5f1c:	86 0f       	add	r24, r22
    5f1e:	97 1f       	adc	r25, r23
    5f20:	90 93 f1 05 	sts	0x05F1, r25
    5f24:	80 93 f0 05 	sts	0x05F0, r24
    5f28:	81 e9       	ldi	r24, 0x91	; 145
    5f2a:	96 e0       	ldi	r25, 0x06	; 6
    5f2c:	0e 94 36 06 	call	0xc6c	;  0xc6c
    5f30:	07 3d       	cpi	r16, 0xD7	; 215
    5f32:	11 05       	cpc	r17, r1
    5f34:	f1 f1       	breq	.+124    	;  0x5fb2
    5f36:	84 f4       	brge	.+32     	;  0x5f58
    5f38:	00 32       	cpi	r16, 0x20	; 32
    5f3a:	11 05       	cpc	r17, r1
    5f3c:	09 f4       	brne	.+2      	;  0x5f40
    5f3e:	45 c0       	rjmp	.+138    	;  0x5fca
    5f40:	06 38       	cpi	r16, 0x86	; 134
    5f42:	11 05       	cpc	r17, r1
    5f44:	09 f0       	breq	.+2      	;  0x5f48
    5f46:	4a c0       	rjmp	.+148    	;  0x5fdc
    5f48:	62 e0       	ldi	r22, 0x02	; 2
    5f4a:	8a e2       	ldi	r24, 0x2A	; 42
    5f4c:	92 e0       	ldi	r25, 0x02	; 2
    5f4e:	0e 94 81 28 	call	0x5102	;  0x5102
    5f52:	8a e6       	ldi	r24, 0x6A	; 106
    5f54:	94 e0       	ldi	r25, 0x04	; 4
    5f56:	40 c0       	rjmp	.+128    	;  0x5fd8
    5f58:	09 3d       	cpi	r16, 0xD9	; 217
    5f5a:	11 05       	cpc	r17, r1
    5f5c:	89 f0       	breq	.+34     	;  0x5f80
    5f5e:	e4 f0       	brlt	.+56     	;  0x5f98
    5f60:	0a 3d       	cpi	r16, 0xDA	; 218
    5f62:	11 05       	cpc	r17, r1
    5f64:	d9 f5       	brne	.+118    	;  0x5fdc
    5f66:	80 91 f0 05 	lds	r24, 0x05F0
    5f6a:	48 ed       	ldi	r20, 0xD8	; 216
    5f6c:	48 1b       	sub	r20, r24
    5f6e:	20 e0       	ldi	r18, 0x00	; 0
    5f70:	60 e0       	ldi	r22, 0x00	; 0
    5f72:	8a e2       	ldi	r24, 0x2A	; 42
    5f74:	92 e0       	ldi	r25, 0x02	; 2
    5f76:	0e 94 5a 28 	call	0x50b4	;  0x50b4
    5f7a:	83 ea       	ldi	r24, 0xA3	; 163
    5f7c:	94 e0       	ldi	r25, 0x04	; 4
    5f7e:	2c c0       	rjmp	.+88     	;  0x5fd8
    5f80:	40 91 f0 05 	lds	r20, 0x05F0
    5f84:	48 5d       	subi	r20, 0xD8	; 216
    5f86:	20 e0       	ldi	r18, 0x00	; 0
    5f88:	60 e0       	ldi	r22, 0x00	; 0
    5f8a:	8a e2       	ldi	r24, 0x2A	; 42
    5f8c:	92 e0       	ldi	r25, 0x02	; 2
    5f8e:	0e 94 5a 28 	call	0x50b4	;  0x50b4
    5f92:	88 e9       	ldi	r24, 0x98	; 152
    5f94:	94 e0       	ldi	r25, 0x04	; 4
    5f96:	20 c0       	rjmp	.+64     	;  0x5fd8
    5f98:	80 91 f0 05 	lds	r24, 0x05F0
    5f9c:	68 ed       	ldi	r22, 0xD8	; 216
    5f9e:	68 1b       	sub	r22, r24
    5fa0:	20 e0       	ldi	r18, 0x00	; 0
    5fa2:	40 e0       	ldi	r20, 0x00	; 0
    5fa4:	8a e2       	ldi	r24, 0x2A	; 42
    5fa6:	92 e0       	ldi	r25, 0x02	; 2
    5fa8:	0e 94 5a 28 	call	0x50b4	;  0x50b4
    5fac:	8d e8       	ldi	r24, 0x8D	; 141
    5fae:	94 e0       	ldi	r25, 0x04	; 4
    5fb0:	13 c0       	rjmp	.+38     	;  0x5fd8
    5fb2:	60 91 f0 05 	lds	r22, 0x05F0
    5fb6:	68 5d       	subi	r22, 0xD8	; 216
    5fb8:	20 e0       	ldi	r18, 0x00	; 0
    5fba:	40 e0       	ldi	r20, 0x00	; 0
    5fbc:	8a e2       	ldi	r24, 0x2A	; 42
    5fbe:	92 e0       	ldi	r25, 0x02	; 2
    5fc0:	0e 94 5a 28 	call	0x50b4	;  0x50b4
    5fc4:	81 e8       	ldi	r24, 0x81	; 129
    5fc6:	94 e0       	ldi	r25, 0x04	; 4
    5fc8:	07 c0       	rjmp	.+14     	;  0x5fd8
    5fca:	61 e0       	ldi	r22, 0x01	; 1
    5fcc:	8a e2       	ldi	r24, 0x2A	; 42
    5fce:	92 e0       	ldi	r25, 0x02	; 2
    5fd0:	0e 94 81 28 	call	0x5102	;  0x5102
    5fd4:	86 e7       	ldi	r24, 0x76	; 118
    5fd6:	94 e0       	ldi	r25, 0x04	; 4
    5fd8:	0e 94 e2 28 	call	0x51c4	;  0x51c4
    5fdc:	0e 94 8d 29 	call	0x531a	;  0x531a
    5fe0:	64 cf       	rjmp	.-312    	;  0x5eaa
    5fe2:	8e 2d       	mov	r24, r14
    5fe4:	0e 94 fc 29 	call	0x53f8	;  0x53f8
    5fe8:	66 c0       	rjmp	.+204    	;  0x60b6
    5fea:	89 2b       	or	r24, r25
    5fec:	09 f0       	breq	.+2      	;  0x5ff0
    5fee:	60 c0       	rjmp	.+192    	;  0x60b0
    5ff0:	80 91 f4 05 	lds	r24, 0x05F4
    5ff4:	90 91 f5 05 	lds	r25, 0x05F5
    5ff8:	89 2b       	or	r24, r25
    5ffa:	09 f0       	breq	.+2      	;  0x5ffe
    5ffc:	59 c0       	rjmp	.+178    	;  0x60b0
    5ffe:	80 91 32 01 	lds	r24, 0x0132
    6002:	88 23       	and	r24, r24
    6004:	19 f0       	breq	.+6      	;  0x600c
    6006:	81 e0       	ldi	r24, 0x01	; 1
    6008:	80 93 aa 06 	sts	0x06AA, r24
    600c:	0e 94 ab 2a 	call	0x5556	;  0x5556
    6010:	4a e0       	ldi	r20, 0x0A	; 10
    6012:	6b e8       	ldi	r22, 0x8B	; 139
    6014:	76 e0       	ldi	r23, 0x06	; 6
    6016:	c8 01       	movw	r24, r16
    6018:	0e 94 35 33 	call	0x666a	;  0x666a
    601c:	60 e6       	ldi	r22, 0x60	; 96
    601e:	74 e0       	ldi	r23, 0x04	; 4
    6020:	ce 01       	movw	r24, r28
    6022:	07 96       	adiw	r24, 0x07	; 7
    6024:	0e 94 91 22 	call	0x4522	;  0x4522
    6028:	6b e8       	ldi	r22, 0x8B	; 139
    602a:	76 e0       	ldi	r23, 0x06	; 6
    602c:	ce 01       	movw	r24, r28
    602e:	0d 96       	adiw	r24, 0x0d	; 13
    6030:	0e 94 03 22 	call	0x4406	;  0x4406
    6034:	be 01       	movw	r22, r28
    6036:	63 5f       	subi	r22, 0xF3	; 243
    6038:	7f 4f       	sbci	r23, 0xFF	; 255
    603a:	ce 01       	movw	r24, r28
    603c:	01 96       	adiw	r24, 0x01	; 1
    603e:	0e 94 50 22 	call	0x44a0	;  0x44a0
    6042:	be 01       	movw	r22, r28
    6044:	69 5f       	subi	r22, 0xF9	; 249
    6046:	7f 4f       	sbci	r23, 0xFF	; 255
    6048:	ce 01       	movw	r24, r28
    604a:	01 96       	adiw	r24, 0x01	; 1
    604c:	0e 94 db 22 	call	0x45b6	;  0x45b6
    6050:	0e 94 f8 28 	call	0x51f0	;  0x51f0
    6054:	ce 01       	movw	r24, r28
    6056:	01 96       	adiw	r24, 0x01	; 1
    6058:	0e 94 95 21 	call	0x432a	;  0x432a
    605c:	ce 01       	movw	r24, r28
    605e:	0d 96       	adiw	r24, 0x0d	; 13
    6060:	0e 94 95 21 	call	0x432a	;  0x432a
    6064:	ce 01       	movw	r24, r28
    6066:	07 96       	adiw	r24, 0x07	; 7
    6068:	0e 94 95 21 	call	0x432a	;  0x432a
    606c:	0e 94 8d 29 	call	0x531a	;  0x531a
    6070:	f8 01       	movw	r30, r16
    6072:	e2 5d       	subi	r30, 0xD2	; 210
    6074:	f9 4f       	sbci	r31, 0xF9	; 249
    6076:	64 91       	lpm	r22, Z
    6078:	e0 91 3f 02 	lds	r30, 0x023F
    607c:	f0 91 40 02 	lds	r31, 0x0240
    6080:	00 84       	ldd	r0, Z+8	; 0x08
    6082:	f1 85       	ldd	r31, Z+9	; 0x09
    6084:	e0 2d       	mov	r30, r0
    6086:	40 e0       	ldi	r20, 0x00	; 0
    6088:	8f e3       	ldi	r24, 0x3F	; 63
    608a:	92 e0       	ldi	r25, 0x02	; 2
    608c:	09 95       	icall
    608e:	89 2b       	or	r24, r25
    6090:	51 f0       	breq	.+20     	;  0x60a6
    6092:	e0 91 3f 02 	lds	r30, 0x023F
    6096:	f0 91 40 02 	lds	r31, 0x0240
    609a:	06 80       	ldd	r0, Z+6	; 0x06
    609c:	f7 81       	ldd	r31, Z+7	; 0x07
    609e:	e0 2d       	mov	r30, r0
    60a0:	8f e3       	ldi	r24, 0x3F	; 63
    60a2:	92 e0       	ldi	r25, 0x02	; 2
    60a4:	09 95       	icall
    60a6:	80 91 32 01 	lds	r24, 0x0132
    60aa:	81 11       	cpse	r24, r1
    60ac:	10 92 aa 06 	sts	0x06AA, r1
    60b0:	8e 2d       	mov	r24, r14
    60b2:	0e 94 1b 2d 	call	0x5a36	;  0x5a36
    60b6:	61 e0       	ldi	r22, 0x01	; 1
    60b8:	85 e0       	ldi	r24, 0x05	; 5
    60ba:	0e 94 17 21 	call	0x422e	;  0x422e
    60be:	68 e2       	ldi	r22, 0x28	; 40
    60c0:	70 e0       	ldi	r23, 0x00	; 0
    60c2:	80 e0       	ldi	r24, 0x00	; 0
    60c4:	90 e0       	ldi	r25, 0x00	; 0
    60c6:	0e 94 01 20 	call	0x4002	;  0x4002
    60ca:	60 e0       	ldi	r22, 0x00	; 0
    60cc:	85 e0       	ldi	r24, 0x05	; 5
    60ce:	0e 94 17 21 	call	0x422e	;  0x422e
    60d2:	62 96       	adiw	r28, 0x12	; 18
    60d4:	0f b6       	in	r0, 0x3f	; 63
    60d6:	f8 94       	cli
    60d8:	de bf       	out	0x3e, r29	; 62
    60da:	0f be       	out	0x3f, r0	; 63
    60dc:	cd bf       	out	0x3d, r28	; 61
    60de:	df 91       	pop	r29
    60e0:	cf 91       	pop	r28
    60e2:	1f 91       	pop	r17
    60e4:	0f 91       	pop	r16
    60e6:	ff 90       	pop	r15
    60e8:	ef 90       	pop	r14
    60ea:	df 90       	pop	r13
    60ec:	08 95       	ret
    60ee:	0e 94 01 31 	call	0x6202	;  0x6202
    60f2:	a5 9f       	mul	r26, r21
    60f4:	90 0d       	add	r25, r0
    60f6:	b4 9f       	mul	r27, r20
    60f8:	90 0d       	add	r25, r0
    60fa:	a4 9f       	mul	r26, r20
    60fc:	80 0d       	add	r24, r0
    60fe:	91 1d       	adc	r25, r1
    6100:	11 24       	eor	r1, r1
    6102:	08 95       	ret
    6104:	db 01       	movw	r26, r22
    6106:	8f 93       	push	r24
    6108:	9f 93       	push	r25
    610a:	0e 94 77 30 	call	0x60ee	;  0x60ee
    610e:	bf 91       	pop	r27
    6110:	af 91       	pop	r26
    6112:	a2 9f       	mul	r26, r18
    6114:	80 0d       	add	r24, r0
    6116:	91 1d       	adc	r25, r1
    6118:	a3 9f       	mul	r26, r19
    611a:	90 0d       	add	r25, r0
    611c:	b2 9f       	mul	r27, r18
    611e:	90 0d       	add	r25, r0
    6120:	11 24       	eor	r1, r1
    6122:	08 95       	ret
    6124:	aa 1b       	sub	r26, r26
    6126:	bb 1b       	sub	r27, r27
    6128:	51 e1       	ldi	r21, 0x11	; 17
    612a:	07 c0       	rjmp	.+14     	;  0x613a
    612c:	aa 1f       	adc	r26, r26
    612e:	bb 1f       	adc	r27, r27
    6130:	a6 17       	cp	r26, r22
    6132:	b7 07       	cpc	r27, r23
    6134:	10 f0       	brcs	.+4      	;  0x613a
    6136:	a6 1b       	sub	r26, r22
    6138:	b7 0b       	sbc	r27, r23
    613a:	88 1f       	adc	r24, r24
    613c:	99 1f       	adc	r25, r25
    613e:	5a 95       	dec	r21
    6140:	a9 f7       	brne	.-22     	;  0x612c
    6142:	80 95       	com	r24
    6144:	90 95       	com	r25
    6146:	bc 01       	movw	r22, r24
    6148:	cd 01       	movw	r24, r26
    614a:	08 95       	ret
    614c:	97 fb       	bst	r25, 7
    614e:	07 2e       	mov	r0, r23
    6150:	16 f4       	brtc	.+4      	;  0x6156
    6152:	00 94       	com	r0
    6154:	07 d0       	rcall	.+14     	;  0x6164
    6156:	77 fd       	sbrc	r23, 7
    6158:	09 d0       	rcall	.+18     	;  0x616c
    615a:	0e 94 92 30 	call	0x6124	;  0x6124
    615e:	07 fc       	sbrc	r0, 7
    6160:	05 d0       	rcall	.+10     	;  0x616c
    6162:	3e f4       	brtc	.+14     	;  0x6172
    6164:	90 95       	com	r25
    6166:	81 95       	neg	r24
    6168:	9f 4f       	sbci	r25, 0xFF	; 255
    616a:	08 95       	ret
    616c:	70 95       	com	r23
    616e:	61 95       	neg	r22
    6170:	7f 4f       	sbci	r23, 0xFF	; 255
    6172:	08 95       	ret
    6174:	a1 e2       	ldi	r26, 0x21	; 33
    6176:	1a 2e       	mov	r1, r26
    6178:	aa 1b       	sub	r26, r26
    617a:	bb 1b       	sub	r27, r27
    617c:	fd 01       	movw	r30, r26
    617e:	0d c0       	rjmp	.+26     	;  0x619a
    6180:	aa 1f       	adc	r26, r26
    6182:	bb 1f       	adc	r27, r27
    6184:	ee 1f       	adc	r30, r30
    6186:	ff 1f       	adc	r31, r31
    6188:	a2 17       	cp	r26, r18
    618a:	b3 07       	cpc	r27, r19
    618c:	e4 07       	cpc	r30, r20
    618e:	f5 07       	cpc	r31, r21
    6190:	20 f0       	brcs	.+8      	;  0x619a
    6192:	a2 1b       	sub	r26, r18
    6194:	b3 0b       	sbc	r27, r19
    6196:	e4 0b       	sbc	r30, r20
    6198:	f5 0b       	sbc	r31, r21
    619a:	66 1f       	adc	r22, r22
    619c:	77 1f       	adc	r23, r23
    619e:	88 1f       	adc	r24, r24
    61a0:	99 1f       	adc	r25, r25
    61a2:	1a 94       	dec	r1
    61a4:	69 f7       	brne	.-38     	;  0x6180
    61a6:	60 95       	com	r22
    61a8:	70 95       	com	r23
    61aa:	80 95       	com	r24
    61ac:	90 95       	com	r25
    61ae:	9b 01       	movw	r18, r22
    61b0:	ac 01       	movw	r20, r24
    61b2:	bd 01       	movw	r22, r26
    61b4:	cf 01       	movw	r24, r30
    61b6:	08 95       	ret
    61b8:	05 2e       	mov	r0, r21
    61ba:	97 fb       	bst	r25, 7
    61bc:	1e f4       	brtc	.+6      	;  0x61c4
    61be:	00 94       	com	r0
    61c0:	0e 94 f3 30 	call	0x61e6	;  0x61e6
    61c4:	57 fd       	sbrc	r21, 7
    61c6:	07 d0       	rcall	.+14     	;  0x61d6
    61c8:	0e 94 ba 30 	call	0x6174	;  0x6174
    61cc:	07 fc       	sbrc	r0, 7
    61ce:	03 d0       	rcall	.+6      	;  0x61d6
    61d0:	4e f4       	brtc	.+18     	;  0x61e4
    61d2:	0c 94 f3 30 	jmp	0x61e6	;  0x61e6
    61d6:	50 95       	com	r21
    61d8:	40 95       	com	r20
    61da:	30 95       	com	r19
    61dc:	21 95       	neg	r18
    61de:	3f 4f       	sbci	r19, 0xFF	; 255
    61e0:	4f 4f       	sbci	r20, 0xFF	; 255
    61e2:	5f 4f       	sbci	r21, 0xFF	; 255
    61e4:	08 95       	ret
    61e6:	90 95       	com	r25
    61e8:	80 95       	com	r24
    61ea:	70 95       	com	r23
    61ec:	61 95       	neg	r22
    61ee:	7f 4f       	sbci	r23, 0xFF	; 255
    61f0:	8f 4f       	sbci	r24, 0xFF	; 255
    61f2:	9f 4f       	sbci	r25, 0xFF	; 255
    61f4:	08 95       	ret
    61f6:	ee 0f       	add	r30, r30
    61f8:	ff 1f       	adc	r31, r31
    61fa:	05 90       	lpm	r0, Z+
    61fc:	f4 91       	lpm	r31, Z
    61fe:	e0 2d       	mov	r30, r0
    6200:	09 94       	ijmp
    6202:	a2 9f       	mul	r26, r18
    6204:	b0 01       	movw	r22, r0
    6206:	b3 9f       	mul	r27, r19
    6208:	c0 01       	movw	r24, r0
    620a:	a3 9f       	mul	r26, r19
    620c:	70 0d       	add	r23, r0
    620e:	81 1d       	adc	r24, r1
    6210:	11 24       	eor	r1, r1
    6212:	91 1d       	adc	r25, r1
    6214:	b2 9f       	mul	r27, r18
    6216:	70 0d       	add	r23, r0
    6218:	81 1d       	adc	r24, r1
    621a:	11 24       	eor	r1, r1
    621c:	91 1d       	adc	r25, r1
    621e:	08 95       	ret
    6220:	cf 93       	push	r28
    6222:	df 93       	push	r29
    6224:	82 30       	cpi	r24, 0x02	; 2
    6226:	91 05       	cpc	r25, r1
    6228:	10 f4       	brcc	.+4      	;  0x622e
    622a:	82 e0       	ldi	r24, 0x02	; 2
    622c:	90 e0       	ldi	r25, 0x00	; 0
    622e:	e0 91 cc 06 	lds	r30, 0x06CC
    6232:	f0 91 cd 06 	lds	r31, 0x06CD
    6236:	20 e0       	ldi	r18, 0x00	; 0
    6238:	30 e0       	ldi	r19, 0x00	; 0
    623a:	c0 e0       	ldi	r28, 0x00	; 0
    623c:	d0 e0       	ldi	r29, 0x00	; 0
    623e:	30 97       	sbiw	r30, 0x00	; 0
    6240:	11 f1       	breq	.+68     	;  0x6286
    6242:	40 81       	ld	r20, Z
    6244:	51 81       	ldd	r21, Z+1	; 0x01
    6246:	48 17       	cp	r20, r24
    6248:	59 07       	cpc	r21, r25
    624a:	c0 f0       	brcs	.+48     	;  0x627c
    624c:	48 17       	cp	r20, r24
    624e:	59 07       	cpc	r21, r25
    6250:	61 f4       	brne	.+24     	;  0x626a
    6252:	82 81       	ldd	r24, Z+2	; 0x02
    6254:	93 81       	ldd	r25, Z+3	; 0x03
    6256:	20 97       	sbiw	r28, 0x00	; 0
    6258:	19 f0       	breq	.+6      	;  0x6260
    625a:	9b 83       	std	Y+3, r25	; 0x03
    625c:	8a 83       	std	Y+2, r24	; 0x02
    625e:	2b c0       	rjmp	.+86     	;  0x62b6
    6260:	90 93 cd 06 	sts	0x06CD, r25
    6264:	80 93 cc 06 	sts	0x06CC, r24
    6268:	26 c0       	rjmp	.+76     	;  0x62b6
    626a:	21 15       	cp	r18, r1
    626c:	31 05       	cpc	r19, r1
    626e:	19 f0       	breq	.+6      	;  0x6276
    6270:	42 17       	cp	r20, r18
    6272:	53 07       	cpc	r21, r19
    6274:	18 f4       	brcc	.+6      	;  0x627c
    6276:	9a 01       	movw	r18, r20
    6278:	be 01       	movw	r22, r28
    627a:	df 01       	movw	r26, r30
    627c:	ef 01       	movw	r28, r30
    627e:	02 80       	ldd	r0, Z+2	; 0x02
    6280:	f3 81       	ldd	r31, Z+3	; 0x03
    6282:	e0 2d       	mov	r30, r0
    6284:	dc cf       	rjmp	.-72     	;  0x623e
    6286:	21 15       	cp	r18, r1
    6288:	31 05       	cpc	r19, r1
    628a:	09 f1       	breq	.+66     	;  0x62ce
    628c:	28 1b       	sub	r18, r24
    628e:	39 0b       	sbc	r19, r25
    6290:	24 30       	cpi	r18, 0x04	; 4
    6292:	31 05       	cpc	r19, r1
    6294:	90 f4       	brcc	.+36     	;  0x62ba
    6296:	12 96       	adiw	r26, 0x02	; 2
    6298:	8d 91       	ld	r24, X+
    629a:	9c 91       	ld	r25, X
    629c:	13 97       	sbiw	r26, 0x03	; 3
    629e:	61 15       	cp	r22, r1
    62a0:	71 05       	cpc	r23, r1
    62a2:	21 f0       	breq	.+8      	;  0x62ac
    62a4:	fb 01       	movw	r30, r22
    62a6:	93 83       	std	Z+3, r25	; 0x03
    62a8:	82 83       	std	Z+2, r24	; 0x02
    62aa:	04 c0       	rjmp	.+8      	;  0x62b4
    62ac:	90 93 cd 06 	sts	0x06CD, r25
    62b0:	80 93 cc 06 	sts	0x06CC, r24
    62b4:	fd 01       	movw	r30, r26
    62b6:	32 96       	adiw	r30, 0x02	; 2
    62b8:	44 c0       	rjmp	.+136    	;  0x6342
    62ba:	fd 01       	movw	r30, r26
    62bc:	e2 0f       	add	r30, r18
    62be:	f3 1f       	adc	r31, r19
    62c0:	81 93       	st	Z+, r24
    62c2:	91 93       	st	Z+, r25
    62c4:	22 50       	subi	r18, 0x02	; 2
    62c6:	31 09       	sbc	r19, r1
    62c8:	2d 93       	st	X+, r18
    62ca:	3c 93       	st	X, r19
    62cc:	3a c0       	rjmp	.+116    	;  0x6342
    62ce:	20 91 ca 06 	lds	r18, 0x06CA
    62d2:	30 91 cb 06 	lds	r19, 0x06CB
    62d6:	23 2b       	or	r18, r19
    62d8:	41 f4       	brne	.+16     	;  0x62ea
    62da:	20 91 02 01 	lds	r18, 0x0102
    62de:	30 91 03 01 	lds	r19, 0x0103
    62e2:	30 93 cb 06 	sts	0x06CB, r19
    62e6:	20 93 ca 06 	sts	0x06CA, r18
    62ea:	20 91 00 01 	lds	r18, 0x0100
    62ee:	30 91 01 01 	lds	r19, 0x0101
    62f2:	21 15       	cp	r18, r1
    62f4:	31 05       	cpc	r19, r1
    62f6:	41 f4       	brne	.+16     	;  0x6308
    62f8:	2d b7       	in	r18, 0x3d	; 61
    62fa:	3e b7       	in	r19, 0x3e	; 62
    62fc:	40 91 04 01 	lds	r20, 0x0104
    6300:	50 91 05 01 	lds	r21, 0x0105
    6304:	24 1b       	sub	r18, r20
    6306:	35 0b       	sbc	r19, r21
    6308:	e0 91 ca 06 	lds	r30, 0x06CA
    630c:	f0 91 cb 06 	lds	r31, 0x06CB
    6310:	e2 17       	cp	r30, r18
    6312:	f3 07       	cpc	r31, r19
    6314:	a0 f4       	brcc	.+40     	;  0x633e
    6316:	2e 1b       	sub	r18, r30
    6318:	3f 0b       	sbc	r19, r31
    631a:	28 17       	cp	r18, r24
    631c:	39 07       	cpc	r19, r25
    631e:	78 f0       	brcs	.+30     	;  0x633e
    6320:	ac 01       	movw	r20, r24
    6322:	4e 5f       	subi	r20, 0xFE	; 254
    6324:	5f 4f       	sbci	r21, 0xFF	; 255
    6326:	24 17       	cp	r18, r20
    6328:	35 07       	cpc	r19, r21
    632a:	48 f0       	brcs	.+18     	;  0x633e
    632c:	4e 0f       	add	r20, r30
    632e:	5f 1f       	adc	r21, r31
    6330:	50 93 cb 06 	sts	0x06CB, r21
    6334:	40 93 ca 06 	sts	0x06CA, r20
    6338:	81 93       	st	Z+, r24
    633a:	91 93       	st	Z+, r25
    633c:	02 c0       	rjmp	.+4      	;  0x6342
    633e:	e0 e0       	ldi	r30, 0x00	; 0
    6340:	f0 e0       	ldi	r31, 0x00	; 0
    6342:	cf 01       	movw	r24, r30
    6344:	df 91       	pop	r29
    6346:	cf 91       	pop	r28
    6348:	08 95       	ret
    634a:	0f 93       	push	r16
    634c:	1f 93       	push	r17
    634e:	cf 93       	push	r28
    6350:	df 93       	push	r29
    6352:	00 97       	sbiw	r24, 0x00	; 0
    6354:	09 f4       	brne	.+2      	;  0x6358
    6356:	8c c0       	rjmp	.+280    	;  0x6470
    6358:	fc 01       	movw	r30, r24
    635a:	32 97       	sbiw	r30, 0x02	; 2
    635c:	13 82       	std	Z+3, r1	; 0x03
    635e:	12 82       	std	Z+2, r1	; 0x02
    6360:	00 91 cc 06 	lds	r16, 0x06CC
    6364:	10 91 cd 06 	lds	r17, 0x06CD
    6368:	01 15       	cp	r16, r1
    636a:	11 05       	cpc	r17, r1
    636c:	81 f4       	brne	.+32     	;  0x638e
    636e:	20 81       	ld	r18, Z
    6370:	31 81       	ldd	r19, Z+1	; 0x01
    6372:	82 0f       	add	r24, r18
    6374:	93 1f       	adc	r25, r19
    6376:	20 91 ca 06 	lds	r18, 0x06CA
    637a:	30 91 cb 06 	lds	r19, 0x06CB
    637e:	28 17       	cp	r18, r24
    6380:	39 07       	cpc	r19, r25
    6382:	79 f5       	brne	.+94     	;  0x63e2
    6384:	f0 93 cb 06 	sts	0x06CB, r31
    6388:	e0 93 ca 06 	sts	0x06CA, r30
    638c:	71 c0       	rjmp	.+226    	;  0x6470
    638e:	d8 01       	movw	r26, r16
    6390:	40 e0       	ldi	r20, 0x00	; 0
    6392:	50 e0       	ldi	r21, 0x00	; 0
    6394:	ae 17       	cp	r26, r30
    6396:	bf 07       	cpc	r27, r31
    6398:	50 f4       	brcc	.+20     	;  0x63ae
    639a:	12 96       	adiw	r26, 0x02	; 2
    639c:	2d 91       	ld	r18, X+
    639e:	3c 91       	ld	r19, X
    63a0:	13 97       	sbiw	r26, 0x03	; 3
    63a2:	ad 01       	movw	r20, r26
    63a4:	21 15       	cp	r18, r1
    63a6:	31 05       	cpc	r19, r1
    63a8:	09 f1       	breq	.+66     	;  0x63ec
    63aa:	d9 01       	movw	r26, r18
    63ac:	f3 cf       	rjmp	.-26     	;  0x6394
    63ae:	9d 01       	movw	r18, r26
    63b0:	da 01       	movw	r26, r20
    63b2:	33 83       	std	Z+3, r19	; 0x03
    63b4:	22 83       	std	Z+2, r18	; 0x02
    63b6:	60 81       	ld	r22, Z
    63b8:	71 81       	ldd	r23, Z+1	; 0x01
    63ba:	86 0f       	add	r24, r22
    63bc:	97 1f       	adc	r25, r23
    63be:	82 17       	cp	r24, r18
    63c0:	93 07       	cpc	r25, r19
    63c2:	69 f4       	brne	.+26     	;  0x63de
    63c4:	ec 01       	movw	r28, r24
    63c6:	28 81       	ld	r18, Y
    63c8:	39 81       	ldd	r19, Y+1	; 0x01
    63ca:	26 0f       	add	r18, r22
    63cc:	37 1f       	adc	r19, r23
    63ce:	2e 5f       	subi	r18, 0xFE	; 254
    63d0:	3f 4f       	sbci	r19, 0xFF	; 255
    63d2:	31 83       	std	Z+1, r19	; 0x01
    63d4:	20 83       	st	Z, r18
    63d6:	8a 81       	ldd	r24, Y+2	; 0x02
    63d8:	9b 81       	ldd	r25, Y+3	; 0x03
    63da:	93 83       	std	Z+3, r25	; 0x03
    63dc:	82 83       	std	Z+2, r24	; 0x02
    63de:	45 2b       	or	r20, r21
    63e0:	29 f4       	brne	.+10     	;  0x63ec
    63e2:	f0 93 cd 06 	sts	0x06CD, r31
    63e6:	e0 93 cc 06 	sts	0x06CC, r30
    63ea:	42 c0       	rjmp	.+132    	;  0x6470
    63ec:	13 96       	adiw	r26, 0x03	; 3
    63ee:	fc 93       	st	X, r31
    63f0:	ee 93       	st	-X, r30
    63f2:	12 97       	sbiw	r26, 0x02	; 2
    63f4:	ed 01       	movw	r28, r26
    63f6:	49 91       	ld	r20, Y+
    63f8:	59 91       	ld	r21, Y+
    63fa:	9e 01       	movw	r18, r28
    63fc:	24 0f       	add	r18, r20
    63fe:	35 1f       	adc	r19, r21
    6400:	e2 17       	cp	r30, r18
    6402:	f3 07       	cpc	r31, r19
    6404:	71 f4       	brne	.+28     	;  0x6422
    6406:	80 81       	ld	r24, Z
    6408:	91 81       	ldd	r25, Z+1	; 0x01
    640a:	84 0f       	add	r24, r20
    640c:	95 1f       	adc	r25, r21
    640e:	02 96       	adiw	r24, 0x02	; 2
    6410:	11 96       	adiw	r26, 0x01	; 1
    6412:	9c 93       	st	X, r25
    6414:	8e 93       	st	-X, r24
    6416:	82 81       	ldd	r24, Z+2	; 0x02
    6418:	93 81       	ldd	r25, Z+3	; 0x03
    641a:	13 96       	adiw	r26, 0x03	; 3
    641c:	9c 93       	st	X, r25
    641e:	8e 93       	st	-X, r24
    6420:	12 97       	sbiw	r26, 0x02	; 2
    6422:	e0 e0       	ldi	r30, 0x00	; 0
    6424:	f0 e0       	ldi	r31, 0x00	; 0
    6426:	d8 01       	movw	r26, r16
    6428:	12 96       	adiw	r26, 0x02	; 2
    642a:	8d 91       	ld	r24, X+
    642c:	9c 91       	ld	r25, X
    642e:	13 97       	sbiw	r26, 0x03	; 3
    6430:	00 97       	sbiw	r24, 0x00	; 0
    6432:	19 f0       	breq	.+6      	;  0x643a
    6434:	f8 01       	movw	r30, r16
    6436:	8c 01       	movw	r16, r24
    6438:	f6 cf       	rjmp	.-20     	;  0x6426
    643a:	8d 91       	ld	r24, X+
    643c:	9c 91       	ld	r25, X
    643e:	98 01       	movw	r18, r16
    6440:	2e 5f       	subi	r18, 0xFE	; 254
    6442:	3f 4f       	sbci	r19, 0xFF	; 255
    6444:	82 0f       	add	r24, r18
    6446:	93 1f       	adc	r25, r19
    6448:	20 91 ca 06 	lds	r18, 0x06CA
    644c:	30 91 cb 06 	lds	r19, 0x06CB
    6450:	28 17       	cp	r18, r24
    6452:	39 07       	cpc	r19, r25
    6454:	69 f4       	brne	.+26     	;  0x6470
    6456:	30 97       	sbiw	r30, 0x00	; 0
    6458:	29 f4       	brne	.+10     	;  0x6464
    645a:	10 92 cd 06 	sts	0x06CD, r1
    645e:	10 92 cc 06 	sts	0x06CC, r1
    6462:	02 c0       	rjmp	.+4      	;  0x6468
    6464:	13 82       	std	Z+3, r1	; 0x03
    6466:	12 82       	std	Z+2, r1	; 0x02
    6468:	10 93 cb 06 	sts	0x06CB, r17
    646c:	00 93 ca 06 	sts	0x06CA, r16
    6470:	df 91       	pop	r29
    6472:	cf 91       	pop	r28
    6474:	1f 91       	pop	r17
    6476:	0f 91       	pop	r16
    6478:	08 95       	ret
    647a:	a0 e0       	ldi	r26, 0x00	; 0
    647c:	b0 e0       	ldi	r27, 0x00	; 0
    647e:	e3 e4       	ldi	r30, 0x43	; 67
    6480:	f2 e3       	ldi	r31, 0x32	; 50
    6482:	0c 94 80 36 	jmp	0x6d00	;  0x6d00
    6486:	ec 01       	movw	r28, r24
    6488:	00 97       	sbiw	r24, 0x00	; 0
    648a:	21 f4       	brne	.+8      	;  0x6494
    648c:	cb 01       	movw	r24, r22
    648e:	0e 94 10 31 	call	0x6220	;  0x6220
    6492:	b2 c0       	rjmp	.+356    	;  0x65f8
    6494:	fc 01       	movw	r30, r24
    6496:	e6 0f       	add	r30, r22
    6498:	f7 1f       	adc	r31, r23
    649a:	9c 01       	movw	r18, r24
    649c:	22 50       	subi	r18, 0x02	; 2
    649e:	31 09       	sbc	r19, r1
    64a0:	e2 17       	cp	r30, r18
    64a2:	f3 07       	cpc	r31, r19
    64a4:	08 f4       	brcc	.+2      	;  0x64a8
    64a6:	a6 c0       	rjmp	.+332    	;  0x65f4
    64a8:	d9 01       	movw	r26, r18
    64aa:	0d 91       	ld	r16, X+
    64ac:	1c 91       	ld	r17, X
    64ae:	11 97       	sbiw	r26, 0x01	; 1
    64b0:	06 17       	cp	r16, r22
    64b2:	17 07       	cpc	r17, r23
    64b4:	b0 f0       	brcs	.+44     	;  0x64e2
    64b6:	05 30       	cpi	r16, 0x05	; 5
    64b8:	11 05       	cpc	r17, r1
    64ba:	08 f4       	brcc	.+2      	;  0x64be
    64bc:	99 c0       	rjmp	.+306    	;  0x65f0
    64be:	c8 01       	movw	r24, r16
    64c0:	04 97       	sbiw	r24, 0x04	; 4
    64c2:	86 17       	cp	r24, r22
    64c4:	97 07       	cpc	r25, r23
    64c6:	08 f4       	brcc	.+2      	;  0x64ca
    64c8:	93 c0       	rjmp	.+294    	;  0x65f0
    64ca:	02 50       	subi	r16, 0x02	; 2
    64cc:	11 09       	sbc	r17, r1
    64ce:	06 1b       	sub	r16, r22
    64d0:	17 0b       	sbc	r17, r23
    64d2:	01 93       	st	Z+, r16
    64d4:	11 93       	st	Z+, r17
    64d6:	6d 93       	st	X+, r22
    64d8:	7c 93       	st	X, r23
    64da:	cf 01       	movw	r24, r30
    64dc:	0e 94 a5 31 	call	0x634a	;  0x634a
    64e0:	87 c0       	rjmp	.+270    	;  0x65f0
    64e2:	7b 01       	movw	r14, r22
    64e4:	e0 1a       	sub	r14, r16
    64e6:	f1 0a       	sbc	r15, r17
    64e8:	3c 01       	movw	r6, r24
    64ea:	60 0e       	add	r6, r16
    64ec:	71 1e       	adc	r7, r17
    64ee:	a0 91 cc 06 	lds	r26, 0x06CC
    64f2:	b0 91 cd 06 	lds	r27, 0x06CD
    64f6:	80 e0       	ldi	r24, 0x00	; 0
    64f8:	90 e0       	ldi	r25, 0x00	; 0
    64fa:	81 2c       	mov	r8, r1
    64fc:	91 2c       	mov	r9, r1
    64fe:	10 97       	sbiw	r26, 0x00	; 0
    6500:	09 f4       	brne	.+2      	;  0x6504
    6502:	44 c0       	rjmp	.+136    	;  0x658c
    6504:	ad 90       	ld	r10, X+
    6506:	bc 90       	ld	r11, X
    6508:	11 97       	sbiw	r26, 0x01	; 1
    650a:	a6 15       	cp	r26, r6
    650c:	b7 05       	cpc	r27, r7
    650e:	a1 f5       	brne	.+104    	;  0x6578
    6510:	65 01       	movw	r12, r10
    6512:	42 e0       	ldi	r20, 0x02	; 2
    6514:	c4 0e       	add	r12, r20
    6516:	d1 1c       	adc	r13, r1
    6518:	ce 14       	cp	r12, r14
    651a:	df 04       	cpc	r13, r15
    651c:	68 f1       	brcs	.+90     	;  0x6578
    651e:	c5 01       	movw	r24, r10
    6520:	8e 19       	sub	r24, r14
    6522:	9f 09       	sbc	r25, r15
    6524:	ac 01       	movw	r20, r24
    6526:	4e 5f       	subi	r20, 0xFE	; 254
    6528:	5f 4f       	sbci	r21, 0xFF	; 255
    652a:	12 96       	adiw	r26, 0x02	; 2
    652c:	fc 90       	ld	r15, X
    652e:	12 97       	sbiw	r26, 0x02	; 2
    6530:	13 96       	adiw	r26, 0x03	; 3
    6532:	ac 91       	ld	r26, X
    6534:	45 30       	cpi	r20, 0x05	; 5
    6536:	51 05       	cpc	r21, r1
    6538:	40 f0       	brcs	.+16     	;  0x654a
    653a:	f2 82       	std	Z+2, r15	; 0x02
    653c:	a3 83       	std	Z+3, r26	; 0x03
    653e:	91 83       	std	Z+1, r25	; 0x01
    6540:	80 83       	st	Z, r24
    6542:	d9 01       	movw	r26, r18
    6544:	6d 93       	st	X+, r22
    6546:	7c 93       	st	X, r23
    6548:	09 c0       	rjmp	.+18     	;  0x655c
    654a:	0e 5f       	subi	r16, 0xFE	; 254
    654c:	1f 4f       	sbci	r17, 0xFF	; 255
    654e:	a0 0e       	add	r10, r16
    6550:	b1 1e       	adc	r11, r17
    6552:	f9 01       	movw	r30, r18
    6554:	b1 82       	std	Z+1, r11	; 0x01
    6556:	a0 82       	st	Z, r10
    6558:	ef 2d       	mov	r30, r15
    655a:	fa 2f       	mov	r31, r26
    655c:	81 14       	cp	r8, r1
    655e:	91 04       	cpc	r9, r1
    6560:	31 f0       	breq	.+12     	;  0x656e
    6562:	d4 01       	movw	r26, r8
    6564:	13 96       	adiw	r26, 0x03	; 3
    6566:	fc 93       	st	X, r31
    6568:	ee 93       	st	-X, r30
    656a:	12 97       	sbiw	r26, 0x02	; 2
    656c:	41 c0       	rjmp	.+130    	;  0x65f0
    656e:	f0 93 cd 06 	sts	0x06CD, r31
    6572:	e0 93 cc 06 	sts	0x06CC, r30
    6576:	3c c0       	rjmp	.+120    	;  0x65f0
    6578:	8a 15       	cp	r24, r10
    657a:	9b 05       	cpc	r25, r11
    657c:	08 f4       	brcc	.+2      	;  0x6580
    657e:	c5 01       	movw	r24, r10
    6580:	4d 01       	movw	r8, r26
    6582:	12 96       	adiw	r26, 0x02	; 2
    6584:	0d 90       	ld	r0, X+
    6586:	bc 91       	ld	r27, X
    6588:	a0 2d       	mov	r26, r0
    658a:	b9 cf       	rjmp	.-142    	;  0x64fe
    658c:	a0 91 ca 06 	lds	r26, 0x06CA
    6590:	b0 91 cb 06 	lds	r27, 0x06CB
    6594:	a6 15       	cp	r26, r6
    6596:	b7 05       	cpc	r27, r7
    6598:	e1 f4       	brne	.+56     	;  0x65d2
    659a:	86 17       	cp	r24, r22
    659c:	97 07       	cpc	r25, r23
    659e:	c8 f4       	brcc	.+50     	;  0x65d2
    65a0:	80 91 00 01 	lds	r24, 0x0100
    65a4:	90 91 01 01 	lds	r25, 0x0101
    65a8:	00 97       	sbiw	r24, 0x00	; 0
    65aa:	41 f4       	brne	.+16     	;  0x65bc
    65ac:	8d b7       	in	r24, 0x3d	; 61
    65ae:	9e b7       	in	r25, 0x3e	; 62
    65b0:	40 91 04 01 	lds	r20, 0x0104
    65b4:	50 91 05 01 	lds	r21, 0x0105
    65b8:	84 1b       	sub	r24, r20
    65ba:	95 0b       	sbc	r25, r21
    65bc:	e8 17       	cp	r30, r24
    65be:	f9 07       	cpc	r31, r25
    65c0:	c8 f4       	brcc	.+50     	;  0x65f4
    65c2:	f0 93 cb 06 	sts	0x06CB, r31
    65c6:	e0 93 ca 06 	sts	0x06CA, r30
    65ca:	f9 01       	movw	r30, r18
    65cc:	71 83       	std	Z+1, r23	; 0x01
    65ce:	60 83       	st	Z, r22
    65d0:	0f c0       	rjmp	.+30     	;  0x65f0
    65d2:	cb 01       	movw	r24, r22
    65d4:	0e 94 10 31 	call	0x6220	;  0x6220
    65d8:	7c 01       	movw	r14, r24
    65da:	00 97       	sbiw	r24, 0x00	; 0
    65dc:	59 f0       	breq	.+22     	;  0x65f4
    65de:	a8 01       	movw	r20, r16
    65e0:	be 01       	movw	r22, r28
    65e2:	0e 94 16 33 	call	0x662c	;  0x662c
    65e6:	ce 01       	movw	r24, r28
    65e8:	0e 94 a5 31 	call	0x634a	;  0x634a
    65ec:	c7 01       	movw	r24, r14
    65ee:	04 c0       	rjmp	.+8      	;  0x65f8
    65f0:	ce 01       	movw	r24, r28
    65f2:	02 c0       	rjmp	.+4      	;  0x65f8
    65f4:	80 e0       	ldi	r24, 0x00	; 0
    65f6:	90 e0       	ldi	r25, 0x00	; 0
    65f8:	cd b7       	in	r28, 0x3d	; 61
    65fa:	de b7       	in	r29, 0x3e	; 62
    65fc:	ee e0       	ldi	r30, 0x0E	; 14
    65fe:	0c 94 9c 36 	jmp	0x6d38	;  0x6d38
    6602:	81 e0       	ldi	r24, 0x01	; 1
    6604:	90 e0       	ldi	r25, 0x00	; 0
    6606:	f8 94       	cli
    6608:	0c 94 b3 36 	jmp	0x6d66	;  0x6d66
    660c:	fb 01       	movw	r30, r22
    660e:	dc 01       	movw	r26, r24
    6610:	05 90       	lpm	r0, Z+
    6612:	0d 92       	st	X+, r0
    6614:	00 20       	and	r0, r0
    6616:	e1 f7       	brne	.-8      	;  0x6610
    6618:	08 95       	ret
    661a:	fc 01       	movw	r30, r24
    661c:	05 90       	lpm	r0, Z+
    661e:	00 20       	and	r0, r0
    6620:	e9 f7       	brne	.-6      	;  0x661c
    6622:	80 95       	com	r24
    6624:	90 95       	com	r25
    6626:	8e 0f       	add	r24, r30
    6628:	9f 1f       	adc	r25, r31
    662a:	08 95       	ret
    662c:	fb 01       	movw	r30, r22
    662e:	dc 01       	movw	r26, r24
    6630:	02 c0       	rjmp	.+4      	;  0x6636
    6632:	01 90       	ld	r0, Z+
    6634:	0d 92       	st	X+, r0
    6636:	41 50       	subi	r20, 0x01	; 1
    6638:	50 40       	sbci	r21, 0x00	; 0
    663a:	d8 f7       	brcc	.-10     	;  0x6632
    663c:	08 95       	ret
    663e:	fb 01       	movw	r30, r22
    6640:	dc 01       	movw	r26, r24
    6642:	01 90       	ld	r0, Z+
    6644:	0d 92       	st	X+, r0
    6646:	00 20       	and	r0, r0
    6648:	e1 f7       	brne	.-8      	;  0x6642
    664a:	08 95       	ret
    664c:	fb 01       	movw	r30, r22
    664e:	dc 01       	movw	r26, r24
    6650:	41 50       	subi	r20, 0x01	; 1
    6652:	50 40       	sbci	r21, 0x00	; 0
    6654:	48 f0       	brcs	.+18     	;  0x6668
    6656:	01 90       	ld	r0, Z+
    6658:	0d 92       	st	X+, r0
    665a:	00 20       	and	r0, r0
    665c:	c9 f7       	brne	.-14     	;  0x6650
    665e:	01 c0       	rjmp	.+2      	;  0x6662
    6660:	1d 92       	st	X+, r1
    6662:	41 50       	subi	r20, 0x01	; 1
    6664:	50 40       	sbci	r21, 0x00	; 0
    6666:	e0 f7       	brcc	.-8      	;  0x6660
    6668:	08 95       	ret
    666a:	bb 27       	eor	r27, r27
    666c:	4a 30       	cpi	r20, 0x0A	; 10
    666e:	31 f4       	brne	.+12     	;  0x667c
    6670:	99 23       	and	r25, r25
    6672:	22 f4       	brpl	.+8      	;  0x667c
    6674:	bd e2       	ldi	r27, 0x2D	; 45
    6676:	90 95       	com	r25
    6678:	81 95       	neg	r24
    667a:	9f 4f       	sbci	r25, 0xFF	; 255
    667c:	0c 94 41 33 	jmp	0x6682	;  0x6682
    6680:	bb 27       	eor	r27, r27
    6682:	fb 01       	movw	r30, r22
    6684:	55 27       	eor	r21, r21
    6686:	aa 27       	eor	r26, r26
    6688:	88 0f       	add	r24, r24
    668a:	99 1f       	adc	r25, r25
    668c:	aa 1f       	adc	r26, r26
    668e:	a4 17       	cp	r26, r20
    6690:	10 f0       	brcs	.+4      	;  0x6696
    6692:	a4 1b       	sub	r26, r20
    6694:	83 95       	inc	r24
    6696:	50 51       	subi	r21, 0x10	; 16
    6698:	b9 f7       	brne	.-18     	;  0x6688
    669a:	a0 5d       	subi	r26, 0xD0	; 208
    669c:	aa 33       	cpi	r26, 0x3A	; 58
    669e:	08 f0       	brcs	.+2      	;  0x66a2
    66a0:	a9 5d       	subi	r26, 0xD9	; 217
    66a2:	a1 93       	st	Z+, r26
    66a4:	00 97       	sbiw	r24, 0x00	; 0
    66a6:	79 f7       	brne	.-34     	;  0x6686
    66a8:	b1 11       	cpse	r27, r1
    66aa:	b1 93       	st	Z+, r27
    66ac:	11 92       	st	Z+, r1
    66ae:	cb 01       	movw	r24, r22
    66b0:	0c 94 d6 35 	jmp	0x6bac	;  0x6bac
    66b4:	0f 93       	push	r16
    66b6:	1f 93       	push	r17
    66b8:	cf 93       	push	r28
    66ba:	df 93       	push	r29
    66bc:	00 97       	sbiw	r24, 0x00	; 0
    66be:	31 f4       	brne	.+12     	;  0x66cc
    66c0:	61 15       	cp	r22, r1
    66c2:	71 05       	cpc	r23, r1
    66c4:	19 f4       	brne	.+6      	;  0x66cc
    66c6:	80 e0       	ldi	r24, 0x00	; 0
    66c8:	90 e0       	ldi	r25, 0x00	; 0
    66ca:	3a c0       	rjmp	.+116    	;  0x6740
    66cc:	8b 01       	movw	r16, r22
    66ce:	ec 01       	movw	r28, r24
    66d0:	6e e0       	ldi	r22, 0x0E	; 14
    66d2:	70 e0       	ldi	r23, 0x00	; 0
    66d4:	81 e0       	ldi	r24, 0x01	; 1
    66d6:	90 e0       	ldi	r25, 0x00	; 0
    66d8:	0e 94 9d 35 	call	0x6b3a	;  0x6b3a
    66dc:	fc 01       	movw	r30, r24
    66de:	89 2b       	or	r24, r25
    66e0:	91 f3       	breq	.-28     	;  0x66c6
    66e2:	80 e8       	ldi	r24, 0x80	; 128
    66e4:	83 83       	std	Z+3, r24	; 0x03
    66e6:	01 15       	cp	r16, r1
    66e8:	11 05       	cpc	r17, r1
    66ea:	71 f0       	breq	.+28     	;  0x6708
    66ec:	13 87       	std	Z+11, r17	; 0x0b
    66ee:	02 87       	std	Z+10, r16	; 0x0a
    66f0:	81 e8       	ldi	r24, 0x81	; 129
    66f2:	83 83       	std	Z+3, r24	; 0x03
    66f4:	80 91 ce 06 	lds	r24, 0x06CE
    66f8:	90 91 cf 06 	lds	r25, 0x06CF
    66fc:	89 2b       	or	r24, r25
    66fe:	21 f4       	brne	.+8      	;  0x6708
    6700:	f0 93 cf 06 	sts	0x06CF, r31
    6704:	e0 93 ce 06 	sts	0x06CE, r30
    6708:	20 97       	sbiw	r28, 0x00	; 0
    670a:	c9 f0       	breq	.+50     	;  0x673e
    670c:	d1 87       	std	Z+9, r29	; 0x09
    670e:	c0 87       	std	Z+8, r28	; 0x08
    6710:	83 81       	ldd	r24, Z+3	; 0x03
    6712:	82 60       	ori	r24, 0x02	; 2
    6714:	83 83       	std	Z+3, r24	; 0x03
    6716:	80 91 d0 06 	lds	r24, 0x06D0
    671a:	90 91 d1 06 	lds	r25, 0x06D1
    671e:	89 2b       	or	r24, r25
    6720:	71 f4       	brne	.+28     	;  0x673e
    6722:	f0 93 d1 06 	sts	0x06D1, r31
    6726:	e0 93 d0 06 	sts	0x06D0, r30
    672a:	80 91 d2 06 	lds	r24, 0x06D2
    672e:	90 91 d3 06 	lds	r25, 0x06D3
    6732:	89 2b       	or	r24, r25
    6734:	21 f4       	brne	.+8      	;  0x673e
    6736:	f0 93 d3 06 	sts	0x06D3, r31
    673a:	e0 93 d2 06 	sts	0x06D2, r30
    673e:	cf 01       	movw	r24, r30
    6740:	df 91       	pop	r29
    6742:	cf 91       	pop	r28
    6744:	1f 91       	pop	r17
    6746:	0f 91       	pop	r16
    6748:	08 95       	ret
    674a:	a0 e0       	ldi	r26, 0x00	; 0
    674c:	b0 e0       	ldi	r27, 0x00	; 0
    674e:	eb ea       	ldi	r30, 0xAB	; 171
    6750:	f3 e3       	ldi	r31, 0x33	; 51
    6752:	0c 94 8a 36 	jmp	0x6d14	;  0x6d14
    6756:	ae 01       	movw	r20, r28
    6758:	49 5f       	subi	r20, 0xF9	; 249
    675a:	5f 4f       	sbci	r21, 0xFF	; 255
    675c:	da 01       	movw	r26, r20
    675e:	6d 91       	ld	r22, X+
    6760:	7d 91       	ld	r23, X+
    6762:	ad 01       	movw	r20, r26
    6764:	0e ec       	ldi	r16, 0xCE	; 206
    6766:	16 e0       	ldi	r17, 0x06	; 6
    6768:	f8 01       	movw	r30, r16
    676a:	82 81       	ldd	r24, Z+2	; 0x02
    676c:	93 81       	ldd	r25, Z+3	; 0x03
    676e:	dc 01       	movw	r26, r24
    6770:	13 96       	adiw	r26, 0x03	; 3
    6772:	2c 91       	ld	r18, X
    6774:	13 97       	sbiw	r26, 0x03	; 3
    6776:	28 60       	ori	r18, 0x08	; 8
    6778:	13 96       	adiw	r26, 0x03	; 3
    677a:	2c 93       	st	X, r18
    677c:	0e 94 cb 33 	call	0x6796	;  0x6796
    6780:	d8 01       	movw	r26, r16
    6782:	12 96       	adiw	r26, 0x02	; 2
    6784:	ed 91       	ld	r30, X+
    6786:	fc 91       	ld	r31, X
    6788:	13 97       	sbiw	r26, 0x03	; 3
    678a:	23 81       	ldd	r18, Z+3	; 0x03
    678c:	27 7f       	andi	r18, 0xF7	; 247
    678e:	23 83       	std	Z+3, r18	; 0x03
    6790:	e4 e0       	ldi	r30, 0x04	; 4
    6792:	0c 94 a6 36 	jmp	0x6d4c	;  0x6d4c
    6796:	ac e0       	ldi	r26, 0x0C	; 12
    6798:	b0 e0       	ldi	r27, 0x00	; 0
    679a:	e1 ed       	ldi	r30, 0xD1	; 209
    679c:	f3 e3       	ldi	r31, 0x33	; 51
    679e:	0c 94 7c 36 	jmp	0x6cf8	;  0x6cf8
    67a2:	7c 01       	movw	r14, r24
    67a4:	6b 01       	movw	r12, r22
    67a6:	8a 01       	movw	r16, r20
    67a8:	fc 01       	movw	r30, r24
    67aa:	17 82       	std	Z+7, r1	; 0x07
    67ac:	16 82       	std	Z+6, r1	; 0x06
    67ae:	83 81       	ldd	r24, Z+3	; 0x03
    67b0:	81 ff       	sbrs	r24, 1
    67b2:	bd c1       	rjmp	.+890    	;  0x6b2e
    67b4:	ce 01       	movw	r24, r28
    67b6:	01 96       	adiw	r24, 0x01	; 1
    67b8:	4c 01       	movw	r8, r24
    67ba:	f7 01       	movw	r30, r14
    67bc:	93 81       	ldd	r25, Z+3	; 0x03
    67be:	f6 01       	movw	r30, r12
    67c0:	93 fd       	sbrc	r25, 3
    67c2:	85 91       	lpm	r24, Z+
    67c4:	93 ff       	sbrs	r25, 3
    67c6:	81 91       	ld	r24, Z+
    67c8:	6f 01       	movw	r12, r30
    67ca:	88 23       	and	r24, r24
    67cc:	09 f4       	brne	.+2      	;  0x67d0
    67ce:	ab c1       	rjmp	.+854    	;  0x6b26
    67d0:	85 32       	cpi	r24, 0x25	; 37
    67d2:	39 f4       	brne	.+14     	;  0x67e2
    67d4:	93 fd       	sbrc	r25, 3
    67d6:	85 91       	lpm	r24, Z+
    67d8:	93 ff       	sbrs	r25, 3
    67da:	81 91       	ld	r24, Z+
    67dc:	6f 01       	movw	r12, r30
    67de:	85 32       	cpi	r24, 0x25	; 37
    67e0:	29 f4       	brne	.+10     	;  0x67ec
    67e2:	b7 01       	movw	r22, r14
    67e4:	90 e0       	ldi	r25, 0x00	; 0
    67e6:	0e 94 e6 35 	call	0x6bcc	;  0x6bcc
    67ea:	e7 cf       	rjmp	.-50     	;  0x67ba
    67ec:	51 2c       	mov	r5, r1
    67ee:	31 2c       	mov	r3, r1
    67f0:	20 e0       	ldi	r18, 0x00	; 0
    67f2:	20 32       	cpi	r18, 0x20	; 32
    67f4:	a0 f4       	brcc	.+40     	;  0x681e
    67f6:	8b 32       	cpi	r24, 0x2B	; 43
    67f8:	69 f0       	breq	.+26     	;  0x6814
    67fa:	30 f4       	brcc	.+12     	;  0x6808
    67fc:	80 32       	cpi	r24, 0x20	; 32
    67fe:	59 f0       	breq	.+22     	;  0x6816
    6800:	83 32       	cpi	r24, 0x23	; 35
    6802:	69 f4       	brne	.+26     	;  0x681e
    6804:	20 61       	ori	r18, 0x10	; 16
    6806:	2c c0       	rjmp	.+88     	;  0x6860
    6808:	8d 32       	cpi	r24, 0x2D	; 45
    680a:	39 f0       	breq	.+14     	;  0x681a
    680c:	80 33       	cpi	r24, 0x30	; 48
    680e:	39 f4       	brne	.+14     	;  0x681e
    6810:	21 60       	ori	r18, 0x01	; 1
    6812:	26 c0       	rjmp	.+76     	;  0x6860
    6814:	22 60       	ori	r18, 0x02	; 2
    6816:	24 60       	ori	r18, 0x04	; 4
    6818:	23 c0       	rjmp	.+70     	;  0x6860
    681a:	28 60       	ori	r18, 0x08	; 8
    681c:	21 c0       	rjmp	.+66     	;  0x6860
    681e:	27 fd       	sbrc	r18, 7
    6820:	27 c0       	rjmp	.+78     	;  0x6870
    6822:	30 ed       	ldi	r19, 0xD0	; 208
    6824:	38 0f       	add	r19, r24
    6826:	3a 30       	cpi	r19, 0x0A	; 10
    6828:	78 f4       	brcc	.+30     	;  0x6848
    682a:	26 ff       	sbrs	r18, 6
    682c:	06 c0       	rjmp	.+12     	;  0x683a
    682e:	fa e0       	ldi	r31, 0x0A	; 10
    6830:	5f 9e       	mul	r5, r31
    6832:	30 0d       	add	r19, r0
    6834:	11 24       	eor	r1, r1
    6836:	53 2e       	mov	r5, r19
    6838:	13 c0       	rjmp	.+38     	;  0x6860
    683a:	8a e0       	ldi	r24, 0x0A	; 10
    683c:	38 9e       	mul	r3, r24
    683e:	30 0d       	add	r19, r0
    6840:	11 24       	eor	r1, r1
    6842:	33 2e       	mov	r3, r19
    6844:	20 62       	ori	r18, 0x20	; 32
    6846:	0c c0       	rjmp	.+24     	;  0x6860
    6848:	8e 32       	cpi	r24, 0x2E	; 46
    684a:	21 f4       	brne	.+8      	;  0x6854
    684c:	26 fd       	sbrc	r18, 6
    684e:	6b c1       	rjmp	.+726    	;  0x6b26
    6850:	20 64       	ori	r18, 0x40	; 64
    6852:	06 c0       	rjmp	.+12     	;  0x6860
    6854:	8c 36       	cpi	r24, 0x6C	; 108
    6856:	11 f4       	brne	.+4      	;  0x685c
    6858:	20 68       	ori	r18, 0x80	; 128
    685a:	02 c0       	rjmp	.+4      	;  0x6860
    685c:	88 36       	cpi	r24, 0x68	; 104
    685e:	41 f4       	brne	.+16     	;  0x6870
    6860:	f6 01       	movw	r30, r12
    6862:	93 fd       	sbrc	r25, 3
    6864:	85 91       	lpm	r24, Z+
    6866:	93 ff       	sbrs	r25, 3
    6868:	81 91       	ld	r24, Z+
    686a:	6f 01       	movw	r12, r30
    686c:	81 11       	cpse	r24, r1
    686e:	c1 cf       	rjmp	.-126    	;  0x67f2
    6870:	98 2f       	mov	r25, r24
    6872:	9f 7d       	andi	r25, 0xDF	; 223
    6874:	95 54       	subi	r25, 0x45	; 69
    6876:	93 30       	cpi	r25, 0x03	; 3
    6878:	28 f4       	brcc	.+10     	;  0x6884
    687a:	0c 5f       	subi	r16, 0xFC	; 252
    687c:	1f 4f       	sbci	r17, 0xFF	; 255
    687e:	ff e3       	ldi	r31, 0x3F	; 63
    6880:	f9 83       	std	Y+1, r31	; 0x01
    6882:	0d c0       	rjmp	.+26     	;  0x689e
    6884:	83 36       	cpi	r24, 0x63	; 99
    6886:	31 f0       	breq	.+12     	;  0x6894
    6888:	83 37       	cpi	r24, 0x73	; 115
    688a:	71 f0       	breq	.+28     	;  0x68a8
    688c:	83 35       	cpi	r24, 0x53	; 83
    688e:	09 f0       	breq	.+2      	;  0x6892
    6890:	5b c0       	rjmp	.+182    	;  0x6948
    6892:	22 c0       	rjmp	.+68     	;  0x68d8
    6894:	f8 01       	movw	r30, r16
    6896:	80 81       	ld	r24, Z
    6898:	89 83       	std	Y+1, r24	; 0x01
    689a:	0e 5f       	subi	r16, 0xFE	; 254
    689c:	1f 4f       	sbci	r17, 0xFF	; 255
    689e:	44 24       	eor	r4, r4
    68a0:	43 94       	inc	r4
    68a2:	51 2c       	mov	r5, r1
    68a4:	54 01       	movw	r10, r8
    68a6:	15 c0       	rjmp	.+42     	;  0x68d2
    68a8:	38 01       	movw	r6, r16
    68aa:	f2 e0       	ldi	r31, 0x02	; 2
    68ac:	6f 0e       	add	r6, r31
    68ae:	71 1c       	adc	r7, r1
    68b0:	f8 01       	movw	r30, r16
    68b2:	a0 80       	ld	r10, Z
    68b4:	b1 80       	ldd	r11, Z+1	; 0x01
    68b6:	26 ff       	sbrs	r18, 6
    68b8:	03 c0       	rjmp	.+6      	;  0x68c0
    68ba:	65 2d       	mov	r22, r5
    68bc:	70 e0       	ldi	r23, 0x00	; 0
    68be:	02 c0       	rjmp	.+4      	;  0x68c4
    68c0:	6f ef       	ldi	r22, 0xFF	; 255
    68c2:	7f ef       	ldi	r23, 0xFF	; 255
    68c4:	c5 01       	movw	r24, r10
    68c6:	2c 87       	std	Y+12, r18	; 0x0c
    68c8:	0e 94 cb 35 	call	0x6b96	;  0x6b96
    68cc:	2c 01       	movw	r4, r24
    68ce:	83 01       	movw	r16, r6
    68d0:	2c 85       	ldd	r18, Y+12	; 0x0c
    68d2:	2f 77       	andi	r18, 0x7F	; 127
    68d4:	22 2e       	mov	r2, r18
    68d6:	17 c0       	rjmp	.+46     	;  0x6906
    68d8:	38 01       	movw	r6, r16
    68da:	f2 e0       	ldi	r31, 0x02	; 2
    68dc:	6f 0e       	add	r6, r31
    68de:	71 1c       	adc	r7, r1
    68e0:	f8 01       	movw	r30, r16
    68e2:	a0 80       	ld	r10, Z
    68e4:	b1 80       	ldd	r11, Z+1	; 0x01
    68e6:	26 ff       	sbrs	r18, 6
    68e8:	03 c0       	rjmp	.+6      	;  0x68f0
    68ea:	65 2d       	mov	r22, r5
    68ec:	70 e0       	ldi	r23, 0x00	; 0
    68ee:	02 c0       	rjmp	.+4      	;  0x68f4
    68f0:	6f ef       	ldi	r22, 0xFF	; 255
    68f2:	7f ef       	ldi	r23, 0xFF	; 255
    68f4:	c5 01       	movw	r24, r10
    68f6:	2c 87       	std	Y+12, r18	; 0x0c
    68f8:	0e 94 b9 35 	call	0x6b72	;  0x6b72
    68fc:	2c 01       	movw	r4, r24
    68fe:	2c 85       	ldd	r18, Y+12	; 0x0c
    6900:	20 68       	ori	r18, 0x80	; 128
    6902:	22 2e       	mov	r2, r18
    6904:	83 01       	movw	r16, r6
    6906:	23 fc       	sbrc	r2, 3
    6908:	1b c0       	rjmp	.+54     	;  0x6940
    690a:	83 2d       	mov	r24, r3
    690c:	90 e0       	ldi	r25, 0x00	; 0
    690e:	48 16       	cp	r4, r24
    6910:	59 06       	cpc	r5, r25
    6912:	b0 f4       	brcc	.+44     	;  0x6940
    6914:	b7 01       	movw	r22, r14
    6916:	80 e2       	ldi	r24, 0x20	; 32
    6918:	90 e0       	ldi	r25, 0x00	; 0
    691a:	0e 94 e6 35 	call	0x6bcc	;  0x6bcc
    691e:	3a 94       	dec	r3
    6920:	f4 cf       	rjmp	.-24     	;  0x690a
    6922:	f5 01       	movw	r30, r10
    6924:	27 fc       	sbrc	r2, 7
    6926:	85 91       	lpm	r24, Z+
    6928:	27 fe       	sbrs	r2, 7
    692a:	81 91       	ld	r24, Z+
    692c:	5f 01       	movw	r10, r30
    692e:	b7 01       	movw	r22, r14
    6930:	90 e0       	ldi	r25, 0x00	; 0
    6932:	0e 94 e6 35 	call	0x6bcc	;  0x6bcc
    6936:	31 10       	cpse	r3, r1
    6938:	3a 94       	dec	r3
    693a:	f1 e0       	ldi	r31, 0x01	; 1
    693c:	4f 1a       	sub	r4, r31
    693e:	51 08       	sbc	r5, r1
    6940:	41 14       	cp	r4, r1
    6942:	51 04       	cpc	r5, r1
    6944:	71 f7       	brne	.-36     	;  0x6922
    6946:	e5 c0       	rjmp	.+458    	;  0x6b12
    6948:	84 36       	cpi	r24, 0x64	; 100
    694a:	11 f0       	breq	.+4      	;  0x6950
    694c:	89 36       	cpi	r24, 0x69	; 105
    694e:	39 f5       	brne	.+78     	;  0x699e
    6950:	f8 01       	movw	r30, r16
    6952:	27 ff       	sbrs	r18, 7
    6954:	07 c0       	rjmp	.+14     	;  0x6964
    6956:	60 81       	ld	r22, Z
    6958:	71 81       	ldd	r23, Z+1	; 0x01
    695a:	82 81       	ldd	r24, Z+2	; 0x02
    695c:	93 81       	ldd	r25, Z+3	; 0x03
    695e:	0c 5f       	subi	r16, 0xFC	; 252
    6960:	1f 4f       	sbci	r17, 0xFF	; 255
    6962:	08 c0       	rjmp	.+16     	;  0x6974
    6964:	60 81       	ld	r22, Z
    6966:	71 81       	ldd	r23, Z+1	; 0x01
    6968:	88 27       	eor	r24, r24
    696a:	77 fd       	sbrc	r23, 7
    696c:	80 95       	com	r24
    696e:	98 2f       	mov	r25, r24
    6970:	0e 5f       	subi	r16, 0xFE	; 254
    6972:	1f 4f       	sbci	r17, 0xFF	; 255
    6974:	2f 76       	andi	r18, 0x6F	; 111
    6976:	72 2e       	mov	r7, r18
    6978:	97 ff       	sbrs	r25, 7
    697a:	09 c0       	rjmp	.+18     	;  0x698e
    697c:	90 95       	com	r25
    697e:	80 95       	com	r24
    6980:	70 95       	com	r23
    6982:	61 95       	neg	r22
    6984:	7f 4f       	sbci	r23, 0xFF	; 255
    6986:	8f 4f       	sbci	r24, 0xFF	; 255
    6988:	9f 4f       	sbci	r25, 0xFF	; 255
    698a:	20 68       	ori	r18, 0x80	; 128
    698c:	72 2e       	mov	r7, r18
    698e:	2a e0       	ldi	r18, 0x0A	; 10
    6990:	30 e0       	ldi	r19, 0x00	; 0
    6992:	a4 01       	movw	r20, r8
    6994:	0e 94 1e 36 	call	0x6c3c	;  0x6c3c
    6998:	a8 2e       	mov	r10, r24
    699a:	a8 18       	sub	r10, r8
    699c:	44 c0       	rjmp	.+136    	;  0x6a26
    699e:	85 37       	cpi	r24, 0x75	; 117
    69a0:	29 f4       	brne	.+10     	;  0x69ac
    69a2:	2f 7e       	andi	r18, 0xEF	; 239
    69a4:	b2 2e       	mov	r11, r18
    69a6:	2a e0       	ldi	r18, 0x0A	; 10
    69a8:	30 e0       	ldi	r19, 0x00	; 0
    69aa:	25 c0       	rjmp	.+74     	;  0x69f6
    69ac:	f2 2f       	mov	r31, r18
    69ae:	f9 7f       	andi	r31, 0xF9	; 249
    69b0:	bf 2e       	mov	r11, r31
    69b2:	8f 36       	cpi	r24, 0x6F	; 111
    69b4:	c1 f0       	breq	.+48     	;  0x69e6
    69b6:	18 f4       	brcc	.+6      	;  0x69be
    69b8:	88 35       	cpi	r24, 0x58	; 88
    69ba:	79 f0       	breq	.+30     	;  0x69da
    69bc:	b4 c0       	rjmp	.+360    	;  0x6b26
    69be:	80 37       	cpi	r24, 0x70	; 112
    69c0:	19 f0       	breq	.+6      	;  0x69c8
    69c2:	88 37       	cpi	r24, 0x78	; 120
    69c4:	21 f0       	breq	.+8      	;  0x69ce
    69c6:	af c0       	rjmp	.+350    	;  0x6b26
    69c8:	2f 2f       	mov	r18, r31
    69ca:	20 61       	ori	r18, 0x10	; 16
    69cc:	b2 2e       	mov	r11, r18
    69ce:	b4 fe       	sbrs	r11, 4
    69d0:	0d c0       	rjmp	.+26     	;  0x69ec
    69d2:	8b 2d       	mov	r24, r11
    69d4:	84 60       	ori	r24, 0x04	; 4
    69d6:	b8 2e       	mov	r11, r24
    69d8:	09 c0       	rjmp	.+18     	;  0x69ec
    69da:	24 ff       	sbrs	r18, 4
    69dc:	0a c0       	rjmp	.+20     	;  0x69f2
    69de:	9f 2f       	mov	r25, r31
    69e0:	96 60       	ori	r25, 0x06	; 6
    69e2:	b9 2e       	mov	r11, r25
    69e4:	06 c0       	rjmp	.+12     	;  0x69f2
    69e6:	28 e0       	ldi	r18, 0x08	; 8
    69e8:	30 e0       	ldi	r19, 0x00	; 0
    69ea:	05 c0       	rjmp	.+10     	;  0x69f6
    69ec:	20 e1       	ldi	r18, 0x10	; 16
    69ee:	30 e0       	ldi	r19, 0x00	; 0
    69f0:	02 c0       	rjmp	.+4      	;  0x69f6
    69f2:	20 e1       	ldi	r18, 0x10	; 16
    69f4:	32 e0       	ldi	r19, 0x02	; 2
    69f6:	f8 01       	movw	r30, r16
    69f8:	b7 fe       	sbrs	r11, 7
    69fa:	07 c0       	rjmp	.+14     	;  0x6a0a
    69fc:	60 81       	ld	r22, Z
    69fe:	71 81       	ldd	r23, Z+1	; 0x01
    6a00:	82 81       	ldd	r24, Z+2	; 0x02
    6a02:	93 81       	ldd	r25, Z+3	; 0x03
    6a04:	0c 5f       	subi	r16, 0xFC	; 252
    6a06:	1f 4f       	sbci	r17, 0xFF	; 255
    6a08:	06 c0       	rjmp	.+12     	;  0x6a16
    6a0a:	60 81       	ld	r22, Z
    6a0c:	71 81       	ldd	r23, Z+1	; 0x01
    6a0e:	80 e0       	ldi	r24, 0x00	; 0
    6a10:	90 e0       	ldi	r25, 0x00	; 0
    6a12:	0e 5f       	subi	r16, 0xFE	; 254
    6a14:	1f 4f       	sbci	r17, 0xFF	; 255
    6a16:	a4 01       	movw	r20, r8
    6a18:	0e 94 1e 36 	call	0x6c3c	;  0x6c3c
    6a1c:	a8 2e       	mov	r10, r24
    6a1e:	a8 18       	sub	r10, r8
    6a20:	fb 2d       	mov	r31, r11
    6a22:	ff 77       	andi	r31, 0x7F	; 127
    6a24:	7f 2e       	mov	r7, r31
    6a26:	76 fe       	sbrs	r7, 6
    6a28:	0b c0       	rjmp	.+22     	;  0x6a40
    6a2a:	37 2d       	mov	r19, r7
    6a2c:	3e 7f       	andi	r19, 0xFE	; 254
    6a2e:	a5 14       	cp	r10, r5
    6a30:	50 f4       	brcc	.+20     	;  0x6a46
    6a32:	74 fe       	sbrs	r7, 4
    6a34:	0a c0       	rjmp	.+20     	;  0x6a4a
    6a36:	72 fc       	sbrc	r7, 2
    6a38:	08 c0       	rjmp	.+16     	;  0x6a4a
    6a3a:	37 2d       	mov	r19, r7
    6a3c:	3e 7e       	andi	r19, 0xEE	; 238
    6a3e:	05 c0       	rjmp	.+10     	;  0x6a4a
    6a40:	ba 2c       	mov	r11, r10
    6a42:	37 2d       	mov	r19, r7
    6a44:	03 c0       	rjmp	.+6      	;  0x6a4c
    6a46:	ba 2c       	mov	r11, r10
    6a48:	01 c0       	rjmp	.+2      	;  0x6a4c
    6a4a:	b5 2c       	mov	r11, r5
    6a4c:	34 ff       	sbrs	r19, 4
    6a4e:	0d c0       	rjmp	.+26     	;  0x6a6a
    6a50:	fe 01       	movw	r30, r28
    6a52:	ea 0d       	add	r30, r10
    6a54:	f1 1d       	adc	r31, r1
    6a56:	80 81       	ld	r24, Z
    6a58:	80 33       	cpi	r24, 0x30	; 48
    6a5a:	11 f4       	brne	.+4      	;  0x6a60
    6a5c:	39 7e       	andi	r19, 0xE9	; 233
    6a5e:	09 c0       	rjmp	.+18     	;  0x6a72
    6a60:	32 ff       	sbrs	r19, 2
    6a62:	06 c0       	rjmp	.+12     	;  0x6a70
    6a64:	b3 94       	inc	r11
    6a66:	b3 94       	inc	r11
    6a68:	04 c0       	rjmp	.+8      	;  0x6a72
    6a6a:	83 2f       	mov	r24, r19
    6a6c:	86 78       	andi	r24, 0x86	; 134
    6a6e:	09 f0       	breq	.+2      	;  0x6a72
    6a70:	b3 94       	inc	r11
    6a72:	33 fd       	sbrc	r19, 3
    6a74:	13 c0       	rjmp	.+38     	;  0x6a9c
    6a76:	30 ff       	sbrs	r19, 0
    6a78:	06 c0       	rjmp	.+12     	;  0x6a86
    6a7a:	5a 2c       	mov	r5, r10
    6a7c:	b3 14       	cp	r11, r3
    6a7e:	18 f4       	brcc	.+6      	;  0x6a86
    6a80:	53 0c       	add	r5, r3
    6a82:	5b 18       	sub	r5, r11
    6a84:	b3 2c       	mov	r11, r3
    6a86:	b3 14       	cp	r11, r3
    6a88:	68 f4       	brcc	.+26     	;  0x6aa4
    6a8a:	b7 01       	movw	r22, r14
    6a8c:	80 e2       	ldi	r24, 0x20	; 32
    6a8e:	90 e0       	ldi	r25, 0x00	; 0
    6a90:	3c 87       	std	Y+12, r19	; 0x0c
    6a92:	0e 94 e6 35 	call	0x6bcc	;  0x6bcc
    6a96:	b3 94       	inc	r11
    6a98:	3c 85       	ldd	r19, Y+12	; 0x0c
    6a9a:	f5 cf       	rjmp	.-22     	;  0x6a86
    6a9c:	b3 14       	cp	r11, r3
    6a9e:	10 f4       	brcc	.+4      	;  0x6aa4
    6aa0:	3b 18       	sub	r3, r11
    6aa2:	01 c0       	rjmp	.+2      	;  0x6aa6
    6aa4:	31 2c       	mov	r3, r1
    6aa6:	34 ff       	sbrs	r19, 4
    6aa8:	12 c0       	rjmp	.+36     	;  0x6ace
    6aaa:	b7 01       	movw	r22, r14
    6aac:	80 e3       	ldi	r24, 0x30	; 48
    6aae:	90 e0       	ldi	r25, 0x00	; 0
    6ab0:	3c 87       	std	Y+12, r19	; 0x0c
    6ab2:	0e 94 e6 35 	call	0x6bcc	;  0x6bcc
    6ab6:	3c 85       	ldd	r19, Y+12	; 0x0c
    6ab8:	32 ff       	sbrs	r19, 2
    6aba:	17 c0       	rjmp	.+46     	;  0x6aea
    6abc:	31 fd       	sbrc	r19, 1
    6abe:	03 c0       	rjmp	.+6      	;  0x6ac6
    6ac0:	88 e7       	ldi	r24, 0x78	; 120
    6ac2:	90 e0       	ldi	r25, 0x00	; 0
    6ac4:	02 c0       	rjmp	.+4      	;  0x6aca
    6ac6:	88 e5       	ldi	r24, 0x58	; 88
    6ac8:	90 e0       	ldi	r25, 0x00	; 0
    6aca:	b7 01       	movw	r22, r14
    6acc:	0c c0       	rjmp	.+24     	;  0x6ae6
    6ace:	83 2f       	mov	r24, r19
    6ad0:	86 78       	andi	r24, 0x86	; 134
    6ad2:	59 f0       	breq	.+22     	;  0x6aea
    6ad4:	31 ff       	sbrs	r19, 1
    6ad6:	02 c0       	rjmp	.+4      	;  0x6adc
    6ad8:	8b e2       	ldi	r24, 0x2B	; 43
    6ada:	01 c0       	rjmp	.+2      	;  0x6ade
    6adc:	80 e2       	ldi	r24, 0x20	; 32
    6ade:	37 fd       	sbrc	r19, 7
    6ae0:	8d e2       	ldi	r24, 0x2D	; 45
    6ae2:	b7 01       	movw	r22, r14
    6ae4:	90 e0       	ldi	r25, 0x00	; 0
    6ae6:	0e 94 e6 35 	call	0x6bcc	;  0x6bcc
    6aea:	a5 14       	cp	r10, r5
    6aec:	38 f4       	brcc	.+14     	;  0x6afc
    6aee:	b7 01       	movw	r22, r14
    6af0:	80 e3       	ldi	r24, 0x30	; 48
    6af2:	90 e0       	ldi	r25, 0x00	; 0
    6af4:	0e 94 e6 35 	call	0x6bcc	;  0x6bcc
    6af8:	5a 94       	dec	r5
    6afa:	f7 cf       	rjmp	.-18     	;  0x6aea
    6afc:	aa 94       	dec	r10
    6afe:	f4 01       	movw	r30, r8
    6b00:	ea 0d       	add	r30, r10
    6b02:	f1 1d       	adc	r31, r1
    6b04:	80 81       	ld	r24, Z
    6b06:	b7 01       	movw	r22, r14
    6b08:	90 e0       	ldi	r25, 0x00	; 0
    6b0a:	0e 94 e6 35 	call	0x6bcc	;  0x6bcc
    6b0e:	a1 10       	cpse	r10, r1
    6b10:	f5 cf       	rjmp	.-22     	;  0x6afc
    6b12:	33 20       	and	r3, r3
    6b14:	09 f4       	brne	.+2      	;  0x6b18
    6b16:	51 ce       	rjmp	.-862    	;  0x67ba
    6b18:	b7 01       	movw	r22, r14
    6b1a:	80 e2       	ldi	r24, 0x20	; 32
    6b1c:	90 e0       	ldi	r25, 0x00	; 0
    6b1e:	0e 94 e6 35 	call	0x6bcc	;  0x6bcc
    6b22:	3a 94       	dec	r3
    6b24:	f6 cf       	rjmp	.-20     	;  0x6b12
    6b26:	f7 01       	movw	r30, r14
    6b28:	86 81       	ldd	r24, Z+6	; 0x06
    6b2a:	97 81       	ldd	r25, Z+7	; 0x07
    6b2c:	02 c0       	rjmp	.+4      	;  0x6b32
    6b2e:	8f ef       	ldi	r24, 0xFF	; 255
    6b30:	9f ef       	ldi	r25, 0xFF	; 255
    6b32:	2c 96       	adiw	r28, 0x0c	; 12
    6b34:	e2 e1       	ldi	r30, 0x12	; 18
    6b36:	0c 94 98 36 	jmp	0x6d30	;  0x6d30
    6b3a:	0f 93       	push	r16
    6b3c:	1f 93       	push	r17
    6b3e:	cf 93       	push	r28
    6b40:	df 93       	push	r29
    6b42:	86 9f       	mul	r24, r22
    6b44:	80 01       	movw	r16, r0
    6b46:	87 9f       	mul	r24, r23
    6b48:	10 0d       	add	r17, r0
    6b4a:	96 9f       	mul	r25, r22
    6b4c:	10 0d       	add	r17, r0
    6b4e:	11 24       	eor	r1, r1
    6b50:	c8 01       	movw	r24, r16
    6b52:	0e 94 10 31 	call	0x6220	;  0x6220
    6b56:	ec 01       	movw	r28, r24
    6b58:	00 97       	sbiw	r24, 0x00	; 0
    6b5a:	29 f0       	breq	.+10     	;  0x6b66
    6b5c:	a8 01       	movw	r20, r16
    6b5e:	60 e0       	ldi	r22, 0x00	; 0
    6b60:	70 e0       	ldi	r23, 0x00	; 0
    6b62:	0e 94 c4 35 	call	0x6b88	;  0x6b88
    6b66:	ce 01       	movw	r24, r28
    6b68:	df 91       	pop	r29
    6b6a:	cf 91       	pop	r28
    6b6c:	1f 91       	pop	r17
    6b6e:	0f 91       	pop	r16
    6b70:	08 95       	ret
    6b72:	fc 01       	movw	r30, r24
    6b74:	05 90       	lpm	r0, Z+
    6b76:	61 50       	subi	r22, 0x01	; 1
    6b78:	70 40       	sbci	r23, 0x00	; 0
    6b7a:	01 10       	cpse	r0, r1
    6b7c:	d8 f7       	brcc	.-10     	;  0x6b74
    6b7e:	80 95       	com	r24
    6b80:	90 95       	com	r25
    6b82:	8e 0f       	add	r24, r30
    6b84:	9f 1f       	adc	r25, r31
    6b86:	08 95       	ret
    6b88:	dc 01       	movw	r26, r24
    6b8a:	01 c0       	rjmp	.+2      	;  0x6b8e
    6b8c:	6d 93       	st	X+, r22
    6b8e:	41 50       	subi	r20, 0x01	; 1
    6b90:	50 40       	sbci	r21, 0x00	; 0
    6b92:	e0 f7       	brcc	.-8      	;  0x6b8c
    6b94:	08 95       	ret
    6b96:	fc 01       	movw	r30, r24
    6b98:	61 50       	subi	r22, 0x01	; 1
    6b9a:	70 40       	sbci	r23, 0x00	; 0
    6b9c:	01 90       	ld	r0, Z+
    6b9e:	01 10       	cpse	r0, r1
    6ba0:	d8 f7       	brcc	.-10     	;  0x6b98
    6ba2:	80 95       	com	r24
    6ba4:	90 95       	com	r25
    6ba6:	8e 0f       	add	r24, r30
    6ba8:	9f 1f       	adc	r25, r31
    6baa:	08 95       	ret
    6bac:	dc 01       	movw	r26, r24
    6bae:	fc 01       	movw	r30, r24
    6bb0:	67 2f       	mov	r22, r23
    6bb2:	71 91       	ld	r23, Z+
    6bb4:	77 23       	and	r23, r23
    6bb6:	e1 f7       	brne	.-8      	;  0x6bb0
    6bb8:	32 97       	sbiw	r30, 0x02	; 2
    6bba:	04 c0       	rjmp	.+8      	;  0x6bc4
    6bbc:	7c 91       	ld	r23, X
    6bbe:	6d 93       	st	X+, r22
    6bc0:	70 83       	st	Z, r23
    6bc2:	62 91       	ld	r22, -Z
    6bc4:	ae 17       	cp	r26, r30
    6bc6:	bf 07       	cpc	r27, r31
    6bc8:	c8 f3       	brcs	.-14     	;  0x6bbc
    6bca:	08 95       	ret
    6bcc:	0f 93       	push	r16
    6bce:	1f 93       	push	r17
    6bd0:	cf 93       	push	r28
    6bd2:	df 93       	push	r29
    6bd4:	fb 01       	movw	r30, r22
    6bd6:	23 81       	ldd	r18, Z+3	; 0x03
    6bd8:	21 fd       	sbrc	r18, 1
    6bda:	03 c0       	rjmp	.+6      	;  0x6be2
    6bdc:	8f ef       	ldi	r24, 0xFF	; 255
    6bde:	9f ef       	ldi	r25, 0xFF	; 255
    6be0:	28 c0       	rjmp	.+80     	;  0x6c32
    6be2:	22 ff       	sbrs	r18, 2
    6be4:	16 c0       	rjmp	.+44     	;  0x6c12
    6be6:	46 81       	ldd	r20, Z+6	; 0x06
    6be8:	57 81       	ldd	r21, Z+7	; 0x07
    6bea:	24 81       	ldd	r18, Z+4	; 0x04
    6bec:	35 81       	ldd	r19, Z+5	; 0x05
    6bee:	42 17       	cp	r20, r18
    6bf0:	53 07       	cpc	r21, r19
    6bf2:	44 f4       	brge	.+16     	;  0x6c04
    6bf4:	a0 81       	ld	r26, Z
    6bf6:	b1 81       	ldd	r27, Z+1	; 0x01
    6bf8:	9d 01       	movw	r18, r26
    6bfa:	2f 5f       	subi	r18, 0xFF	; 255
    6bfc:	3f 4f       	sbci	r19, 0xFF	; 255
    6bfe:	31 83       	std	Z+1, r19	; 0x01
    6c00:	20 83       	st	Z, r18
    6c02:	8c 93       	st	X, r24
    6c04:	26 81       	ldd	r18, Z+6	; 0x06
    6c06:	37 81       	ldd	r19, Z+7	; 0x07
    6c08:	2f 5f       	subi	r18, 0xFF	; 255
    6c0a:	3f 4f       	sbci	r19, 0xFF	; 255
    6c0c:	37 83       	std	Z+7, r19	; 0x07
    6c0e:	26 83       	std	Z+6, r18	; 0x06
    6c10:	10 c0       	rjmp	.+32     	;  0x6c32
    6c12:	eb 01       	movw	r28, r22
    6c14:	09 2f       	mov	r16, r25
    6c16:	18 2f       	mov	r17, r24
    6c18:	00 84       	ldd	r0, Z+8	; 0x08
    6c1a:	f1 85       	ldd	r31, Z+9	; 0x09
    6c1c:	e0 2d       	mov	r30, r0
    6c1e:	09 95       	icall
    6c20:	89 2b       	or	r24, r25
    6c22:	e1 f6       	brne	.-72     	;  0x6bdc
    6c24:	8e 81       	ldd	r24, Y+6	; 0x06
    6c26:	9f 81       	ldd	r25, Y+7	; 0x07
    6c28:	01 96       	adiw	r24, 0x01	; 1
    6c2a:	9f 83       	std	Y+7, r25	; 0x07
    6c2c:	8e 83       	std	Y+6, r24	; 0x06
    6c2e:	81 2f       	mov	r24, r17
    6c30:	90 2f       	mov	r25, r16
    6c32:	df 91       	pop	r29
    6c34:	cf 91       	pop	r28
    6c36:	1f 91       	pop	r17
    6c38:	0f 91       	pop	r16
    6c3a:	08 95       	ret
    6c3c:	fa 01       	movw	r30, r20
    6c3e:	aa 27       	eor	r26, r26
    6c40:	28 30       	cpi	r18, 0x08	; 8
    6c42:	51 f1       	breq	.+84     	;  0x6c98
    6c44:	20 31       	cpi	r18, 0x10	; 16
    6c46:	81 f1       	breq	.+96     	;  0x6ca8
    6c48:	e8 94       	clt
    6c4a:	6f 93       	push	r22
    6c4c:	6e 7f       	andi	r22, 0xFE	; 254
    6c4e:	6e 5f       	subi	r22, 0xFE	; 254
    6c50:	7f 4f       	sbci	r23, 0xFF	; 255
    6c52:	8f 4f       	sbci	r24, 0xFF	; 255
    6c54:	9f 4f       	sbci	r25, 0xFF	; 255
    6c56:	af 4f       	sbci	r26, 0xFF	; 255
    6c58:	b1 e0       	ldi	r27, 0x01	; 1
    6c5a:	3e d0       	rcall	.+124    	;  0x6cd8
    6c5c:	b4 e0       	ldi	r27, 0x04	; 4
    6c5e:	3c d0       	rcall	.+120    	;  0x6cd8
    6c60:	67 0f       	add	r22, r23
    6c62:	78 1f       	adc	r23, r24
    6c64:	89 1f       	adc	r24, r25
    6c66:	9a 1f       	adc	r25, r26
    6c68:	a1 1d       	adc	r26, r1
    6c6a:	68 0f       	add	r22, r24
    6c6c:	79 1f       	adc	r23, r25
    6c6e:	8a 1f       	adc	r24, r26
    6c70:	91 1d       	adc	r25, r1
    6c72:	a1 1d       	adc	r26, r1
    6c74:	6a 0f       	add	r22, r26
    6c76:	71 1d       	adc	r23, r1
    6c78:	81 1d       	adc	r24, r1
    6c7a:	91 1d       	adc	r25, r1
    6c7c:	a1 1d       	adc	r26, r1
    6c7e:	20 d0       	rcall	.+64     	;  0x6cc0
    6c80:	09 f4       	brne	.+2      	;  0x6c84
    6c82:	68 94       	set
    6c84:	3f 91       	pop	r19
    6c86:	2a e0       	ldi	r18, 0x0A	; 10
    6c88:	26 9f       	mul	r18, r22
    6c8a:	11 24       	eor	r1, r1
    6c8c:	30 19       	sub	r19, r0
    6c8e:	30 5d       	subi	r19, 0xD0	; 208
    6c90:	31 93       	st	Z+, r19
    6c92:	de f6       	brtc	.-74     	;  0x6c4a
    6c94:	cf 01       	movw	r24, r30
    6c96:	08 95       	ret
    6c98:	46 2f       	mov	r20, r22
    6c9a:	47 70       	andi	r20, 0x07	; 7
    6c9c:	40 5d       	subi	r20, 0xD0	; 208
    6c9e:	41 93       	st	Z+, r20
    6ca0:	b3 e0       	ldi	r27, 0x03	; 3
    6ca2:	0f d0       	rcall	.+30     	;  0x6cc2
    6ca4:	c9 f7       	brne	.-14     	;  0x6c98
    6ca6:	f6 cf       	rjmp	.-20     	;  0x6c94
    6ca8:	46 2f       	mov	r20, r22
    6caa:	4f 70       	andi	r20, 0x0F	; 15
    6cac:	40 5d       	subi	r20, 0xD0	; 208
    6cae:	4a 33       	cpi	r20, 0x3A	; 58
    6cb0:	18 f0       	brcs	.+6      	;  0x6cb8
    6cb2:	49 5d       	subi	r20, 0xD9	; 217
    6cb4:	31 fd       	sbrc	r19, 1
    6cb6:	40 52       	subi	r20, 0x20	; 32
    6cb8:	41 93       	st	Z+, r20
    6cba:	02 d0       	rcall	.+4      	;  0x6cc0
    6cbc:	a9 f7       	brne	.-22     	;  0x6ca8
    6cbe:	ea cf       	rjmp	.-44     	;  0x6c94
    6cc0:	b4 e0       	ldi	r27, 0x04	; 4
    6cc2:	a6 95       	lsr	r26
    6cc4:	97 95       	ror	r25
    6cc6:	87 95       	ror	r24
    6cc8:	77 95       	ror	r23
    6cca:	67 95       	ror	r22
    6ccc:	ba 95       	dec	r27
    6cce:	c9 f7       	brne	.-14     	;  0x6cc2
    6cd0:	00 97       	sbiw	r24, 0x00	; 0
    6cd2:	61 05       	cpc	r22, r1
    6cd4:	71 05       	cpc	r23, r1
    6cd6:	08 95       	ret
    6cd8:	9b 01       	movw	r18, r22
    6cda:	ac 01       	movw	r20, r24
    6cdc:	0a 2e       	mov	r0, r26
    6cde:	06 94       	lsr	r0
    6ce0:	57 95       	ror	r21
    6ce2:	47 95       	ror	r20
    6ce4:	37 95       	ror	r19
    6ce6:	27 95       	ror	r18
    6ce8:	ba 95       	dec	r27
    6cea:	c9 f7       	brne	.-14     	;  0x6cde
    6cec:	62 0f       	add	r22, r18
    6cee:	73 1f       	adc	r23, r19
    6cf0:	84 1f       	adc	r24, r20
    6cf2:	95 1f       	adc	r25, r21
    6cf4:	a0 1d       	adc	r26, r0
    6cf6:	08 95       	ret
    6cf8:	2f 92       	push	r2
    6cfa:	3f 92       	push	r3
    6cfc:	4f 92       	push	r4
    6cfe:	5f 92       	push	r5
    6d00:	6f 92       	push	r6
    6d02:	7f 92       	push	r7
    6d04:	8f 92       	push	r8
    6d06:	9f 92       	push	r9
    6d08:	af 92       	push	r10
    6d0a:	bf 92       	push	r11
    6d0c:	cf 92       	push	r12
    6d0e:	df 92       	push	r13
    6d10:	ef 92       	push	r14
    6d12:	ff 92       	push	r15
    6d14:	0f 93       	push	r16
    6d16:	1f 93       	push	r17
    6d18:	cf 93       	push	r28
    6d1a:	df 93       	push	r29
    6d1c:	cd b7       	in	r28, 0x3d	; 61
    6d1e:	de b7       	in	r29, 0x3e	; 62
    6d20:	ca 1b       	sub	r28, r26
    6d22:	db 0b       	sbc	r29, r27
    6d24:	0f b6       	in	r0, 0x3f	; 63
    6d26:	f8 94       	cli
    6d28:	de bf       	out	0x3e, r29	; 62
    6d2a:	0f be       	out	0x3f, r0	; 63
    6d2c:	cd bf       	out	0x3d, r28	; 61
    6d2e:	09 94       	ijmp
    6d30:	2a 88       	ldd	r2, Y+18	; 0x12
    6d32:	39 88       	ldd	r3, Y+17	; 0x11
    6d34:	48 88       	ldd	r4, Y+16	; 0x10
    6d36:	5f 84       	ldd	r5, Y+15	; 0x0f
    6d38:	6e 84       	ldd	r6, Y+14	; 0x0e
    6d3a:	7d 84       	ldd	r7, Y+13	; 0x0d
    6d3c:	8c 84       	ldd	r8, Y+12	; 0x0c
    6d3e:	9b 84       	ldd	r9, Y+11	; 0x0b
    6d40:	aa 84       	ldd	r10, Y+10	; 0x0a
    6d42:	b9 84       	ldd	r11, Y+9	; 0x09
    6d44:	c8 84       	ldd	r12, Y+8	; 0x08
    6d46:	df 80       	ldd	r13, Y+7	; 0x07
    6d48:	ee 80       	ldd	r14, Y+6	; 0x06
    6d4a:	fd 80       	ldd	r15, Y+5	; 0x05
    6d4c:	0c 81       	ldd	r16, Y+4	; 0x04
    6d4e:	1b 81       	ldd	r17, Y+3	; 0x03
    6d50:	aa 81       	ldd	r26, Y+2	; 0x02
    6d52:	b9 81       	ldd	r27, Y+1	; 0x01
    6d54:	ce 0f       	add	r28, r30
    6d56:	d1 1d       	adc	r29, r1
    6d58:	0f b6       	in	r0, 0x3f	; 63
    6d5a:	f8 94       	cli
    6d5c:	de bf       	out	0x3e, r29	; 62
    6d5e:	0f be       	out	0x3f, r0	; 63
    6d60:	cd bf       	out	0x3d, r28	; 61
    6d62:	ed 01       	movw	r28, r26
    6d64:	08 95       	ret
    6d66:	13 e0       	ldi	r17, 0x03	; 3
    6d68:	cf e9       	ldi	r28, 0x9F	; 159
    6d6a:	d3 e0       	ldi	r29, 0x03	; 3
    6d6c:	04 c0       	rjmp	.+8      	;  0x6d76
    6d6e:	fe 01       	movw	r30, r28
    6d70:	0e 94 fb 30 	call	0x61f6	;  0x61f6
    6d74:	21 96       	adiw	r28, 0x01	; 1
    6d76:	c0 3a       	cpi	r28, 0xA0	; 160
    6d78:	d1 07       	cpc	r29, r17
    6d7a:	c9 f7       	brne	.-14     	;  0x6d6e
    6d7c:	f8 94       	cli
    6d7e:	ff cf       	rjmp	.-2      	;  0x6d7e
