
bin/promicro/Arduino Keyboard Mouse.elf:     file format elf32-avr

Sections:
Idx Name          Size      VMA       LMA       File off  Algn
  0 .data         000000a2  00800100  00004ffa  0000508e  2**0
                  CONTENTS, ALLOC, LOAD, DATA
  1 .text         00004ffa  00000000  00000000  00000094  2**1
                  CONTENTS, ALLOC, LOAD, READONLY, CODE
  2 .bss          00000382  008001a2  008001a2  00005130  2**0
                  ALLOC
  3 .comment      00000011  00000000  00000000  00005130  2**0
                  CONTENTS, READONLY

Disassembly of section .text:

00000000 <.text>:
       0:	0c 94 67 02 	jmp	0x4ce	;  0x4ce
       4:	0c 94 96 11 	jmp	0x232c	;  0x232c
       8:	0c 94 bd 11 	jmp	0x237a	;  0x237a
       c:	0c 94 e4 11 	jmp	0x23c8	;  0x23c8
      10:	0c 94 0b 12 	jmp	0x2416	;  0x2416
      14:	0c 94 8f 02 	jmp	0x51e	;  0x51e
      18:	0c 94 8f 02 	jmp	0x51e	;  0x51e
      1c:	0c 94 32 12 	jmp	0x2464	;  0x2464
      20:	0c 94 8f 02 	jmp	0x51e	;  0x51e
      24:	0c 94 74 18 	jmp	0x30e8	;  0x30e8
      28:	0c 94 98 0e 	jmp	0x1d30	;  0x1d30
      2c:	0c 94 2e 10 	jmp	0x205c	;  0x205c
      30:	0c 94 8f 02 	jmp	0x51e	;  0x51e
      34:	0c 94 8f 02 	jmp	0x51e	;  0x51e
      38:	0c 94 8f 02 	jmp	0x51e	;  0x51e
      3c:	0c 94 8f 02 	jmp	0x51e	;  0x51e
      40:	0c 94 8f 02 	jmp	0x51e	;  0x51e
      44:	0c 94 8f 02 	jmp	0x51e	;  0x51e
      48:	0c 94 8f 02 	jmp	0x51e	;  0x51e
      4c:	0c 94 8f 02 	jmp	0x51e	;  0x51e
      50:	0c 94 68 08 	jmp	0x10d0	;  0x10d0
      54:	0c 94 8f 02 	jmp	0x51e	;  0x51e
      58:	0c 94 8f 02 	jmp	0x51e	;  0x51e
      5c:	0c 94 59 12 	jmp	0x24b2	;  0x24b2
      60:	0c 94 8f 02 	jmp	0x51e	;  0x51e
      64:	0c 94 57 0a 	jmp	0x14ae	;  0x14ae
      68:	0c 94 89 0a 	jmp	0x1512	;  0x1512
      6c:	0c 94 8f 02 	jmp	0x51e	;  0x51e
      70:	0c 94 8f 02 	jmp	0x51e	;  0x51e
      74:	0c 94 8f 02 	jmp	0x51e	;  0x51e
      78:	0c 94 8f 02 	jmp	0x51e	;  0x51e
      7c:	0c 94 8f 02 	jmp	0x51e	;  0x51e
      80:	0c 94 34 16 	jmp	0x2c68	;  0x2c68
      84:	0c 94 8f 02 	jmp	0x51e	;  0x51e
      88:	0c 94 8f 02 	jmp	0x51e	;  0x51e
      8c:	0c 94 8f 02 	jmp	0x51e	;  0x51e
      90:	0c 94 50 1b 	jmp	0x36a0	;  0x36a0
      94:	0c 94 8f 02 	jmp	0x51e	;  0x51e
      98:	0c 94 97 06 	jmp	0xd2e	;  0xd2e
      9c:	0c 94 8f 02 	jmp	0x51e	;  0x51e
      a0:	0c 94 8f 02 	jmp	0x51e	;  0x51e
      a4:	0c 94 8f 02 	jmp	0x51e	;  0x51e
      a8:	0c 94 8f 02 	jmp	0x51e	;  0x51e
      ac:	7d 13       	cpse	r23, r29
      ae:	80 13       	cpse	r24, r16
      b0:	6f 13       	cpse	r22, r31
      b2:	73 13       	cpse	r23, r19
      b4:	79 13       	cpse	r23, r25
      b6:	a1 13       	cpse	r26, r17
      b8:	a1 13       	cpse	r26, r17
      ba:	a1 13       	cpse	r26, r17
      bc:	84 13       	cpse	r24, r20
      be:	88 13       	cpse	r24, r24
      c0:	8c 13       	cpse	r24, r28
      c2:	92 13       	cpse	r25, r18
      c4:	96 13       	cpse	r25, r22
      c6:	a1 13       	cpse	r26, r17
      c8:	9c 13       	cpse	r25, r28
      ca:	05 01       	movw	r0, r10
      cc:	09 06       	cpc	r0, r25
      ce:	a1 01       	movw	r20, r2
      d0:	05 07       	cpc	r16, r21
      d2:	19 e0       	ldi	r17, 0x09	; 9
      d4:	29 e7       	ldi	r18, 0x79	; 121
      d6:	15 00       	.word	0x0015	; ????
      d8:	25 01       	movw	r4, r10
      da:	75 01       	movw	r14, r10
      dc:	95 08       	sbc	r9, r5
      de:	81 02       	muls	r24, r17
      e0:	05 0c       	add	r0, r5
      e2:	95 01       	movw	r18, r10
      e4:	75 08       	sbc	r7, r5
      e6:	15 00       	.word	0x0015	; ????
      e8:	26 ff       	sbrs	r18, 6
      ea:	00 19       	sub	r16, r0
      ec:	00 29       	or	r16, r0
      ee:	ff 81       	ldd	r31, Y+7	; 0x07
      f0:	00 05       	cpc	r16, r0
      f2:	08 19       	sub	r16, r8
      f4:	01 29       	or	r16, r1
      f6:	08 95       	ret
      f8:	08 75       	andi	r16, 0x58	; 88
      fa:	01 91       	ld	r16, Z+
      fc:	02 05       	cpc	r16, r2
      fe:	07 95       	ror	r16
     100:	06 75       	andi	r16, 0x56	; 86
     102:	08 15       	cp	r16, r8
     104:	00 26       	eor	r0, r16
     106:	e7 00       	.word	0x00e7	; ????
     108:	19 00       	.word	0x0019	; ????
     10a:	29 e7       	ldi	r18, 0x79	; 121
     10c:	81 00       	.word	0x0081	; ????
     10e:	c0 08       	sbc	r12, r0
     110:	0b 00       	.word	0x000b	; ????
     112:	02 02       	muls	r16, r18
     114:	02 01       	movw	r0, r4
     116:	00 09       	sbc	r16, r0
     118:	04 00       	.word	0x0004	; ????
     11a:	00 01       	movw	r0, r0
     11c:	02 02       	muls	r16, r18
     11e:	00 00       	nop
     120:	05 24       	eor	r0, r5
     122:	00 10       	cpse	r0, r0
     124:	01 05       	cpc	r16, r1
     126:	24 01       	movw	r4, r8
     128:	01 01       	movw	r0, r2
     12a:	04 24       	eor	r0, r4
     12c:	02 06       	cpc	r0, r18
     12e:	05 24       	eor	r0, r5
     130:	06 00       	.word	0x0006	; ????
     132:	01 07       	cpc	r16, r17
     134:	05 81       	ldd	r16, Z+5	; 0x05
     136:	03 10       	cpse	r0, r3
     138:	00 40       	sbci	r16, 0x00	; 0
     13a:	09 04       	cpc	r0, r9
     13c:	01 00       	.word	0x0001	; ????
     13e:	02 0a       	sbc	r0, r18
     140:	00 00       	nop
     142:	00 07       	cpc	r16, r16
     144:	05 02       	muls	r16, r21
     146:	02 40       	sbci	r16, 0x02	; 2
     148:	00 00       	nop
     14a:	07 05       	cpc	r16, r7
     14c:	83 02       	muls	r24, r19
     14e:	40 00       	.word	0x0040	; ????
     150:	00 12       	cpse	r0, r16
     152:	01 00       	.word	0x0001	; ????
     154:	02 ef       	ldi	r16, 0xF2	; 242
     156:	02 01       	movw	r0, r4
     158:	40 4f       	sbci	r20, 0xF0	; 240
     15a:	1b 06       	cpc	r1, r27
     15c:	92 00       	.word	0x0092	; ????
     15e:	01 01       	movw	r0, r2
     160:	02 03       	mulsu	r16, r18
     162:	01 12       	cpse	r0, r17
     164:	01 00       	.word	0x0001	; ????
     166:	02 00       	.word	0x0002	; ????
     168:	00 00       	nop
     16a:	40 4f       	sbci	r20, 0xF0	; 240
     16c:	1b 06       	cpc	r1, r27
     16e:	92 00       	.word	0x0092	; ????
     170:	01 01       	movw	r0, r2
     172:	02 03       	mulsu	r16, r18
     174:	01 53       	subi	r16, 0x31	; 49
     176:	70 61       	ori	r23, 0x10	; 16
     178:	72 6b       	ori	r23, 0xB2	; 178
     17a:	46 75       	andi	r20, 0x56	; 86
     17c:	6e 00       	.word	0x006e	; ????
     17e:	55 53       	subi	r21, 0x35	; 53
     180:	42 20       	and	r4, r2
     182:	49 4f       	sbci	r20, 0xF9	; 249
     184:	20 42       	sbci	r18, 0x20	; 32
     186:	6f 61       	ori	r22, 0x1F	; 31
     188:	72 64       	ori	r23, 0x42	; 66
     18a:	00 04       	cpc	r0, r0
     18c:	03 09       	sbc	r16, r3
     18e:	04 00       	.word	0x0004	; ????
     190:	00 00       	nop
     192:	02 00       	.word	0x0002	; ????
     194:	09 0f       	add	r16, r25
     196:	00 00       	nop
     198:	03 04       	cpc	r0, r3
     19a:	01 00       	.word	0x0001	; ????
     19c:	0c 00       	.word	0x000c	; ????
	...
     1aa:	00 00       	nop
     1ac:	00 04       	cpc	r0, r0
     1ae:	08 02       	muls	r16, r24
     1b0:	01 10       	cpse	r0, r1
     1b2:	40 80       	ld	r4, Z
     1b4:	40 10       	cpse	r4, r0
     1b6:	20 40       	sbci	r18, 0x00	; 0
     1b8:	80 40       	sbci	r24, 0x00	; 0
     1ba:	80 08       	sbc	r8, r0
     1bc:	02 04       	cpc	r0, r2
     1be:	01 80       	ldd	r0, Z+1	; 0x01
     1c0:	40 20       	and	r4, r0
     1c2:	10 02       	muls	r17, r16
     1c4:	01 10       	cpse	r0, r1
     1c6:	80 10       	cpse	r8, r0
     1c8:	20 40       	sbci	r18, 0x00	; 0
     1ca:	40 20       	and	r4, r0
     1cc:	04 04       	cpc	r0, r4
     1ce:	04 04       	cpc	r0, r4
     1d0:	04 03       	mulsu	r16, r20
     1d2:	04 05       	cpc	r16, r4
     1d4:	02 02       	muls	r16, r18
     1d6:	02 02       	muls	r16, r18
     1d8:	04 03       	mulsu	r16, r20
     1da:	02 02       	muls	r16, r18
     1dc:	02 02       	muls	r16, r18
     1de:	06 06       	cpc	r0, r22
     1e0:	06 06       	cpc	r0, r22
     1e2:	06 06       	cpc	r0, r22
     1e4:	04 04       	cpc	r0, r4
     1e6:	02 02       	muls	r16, r18
     1e8:	02 04       	cpc	r0, r2
     1ea:	04 00       	.word	0x0004	; ????
     1ec:	00 00       	nop
     1ee:	00 23       	and	r16, r16
     1f0:	00 26       	eor	r0, r16
     1f2:	00 29       	or	r16, r0
     1f4:	00 2c       	mov	r0, r0
     1f6:	00 2f       	mov	r16, r16
     1f8:	00 00       	nop
     1fa:	00 00       	nop
     1fc:	00 25       	eor	r16, r0
     1fe:	00 28       	or	r0, r0
     200:	00 2b       	or	r16, r16
     202:	00 2e       	mov	r0, r16
     204:	00 31       	cpi	r16, 0x10	; 16
     206:	00 00       	nop
     208:	00 00       	nop
     20a:	00 24       	eor	r0, r0
     20c:	00 27       	eor	r16, r16
     20e:	00 2a       	or	r0, r16
     210:	00 2d       	mov	r16, r0
     212:	00 30       	cpi	r16, 0x00	; 0
     214:	00 74       	andi	r16, 0x40	; 64
     216:	6f 20       	and	r6, r15
     218:	45 45       	sbci	r20, 0x55	; 85
     21a:	50 52       	subi	r21, 0x20	; 32
     21c:	4f 4d       	sbci	r20, 0xDF	; 223
     21e:	00 50       	subi	r16, 0x00	; 0
     220:	6f 73       	andi	r22, 0x3F	; 63
     222:	69 74       	andi	r22, 0x49	; 73
     224:	69 6f       	ori	r22, 0xF9	; 249
     226:	6e 73       	andi	r22, 0x3E	; 62
     228:	20 73       	andi	r18, 0x30	; 48
     22a:	61 76       	andi	r22, 0x61	; 97
     22c:	65 64       	ori	r22, 0x45	; 69
     22e:	00 53       	subi	r16, 0x30	; 48
     230:	65 72       	andi	r22, 0x25	; 37
     232:	76 6f       	ori	r23, 0xF6	; 246
     234:	20 70       	andi	r18, 0x00	; 0
     236:	6f 73       	andi	r22, 0x3F	; 63
     238:	20 69       	ori	r18, 0x90	; 144
     23a:	73 3a       	cpi	r23, 0xA3	; 163
     23c:	20 00       	.word	0x0020	; ????
     23e:	53 65       	ori	r21, 0x53	; 83
     240:	72 76       	andi	r23, 0x62	; 98
     242:	6f 20       	and	r6, r15
     244:	70 6f       	ori	r23, 0xF0	; 240
     246:	77 65       	ori	r23, 0x57	; 87
     248:	72 20       	and	r7, r2
     24a:	6f 75       	andi	r22, 0x5F	; 95
     24c:	74 00       	.word	0x0074	; ????
     24e:	53 65       	ori	r21, 0x53	; 83
     250:	72 76       	andi	r23, 0x62	; 98
     252:	6f 20       	and	r6, r15
     254:	70 6f       	ori	r23, 0xF0	; 240
     256:	73 20       	and	r7, r3
     258:	69 73       	andi	r22, 0x39	; 57
     25a:	3a 20       	and	r3, r10
     25c:	00 53       	subi	r16, 0x30	; 48
     25e:	65 72       	andi	r22, 0x25	; 37
     260:	76 6f       	ori	r23, 0xF6	; 246
     262:	20 70       	andi	r18, 0x00	; 0
     264:	6f 77       	andi	r22, 0x7F	; 127
     266:	65 72       	andi	r22, 0x25	; 37
     268:	20 69       	ori	r18, 0x90	; 144
     26a:	6e 00       	.word	0x006e	; ????
     26c:	53 65       	ori	r21, 0x53	; 83
     26e:	72 76       	andi	r23, 0x62	; 98
     270:	6f 20       	and	r6, r15
     272:	70 6f       	ori	r23, 0xF0	; 240
     274:	73 20       	and	r7, r3
     276:	69 73       	andi	r22, 0x39	; 57
     278:	3a 20       	and	r3, r10
     27a:	00 53       	subi	r16, 0x30	; 48
     27c:	65 72       	andi	r22, 0x25	; 37
     27e:	76 6f       	ori	r23, 0xF6	; 246
     280:	20 72       	andi	r18, 0x20	; 32
     282:	65 73       	andi	r22, 0x35	; 53
     284:	65 74       	andi	r22, 0x45	; 69
     286:	20 6f       	ori	r18, 0xF0	; 240
     288:	75 74       	andi	r23, 0x45	; 69
     28a:	00 53       	subi	r16, 0x30	; 48
     28c:	65 72       	andi	r22, 0x25	; 37
     28e:	76 6f       	ori	r23, 0xF6	; 246
     290:	20 70       	andi	r18, 0x00	; 0
     292:	6f 73       	andi	r22, 0x3F	; 63
     294:	20 69       	ori	r18, 0x90	; 144
     296:	73 3a       	cpi	r23, 0xA3	; 163
     298:	20 00       	.word	0x0020	; ????
     29a:	53 65       	ori	r21, 0x53	; 83
     29c:	72 76       	andi	r23, 0x62	; 98
     29e:	6f 20       	and	r6, r15
     2a0:	72 65       	ori	r23, 0x52	; 82
     2a2:	73 65       	ori	r23, 0x53	; 83
     2a4:	74 20       	and	r7, r4
     2a6:	69 6e       	ori	r22, 0xE9	; 233
     2a8:	2e 00       	.word	0x002e	; ????
     2aa:	4b 65       	ori	r20, 0x5B	; 91
     2ac:	79 3a       	cpi	r23, 0xA9	; 169
     2ae:	20 00       	.word	0x0020	; ????
     2b0:	63 6f       	ori	r22, 0xF3	; 243
     2b2:	6d 70       	andi	r22, 0x0D	; 13
     2b4:	75 74       	andi	r23, 0x45	; 69
     2b6:	65 72       	andi	r22, 0x25	; 37
     2b8:	20 6e       	ori	r18, 0xE0	; 224
     2ba:	6f 77       	andi	r22, 0x7F	; 127
     2bc:	2e 00       	.word	0x002e	; ????
     2be:	50 6f       	ori	r21, 0xF0	; 240
     2c0:	77 65       	ori	r23, 0x57	; 87
     2c2:	72 69       	ori	r23, 0x92	; 146
     2c4:	6e 67       	ori	r22, 0x7E	; 126
     2c6:	20 6f       	ori	r18, 0xF0	; 240
     2c8:	6e 20       	and	r6, r14
     2ca:	74 68       	ori	r23, 0x84	; 132
     2cc:	65 00       	.word	0x0065	; ????
     2ce:	63 6f       	ori	r22, 0xF3	; 243
     2d0:	6d 70       	andi	r22, 0x0D	; 13
     2d2:	75 74       	andi	r23, 0x45	; 69
     2d4:	65 72       	andi	r22, 0x25	; 37
     2d6:	20 6e       	ori	r18, 0xE0	; 224
     2d8:	6f 77       	andi	r22, 0x7F	; 127
     2da:	21 21       	and	r18, r1
     2dc:	00 50       	subi	r16, 0x00	; 0
     2de:	6f 77       	andi	r22, 0x7F	; 127
     2e0:	65 72       	andi	r22, 0x25	; 37
     2e2:	69 6e       	ori	r22, 0xE9	; 233
     2e4:	67 20       	and	r6, r7
     2e6:	6f 66       	ori	r22, 0x6F	; 111
     2e8:	66 20       	and	r6, r6
     2ea:	74 68       	ori	r23, 0x84	; 132
     2ec:	65 00       	.word	0x0065	; ????
     2ee:	63 6f       	ori	r22, 0xF3	; 243
     2f0:	6d 70       	andi	r22, 0x0D	; 13
     2f2:	75 74       	andi	r23, 0x45	; 69
     2f4:	65 72       	andi	r22, 0x25	; 37
     2f6:	20 6e       	ori	r18, 0xE0	; 224
     2f8:	6f 77       	andi	r22, 0x7F	; 127
     2fa:	21 21       	and	r18, r1
     2fc:	00 52       	subi	r16, 0x20	; 32
     2fe:	65 73       	andi	r22, 0x35	; 53
     300:	65 74       	andi	r22, 0x45	; 69
     302:	74 69       	ori	r23, 0x94	; 148
     304:	6e 67       	ori	r22, 0x7E	; 126
     306:	20 74       	andi	r18, 0x40	; 64
     308:	68 65       	ori	r22, 0x58	; 88
     30a:	00 64       	ori	r16, 0x40	; 64
     30c:	69 73       	andi	r22, 0x39	; 57
     30e:	61 62       	ori	r22, 0x21	; 33
     310:	6c 65       	ori	r22, 0x5C	; 92
     312:	64 2e       	mov	r6, r20
     314:	00 53       	subi	r16, 0x30	; 48
     316:	65 72       	andi	r22, 0x25	; 37
     318:	76 6f       	ori	r23, 0xF6	; 246
     31a:	20 61       	ori	r18, 0x10	; 16
     31c:	64 6a       	ori	r22, 0xA4	; 164
     31e:	75 73       	andi	r23, 0x35	; 53
     320:	74 20       	and	r7, r4
     322:	6d 6f       	ori	r22, 0xFD	; 253
     324:	64 65       	ori	r22, 0x54	; 84
     326:	00 53       	subi	r16, 0x30	; 48
     328:	70 61       	ori	r23, 0x10	; 16
     32a:	63 65       	ori	r22, 0x53	; 83
     32c:	20 62       	ori	r18, 0x20	; 32
     32e:	61 72       	andi	r22, 0x21	; 33
     330:	20 74       	andi	r18, 0x40	; 64
     332:	6f 20       	and	r6, r15
     334:	73 65       	ori	r23, 0x53	; 83
     336:	74 00       	.word	0x0074	; ????
     338:	6b 65       	ori	r22, 0x5B	; 91
     33a:	79 73       	andi	r23, 0x39	; 57
     33c:	20 74       	andi	r18, 0x40	; 64
     33e:	6f 20       	and	r6, r15
     340:	6d 6f       	ori	r22, 0xFD	; 253
     342:	76 65       	ori	r23, 0x56	; 86
     344:	20 61       	ori	r18, 0x10	; 16
     346:	6e 64       	ori	r22, 0x4E	; 78
     348:	00 65       	ori	r16, 0x50	; 80
     34a:	6e 61       	ori	r22, 0x1E	; 30
     34c:	62 6c       	ori	r22, 0xC2	; 194
     34e:	65 64       	ori	r22, 0x45	; 69
     350:	2e 20       	and	r2, r14
     352:	50 72       	andi	r21, 0x20	; 32
     354:	65 73       	andi	r22, 0x35	; 53
     356:	73 20       	and	r7, r3
     358:	61 72       	andi	r22, 0x21	; 33
     35a:	72 6f       	ori	r23, 0xF2	; 242
     35c:	77 00       	.word	0x0077	; ????
     35e:	53 65       	ori	r21, 0x53	; 83
     360:	72 76       	andi	r23, 0x62	; 98
     362:	6f 20       	and	r6, r15
     364:	61 64       	ori	r22, 0x41	; 65
     366:	6a 75       	andi	r22, 0x5A	; 90
     368:	73 74       	andi	r23, 0x43	; 67
     36a:	20 6d       	ori	r18, 0xD0	; 208
     36c:	6f 64       	ori	r22, 0x4F	; 79
     36e:	65 00       	.word	0x0065	; ????
     370:	43 54       	subi	r20, 0x43	; 67
     372:	52 4c       	sbci	r21, 0xC2	; 194
     374:	2b 41       	sbci	r18, 0x1B	; 27
     376:	4c 54       	subi	r20, 0x4C	; 76
     378:	2b 44       	sbci	r18, 0x4B	; 75
     37a:	45 4c       	sbci	r20, 0xC5	; 197
     37c:	45 54       	subi	r20, 0x45	; 69
     37e:	45 00       	.word	0x0045	; ????
     380:	53 65       	ori	r21, 0x53	; 83
     382:	6e 74       	andi	r22, 0x4E	; 78
     384:	00 53       	subi	r16, 0x30	; 48
     386:	79 73       	andi	r23, 0x39	; 57
     388:	74 65       	ori	r23, 0x54	; 84
     38a:	6d 20       	and	r6, r13
     38c:	72 65       	ori	r23, 0x52	; 82
     38e:	61 64       	ori	r22, 0x41	; 65
     390:	79 21       	and	r23, r9
     392:	21 00       	.word	0x0021	; ????
     394:	3a 00       	.word	0x003a	; ????
     396:	6f 72       	andi	r22, 0x2F	; 47
     398:	20 77       	andi	r18, 0x70	; 112
     39a:	61 69       	ori	r22, 0x91	; 145
     39c:	74 20       	and	r7, r4
     39e:	74 65       	ori	r23, 0x54	; 84
     3a0:	6e 20       	and	r6, r14
     3a2:	73 65       	ori	r23, 0x53	; 83
     3a4:	63 6f       	ori	r22, 0xF3	; 243
     3a6:	6e 64       	ori	r22, 0x4E	; 78
     3a8:	73 00       	.word	0x0073	; ????
     3aa:	50 72       	andi	r21, 0x20	; 32
     3ac:	65 73       	andi	r22, 0x35	; 53
     3ae:	73 20       	and	r7, r3
     3b0:	61 20       	and	r6, r1
     3b2:	6b 65       	ori	r22, 0x5B	; 91
     3b4:	79 20       	and	r7, r9
     3b6:	74 6f       	ori	r23, 0xF4	; 244
     3b8:	20 62       	ori	r18, 0x20	; 32
     3ba:	65 67       	ori	r22, 0x75	; 117
     3bc:	69 6e       	ori	r22, 0xE9	; 233
     3be:	00 00       	nop
     3c0:	01 32       	cpi	r16, 0x21	; 33
     3c2:	46 47       	sbci	r20, 0x76	; 118
     3c4:	64 9e       	mul	r6, r20
     3c6:	07 08       	sbc	r0, r7
     3c8:	09 0a       	sbc	r0, r25
     3ca:	0b 0c       	add	r0, r11
     3cc:	0d 0e       	add	r0, r29
     3ce:	0f 10       	cpse	r0, r15
     3d0:	11 12       	cpse	r1, r17
     3d2:	13 14       	cp	r1, r3
     3d4:	15 16       	cp	r1, r21
     3d6:	17 18       	sub	r1, r7
     3d8:	19 1a       	sub	r1, r25
     3da:	1b 1c       	adc	r1, r11
     3dc:	1d 1e       	adc	r1, r29
     3de:	1f 2c       	mov	r1, r15
     3e0:	21 22       	and	r2, r17
     3e2:	23 24       	eor	r2, r3
     3e4:	25 26       	eor	r2, r21
     3e6:	34 28       	or	r3, r4
     3e8:	29 2a       	or	r2, r25
     3ea:	2b 36       	cpi	r18, 0x6B	; 107
     3ec:	2d 37       	cpi	r18, 0x7D	; 125
     3ee:	38 27       	eor	r19, r24
     3f0:	1e 1f       	adc	r17, r30
     3f2:	20 21       	and	r18, r0
     3f4:	22 23       	and	r18, r18
     3f6:	24 25       	eor	r18, r4
     3f8:	26 3a       	cpi	r18, 0xA6	; 166
     3fa:	33 3c       	cpi	r19, 0xC3	; 195
     3fc:	2e 3e       	cpi	r18, 0xEE	; 238
     3fe:	3f 40       	sbci	r19, 0x0F	; 15
     400:	41 42       	sbci	r20, 0x21	; 33
     402:	43 44       	sbci	r20, 0x43	; 67
     404:	45 46       	sbci	r20, 0x65	; 101
     406:	47 48       	sbci	r20, 0x87	; 135
     408:	49 4a       	sbci	r20, 0xA9	; 169
     40a:	4b 4c       	sbci	r20, 0xCB	; 203
     40c:	4d 4e       	sbci	r20, 0xED	; 237
     40e:	4f 50       	subi	r20, 0x0F	; 15
     410:	51 52       	subi	r21, 0x21	; 33
     412:	53 54       	subi	r21, 0x43	; 67
     414:	55 56       	subi	r21, 0x65	; 101
     416:	57 58       	subi	r21, 0x87	; 135
     418:	59 5a       	subi	r21, 0xA9	; 169
     41a:	2f 31       	cpi	r18, 0x1F	; 31
     41c:	30 5e       	subi	r19, 0xE0	; 224
     41e:	5f 35       	cpi	r21, 0x5F	; 95
     420:	04 05       	cpc	r16, r4
     422:	06 07       	cpc	r16, r22
     424:	08 09       	sbc	r16, r8
     426:	0a 0b       	sbc	r16, r26
     428:	0c 0d       	add	r16, r12
     42a:	0e 0f       	add	r16, r30
     42c:	10 11       	cpse	r17, r0
     42e:	12 13       	cpse	r17, r18
     430:	14 15       	cp	r17, r4
     432:	16 17       	cp	r17, r22
     434:	18 19       	sub	r17, r8
     436:	1a 1b       	sub	r17, r26
     438:	1c 1d       	adc	r17, r12
     43a:	7b 7c       	andi	r23, 0xCB	; 203
     43c:	7d 7e       	andi	r23, 0xED	; 237
     43e:	7f e0       	ldi	r23, 0x0F	; 15
     440:	e1 e2       	ldi	r30, 0x21	; 33
     442:	e3 e4       	ldi	r30, 0x43	; 67
     444:	e5 e6       	ldi	r30, 0x65	; 101
     446:	e7 88       	ldd	r14, Z+23	; 0x17
     448:	89 8a       	std	Y+17, r8	; 0x11
     44a:	8b 8c       	ldd	r8, Y+27	; 0x1b
     44c:	8d 8e       	std	Y+29, r8	; 0x1d
     44e:	8f 90       	pop	r8
     450:	91 92       	st	Z+, r9
     452:	93 94       	inc	r9
     454:	95 96       	adiw	r26, 0x25	; 37
     456:	97 98       	cbi	0x12, 7	; 18
     458:	99 9a       	sbi	0x13, 1	; 19
     45a:	9b 9c       	mul	r9, r11
     45c:	9d 9e       	mul	r9, r29
     45e:	9f a0       	ldd	r9, Y+39	; 0x27
     460:	a1 a2       	std	Z+33, r10	; 0x21
     462:	a3 a4       	ldd	r10, Z+43	; 0x2b
     464:	a5 a6       	std	Z+45, r10	; 0x2d
     466:	a7 a8       	ldd	r10, Z+55	; 0x37
     468:	a9 aa       	std	Y+49, r10	; 0x31
     46a:	ab ac       	ldd	r10, Y+59	; 0x3b
     46c:	ad ae       	std	Y+61, r10	; 0x3d
     46e:	af 28       	or	r10, r15
     470:	29 2a       	or	r2, r25
     472:	2b b4       	in	r2, 0x2b	; 43
     474:	b5 b6       	in	r11, 0x35	; 53
     476:	b7 b8       	out	0x07, r11	; 7
     478:	b9 ba       	out	0x19, r11	; 25
     47a:	bb bc       	out	0x2b, r11	; 43
     47c:	bd be       	out	0x3d, r11	; 61
     47e:	bf c0       	rjmp	.+382    	;  0x5fe
     480:	39 3a       	cpi	r19, 0xA9	; 169
     482:	3b 3c       	cpi	r19, 0xCB	; 203
     484:	3d 3e       	cpi	r19, 0xED	; 237
     486:	3f 40       	sbci	r19, 0x0F	; 15
     488:	41 42       	sbci	r20, 0x21	; 33
     48a:	43 44       	sbci	r20, 0x43	; 67
     48c:	45 ce       	rjmp	.-886    	;  0x118
     48e:	cf d0       	rcall	.+414    	;  0x62e
     490:	d1 4a       	sbci	r29, 0xA1	; 161
     492:	4b 4c       	sbci	r20, 0xCB	; 203
     494:	4d 4e       	sbci	r20, 0xED	; 237
     496:	4f 50       	subi	r20, 0x0F	; 15
     498:	51 52       	subi	r21, 0x21	; 33
     49a:	db dc       	rcall	.-1610   	;  0xfffffe52
     49c:	dd de       	rcall	.-582    	;  0x258
     49e:	df e0       	ldi	r29, 0x0F	; 15
     4a0:	e1 e2       	ldi	r30, 0x21	; 33
     4a2:	e3 e4       	ldi	r30, 0x43	; 67
     4a4:	e5 e6       	ldi	r30, 0x65	; 101
     4a6:	e7 e8       	ldi	r30, 0x87	; 135
     4a8:	e9 ea       	ldi	r30, 0xA9	; 169
     4aa:	eb ec       	ldi	r30, 0xCB	; 203
     4ac:	ed ee       	ldi	r30, 0xED	; 237
     4ae:	ef f0       	brie	.+58     	;  0x4ea
     4b0:	f1 f2       	breq	.-68     	;  0x46e
     4b2:	f3 f4       	brvc	.+60     	;  0x4f0
     4b4:	f5 f6       	brhc	.-68     	;  0x472
     4b6:	f7 f8       	bld	r15, 7
     4b8:	f9 fa       	.word	0xfaf9	; ????
     4ba:	fb fc       	.word	0xfcfb	; ????
     4bc:	fd fe       	.word	0xfefd	; ????
     4be:	ff 00       	.word	0x00ff	; ????
     4c0:	0b 04       	cpc	r0, r11
     4c2:	7c 09       	sbc	r23, r12
     4c4:	b9 0a       	sbc	r11, r25
     4c6:	28 0b       	sbc	r18, r24
     4c8:	7d 1c       	adc	r7, r13
     4ca:	d2 20       	and	r13, r2
     4cc:	02 21       	and	r16, r2
     4ce:	11 24       	eor	r1, r1
     4d0:	1f be       	out	0x3f, r1	; 63
     4d2:	cf ef       	ldi	r28, 0xFF	; 255
     4d4:	da e0       	ldi	r29, 0x0A	; 10
     4d6:	de bf       	out	0x3e, r29	; 62
     4d8:	cd bf       	out	0x3d, r28	; 61
     4da:	11 e0       	ldi	r17, 0x01	; 1
     4dc:	a0 e0       	ldi	r26, 0x00	; 0
     4de:	b1 e0       	ldi	r27, 0x01	; 1
     4e0:	ea ef       	ldi	r30, 0xFA	; 250
     4e2:	ff e4       	ldi	r31, 0x4F	; 79
     4e4:	02 c0       	rjmp	.+4      	;  0x4ea
     4e6:	05 90       	lpm	r0, Z+
     4e8:	0d 92       	st	X+, r0
     4ea:	a2 3a       	cpi	r26, 0xA2	; 162
     4ec:	b1 07       	cpc	r27, r17
     4ee:	d9 f7       	brne	.-10     	;  0x4e6
     4f0:	15 e0       	ldi	r17, 0x05	; 5
     4f2:	a2 ea       	ldi	r26, 0xA2	; 162
     4f4:	b1 e0       	ldi	r27, 0x01	; 1
     4f6:	01 c0       	rjmp	.+2      	;  0x4fa
     4f8:	1d 92       	st	X+, r1
     4fa:	a4 32       	cpi	r26, 0x24	; 36
     4fc:	b1 07       	cpc	r27, r17
     4fe:	e1 f7       	brne	.-8      	;  0x4f8
     500:	12 e0       	ldi	r17, 0x02	; 2
     502:	c6 e6       	ldi	r28, 0x66	; 102
     504:	d2 e0       	ldi	r29, 0x02	; 2
     506:	04 c0       	rjmp	.+8      	;  0x510
     508:	21 97       	sbiw	r28, 0x01	; 1
     50a:	fe 01       	movw	r30, r28
     50c:	0e 94 53 25 	call	0x4aa6	;  0x4aa6
     510:	c0 36       	cpi	r28, 0x60	; 96
     512:	d1 07       	cpc	r29, r17
     514:	c9 f7       	brne	.-14     	;  0x508
     516:	0e 94 34 0b 	call	0x1668	;  0x1668
     51a:	0c 94 f0 27 	jmp	0x4fe0	;  0x4fe0
     51e:	0c 94 00 00 	jmp	0	;  0x0
     522:	fc 01       	movw	r30, r24
     524:	82 81       	ldd	r24, Z+2	; 0x02
     526:	8f 5b       	subi	r24, 0xBF	; 191
     528:	fb 01       	movw	r30, r22
     52a:	80 83       	st	Z, r24
     52c:	81 e0       	ldi	r24, 0x01	; 1
     52e:	08 95       	ret
     530:	cf 93       	push	r28
     532:	df 93       	push	r29
     534:	cd b7       	in	r28, 0x3d	; 61
     536:	de b7       	in	r29, 0x3e	; 62
     538:	69 97       	sbiw	r28, 0x19	; 25
     53a:	0f b6       	in	r0, 0x3f	; 63
     53c:	f8 94       	cli
     53e:	de bf       	out	0x3e, r29	; 62
     540:	0f be       	out	0x3f, r0	; 63
     542:	cd bf       	out	0x3d, r28	; 61
     544:	fc 01       	movw	r30, r24
     546:	db 01       	movw	r26, r22
     548:	9c 91       	ld	r25, X
     54a:	9f 5f       	subi	r25, 0xFF	; 255
     54c:	9c 93       	st	X, r25
     54e:	be 01       	movw	r22, r28
     550:	6f 5f       	subi	r22, 0xFF	; 255
     552:	7f 4f       	sbci	r23, 0xFF	; 255
     554:	89 e1       	ldi	r24, 0x19	; 25
     556:	db 01       	movw	r26, r22
     558:	1d 92       	st	X+, r1
     55a:	8a 95       	dec	r24
     55c:	e9 f7       	brne	.-6      	;  0x558
     55e:	29 e0       	ldi	r18, 0x09	; 9
     560:	29 83       	std	Y+1, r18	; 0x01
     562:	84 e0       	ldi	r24, 0x04	; 4
     564:	8a 83       	std	Y+2, r24	; 0x02
     566:	91 e0       	ldi	r25, 0x01	; 1
     568:	9d 83       	std	Y+5, r25	; 0x05
     56a:	83 e0       	ldi	r24, 0x03	; 3
     56c:	8e 83       	std	Y+6, r24	; 0x06
     56e:	9f 83       	std	Y+7, r25	; 0x07
     570:	98 87       	std	Y+8, r25	; 0x08
     572:	2a 87       	std	Y+10, r18	; 0x0a
     574:	21 e2       	ldi	r18, 0x21	; 33
     576:	2b 87       	std	Y+11, r18	; 0x0b
     578:	9c 87       	std	Y+12, r25	; 0x0c
     57a:	21 e1       	ldi	r18, 0x11	; 17
     57c:	2d 87       	std	Y+13, r18	; 0x0d
     57e:	9f 87       	std	Y+15, r25	; 0x0f
     580:	22 e2       	ldi	r18, 0x22	; 34
     582:	28 8b       	std	Y+16, r18	; 0x10
     584:	25 e4       	ldi	r18, 0x45	; 69
     586:	29 8b       	std	Y+17, r18	; 0x11
     588:	27 e0       	ldi	r18, 0x07	; 7
     58a:	2b 8b       	std	Y+19, r18	; 0x13
     58c:	25 e0       	ldi	r18, 0x05	; 5
     58e:	2c 8b       	std	Y+20, r18	; 0x14
     590:	8e 8b       	std	Y+22, r24	; 0x16
     592:	20 e4       	ldi	r18, 0x40	; 64
     594:	30 e0       	ldi	r19, 0x00	; 0
     596:	38 8f       	std	Y+24, r19	; 0x18
     598:	2f 8b       	std	Y+23, r18	; 0x17
     59a:	99 8f       	std	Y+25, r25	; 0x19
     59c:	82 81       	ldd	r24, Z+2	; 0x02
     59e:	8b 83       	std	Y+3, r24	; 0x03
     5a0:	83 81       	ldd	r24, Z+3	; 0x03
     5a2:	80 68       	ori	r24, 0x80	; 128
     5a4:	8d 8b       	std	Y+21, r24	; 0x15
     5a6:	49 e1       	ldi	r20, 0x19	; 25
     5a8:	50 e0       	ldi	r21, 0x00	; 0
     5aa:	80 e0       	ldi	r24, 0x00	; 0
     5ac:	0e 94 34 0e 	call	0x1c68	;  0x1c68
     5b0:	69 96       	adiw	r28, 0x19	; 25
     5b2:	0f b6       	in	r0, 0x3f	; 63
     5b4:	f8 94       	cli
     5b6:	de bf       	out	0x3e, r29	; 62
     5b8:	0f be       	out	0x3f, r0	; 63
     5ba:	cd bf       	out	0x3d, r28	; 61
     5bc:	df 91       	pop	r29
     5be:	cf 91       	pop	r28
     5c0:	08 95       	ret
     5c2:	fb 01       	movw	r30, r22
     5c4:	20 81       	ld	r18, Z
     5c6:	21 38       	cpi	r18, 0x81	; 129
     5c8:	b9 f4       	brne	.+46     	;  0x5f8
     5ca:	23 81       	ldd	r18, Z+3	; 0x03
     5cc:	22 32       	cpi	r18, 0x22	; 34
     5ce:	a1 f4       	brne	.+40     	;  0x5f8
     5d0:	dc 01       	movw	r26, r24
     5d2:	12 96       	adiw	r26, 0x02	; 2
     5d4:	2c 91       	ld	r18, X
     5d6:	12 97       	sbiw	r26, 0x02	; 2
     5d8:	30 e0       	ldi	r19, 0x00	; 0
     5da:	44 81       	ldd	r20, Z+4	; 0x04
     5dc:	55 81       	ldd	r21, Z+5	; 0x05
     5de:	42 17       	cp	r20, r18
     5e0:	53 07       	cpc	r21, r19
     5e2:	51 f4       	brne	.+20     	;  0x5f8
     5e4:	21 e0       	ldi	r18, 0x01	; 1
     5e6:	53 96       	adiw	r26, 0x13	; 19
     5e8:	2c 93       	st	X, r18
     5ea:	45 e4       	ldi	r20, 0x45	; 69
     5ec:	50 e0       	ldi	r21, 0x00	; 0
     5ee:	6a ec       	ldi	r22, 0xCA	; 202
     5f0:	70 e0       	ldi	r23, 0x00	; 0
     5f2:	80 e8       	ldi	r24, 0x80	; 128
     5f4:	0c 94 34 0e 	jmp	0x1c68	;  0x1c68
     5f8:	80 e0       	ldi	r24, 0x00	; 0
     5fa:	90 e0       	ldi	r25, 0x00	; 0
     5fc:	08 95       	ret
     5fe:	cf 93       	push	r28
     600:	df 93       	push	r29
     602:	ec 01       	movw	r28, r24
     604:	fb 01       	movw	r30, r22
     606:	8a 81       	ldd	r24, Y+2	; 0x02
     608:	90 e0       	ldi	r25, 0x00	; 0
     60a:	24 81       	ldd	r18, Z+4	; 0x04
     60c:	35 81       	ldd	r19, Z+5	; 0x05
     60e:	82 17       	cp	r24, r18
     610:	93 07       	cpc	r25, r19
     612:	09 f0       	breq	.+2      	;  0x616
     614:	4a c0       	rjmp	.+148    	;  0x6aa
     616:	81 81       	ldd	r24, Z+1	; 0x01
     618:	90 81       	ld	r25, Z
     61a:	91 3a       	cpi	r25, 0xA1	; 161
     61c:	69 f4       	brne	.+26     	;  0x638
     61e:	81 30       	cpi	r24, 0x01	; 1
     620:	09 f4       	brne	.+2      	;  0x624
     622:	41 c0       	rjmp	.+130    	;  0x6a6
     624:	83 30       	cpi	r24, 0x03	; 3
     626:	11 f4       	brne	.+4      	;  0x62c
     628:	8b 89       	ldd	r24, Y+19	; 0x13
     62a:	03 c0       	rjmp	.+6      	;  0x632
     62c:	82 30       	cpi	r24, 0x02	; 2
     62e:	e9 f5       	brne	.+122    	;  0x6aa
     630:	8c 89       	ldd	r24, Y+20	; 0x14
     632:	80 93 f1 00 	sts	0x00F1, r24
     636:	37 c0       	rjmp	.+110    	;  0x6a6
     638:	91 32       	cpi	r25, 0x21	; 33
     63a:	b9 f5       	brne	.+110    	;  0x6aa
     63c:	8b 30       	cpi	r24, 0x0B	; 11
     63e:	19 f4       	brne	.+6      	;  0x646
     640:	82 81       	ldd	r24, Z+2	; 0x02
     642:	8b 8b       	std	Y+19, r24	; 0x13
     644:	30 c0       	rjmp	.+96     	;  0x6a6
     646:	8a 30       	cpi	r24, 0x0A	; 10
     648:	19 f4       	brne	.+6      	;  0x650
     64a:	82 81       	ldd	r24, Z+2	; 0x02
     64c:	8c 8b       	std	Y+20, r24	; 0x14
     64e:	2b c0       	rjmp	.+86     	;  0x6a6
     650:	89 30       	cpi	r24, 0x09	; 9
     652:	59 f5       	brne	.+86     	;  0x6aa
     654:	66 81       	ldd	r22, Z+6	; 0x06
     656:	77 81       	ldd	r23, Z+7	; 0x07
     658:	83 81       	ldd	r24, Z+3	; 0x03
     65a:	83 30       	cpi	r24, 0x03	; 3
     65c:	79 f4       	brne	.+30     	;  0x67c
     65e:	88 8d       	ldd	r24, Y+24	; 0x18
     660:	99 8d       	ldd	r25, Y+25	; 0x19
     662:	68 17       	cp	r22, r24
     664:	79 07       	cpc	r23, r25
     666:	09 f5       	brne	.+66     	;  0x6aa
     668:	8e 89       	ldd	r24, Y+22	; 0x16
     66a:	9f 89       	ldd	r25, Y+23	; 0x17
     66c:	0e 94 5b 0e 	call	0x1cb6	;  0x1cb6
     670:	88 8d       	ldd	r24, Y+24	; 0x18
     672:	99 8d       	ldd	r25, Y+25	; 0x19
     674:	90 68       	ori	r25, 0x80	; 128
     676:	99 8f       	std	Y+25, r25	; 0x19
     678:	88 8f       	std	Y+24, r24	; 0x18
     67a:	15 c0       	rjmp	.+42     	;  0x6a6
     67c:	82 30       	cpi	r24, 0x02	; 2
     67e:	41 f4       	brne	.+16     	;  0x690
     680:	61 30       	cpi	r22, 0x01	; 1
     682:	71 05       	cpc	r23, r1
     684:	91 f4       	brne	.+36     	;  0x6aa
     686:	61 e0       	ldi	r22, 0x01	; 1
     688:	70 e0       	ldi	r23, 0x00	; 0
     68a:	ce 01       	movw	r24, r28
     68c:	45 96       	adiw	r24, 0x15	; 21
     68e:	09 c0       	rjmp	.+18     	;  0x6a2
     690:	81 30       	cpi	r24, 0x01	; 1
     692:	59 f4       	brne	.+22     	;  0x6aa
     694:	68 30       	cpi	r22, 0x08	; 8
     696:	71 05       	cpc	r23, r1
     698:	41 f4       	brne	.+16     	;  0x6aa
     69a:	68 e0       	ldi	r22, 0x08	; 8
     69c:	70 e0       	ldi	r23, 0x00	; 0
     69e:	ce 01       	movw	r24, r28
     6a0:	0a 96       	adiw	r24, 0x0a	; 10
     6a2:	0e 94 5b 0e 	call	0x1cb6	;  0x1cb6
     6a6:	81 e0       	ldi	r24, 0x01	; 1
     6a8:	01 c0       	rjmp	.+2      	;  0x6ac
     6aa:	80 e0       	ldi	r24, 0x00	; 0
     6ac:	df 91       	pop	r29
     6ae:	cf 91       	pop	r28
     6b0:	08 95       	ret
     6b2:	cf 93       	push	r28
     6b4:	df 93       	push	r29
     6b6:	ec 01       	movw	r28, r24
     6b8:	81 e0       	ldi	r24, 0x01	; 1
     6ba:	8c 83       	std	Y+4, r24	; 0x04
     6bc:	8d 83       	std	Y+5, r24	; 0x05
     6be:	9e 01       	movw	r18, r28
     6c0:	2e 5e       	subi	r18, 0xEE	; 238
     6c2:	3f 4f       	sbci	r19, 0xFF	; 255
     6c4:	3f 83       	std	Y+7, r19	; 0x07
     6c6:	2e 83       	std	Y+6, r18	; 0x06
     6c8:	19 86       	std	Y+9, r1	; 0x09
     6ca:	18 86       	std	Y+8, r1	; 0x08
     6cc:	23 e3       	ldi	r18, 0x33	; 51
     6ce:	31 e0       	ldi	r19, 0x01	; 1
     6d0:	39 83       	std	Y+1, r19	; 0x01
     6d2:	28 83       	st	Y, r18
     6d4:	8b 8b       	std	Y+19, r24	; 0x13
     6d6:	8c 8b       	std	Y+20, r24	; 0x14
     6d8:	1d 8a       	std	Y+21, r1	; 0x15
     6da:	1f 8a       	std	Y+23, r1	; 0x17
     6dc:	1e 8a       	std	Y+22, r1	; 0x16
     6de:	19 8e       	std	Y+25, r1	; 0x19
     6e0:	18 8e       	std	Y+24, r1	; 0x18
     6e2:	81 ec       	ldi	r24, 0xC1	; 193
     6e4:	8a 8b       	std	Y+18, r24	; 0x12
     6e6:	0e 94 04 10 	call	0x2008	;  0x2008
     6ea:	be 01       	movw	r22, r28
     6ec:	df 91       	pop	r29
     6ee:	cf 91       	pop	r28
     6f0:	0c 94 bd 0f 	jmp	0x1f7a	;  0x1f7a
     6f4:	bc 01       	movw	r22, r24
     6f6:	66 5f       	subi	r22, 0xF6	; 246
     6f8:	7f 4f       	sbci	r23, 0xFF	; 255
     6fa:	fc 01       	movw	r30, r24
     6fc:	83 81       	ldd	r24, Z+3	; 0x03
     6fe:	48 e0       	ldi	r20, 0x08	; 8
     700:	50 e0       	ldi	r21, 0x00	; 0
     702:	80 64       	ori	r24, 0x40	; 64
     704:	0c 94 9c 0d 	jmp	0x1b38	;  0x1b38
     708:	20 e2       	ldi	r18, 0x20	; 32
     70a:	26 0f       	add	r18, r22
     70c:	28 30       	cpi	r18, 0x08	; 8
     70e:	58 f4       	brcc	.+22     	;  0x726
     710:	41 e0       	ldi	r20, 0x01	; 1
     712:	50 e0       	ldi	r21, 0x00	; 0
     714:	01 c0       	rjmp	.+2      	;  0x718
     716:	44 0f       	add	r20, r20
     718:	2a 95       	dec	r18
     71a:	ea f7       	brpl	.-6      	;  0x716
     71c:	fc 01       	movw	r30, r24
     71e:	22 85       	ldd	r18, Z+10	; 0x0a
     720:	42 2b       	or	r20, r18
     722:	42 87       	std	Z+10, r20	; 0x0a
     724:	16 c0       	rjmp	.+44     	;  0x752
     726:	fc 01       	movw	r30, r24
     728:	3c 96       	adiw	r30, 0x0c	; 12
     72a:	20 e0       	ldi	r18, 0x00	; 0
     72c:	30 e0       	ldi	r19, 0x00	; 0
     72e:	41 91       	ld	r20, Z+
     730:	46 17       	cp	r20, r22
     732:	79 f0       	breq	.+30     	;  0x752
     734:	41 11       	cpse	r20, r1
     736:	05 c0       	rjmp	.+10     	;  0x742
     738:	fc 01       	movw	r30, r24
     73a:	e2 0f       	add	r30, r18
     73c:	f3 1f       	adc	r31, r19
     73e:	64 87       	std	Z+12, r22	; 0x0c
     740:	08 c0       	rjmp	.+16     	;  0x752
     742:	2f 5f       	subi	r18, 0xFF	; 255
     744:	3f 4f       	sbci	r19, 0xFF	; 255
     746:	26 30       	cpi	r18, 0x06	; 6
     748:	31 05       	cpc	r19, r1
     74a:	89 f7       	brne	.-30     	;  0x72e
     74c:	80 e0       	ldi	r24, 0x00	; 0
     74e:	90 e0       	ldi	r25, 0x00	; 0
     750:	08 95       	ret
     752:	81 e0       	ldi	r24, 0x01	; 1
     754:	90 e0       	ldi	r25, 0x00	; 0
     756:	08 95       	ret
     758:	cf 93       	push	r28
     75a:	df 93       	push	r29
     75c:	20 e2       	ldi	r18, 0x20	; 32
     75e:	26 0f       	add	r18, r22
     760:	28 30       	cpi	r18, 0x08	; 8
     762:	68 f4       	brcc	.+26     	;  0x77e
     764:	67 5e       	subi	r22, 0xE7	; 231
     766:	21 e0       	ldi	r18, 0x01	; 1
     768:	30 e0       	ldi	r19, 0x00	; 0
     76a:	01 c0       	rjmp	.+2      	;  0x76e
     76c:	22 0f       	add	r18, r18
     76e:	6a 95       	dec	r22
     770:	ea f7       	brpl	.-6      	;  0x76c
     772:	20 95       	com	r18
     774:	fc 01       	movw	r30, r24
     776:	32 85       	ldd	r19, Z+10	; 0x0a
     778:	23 23       	and	r18, r19
     77a:	22 87       	std	Z+10, r18	; 0x0a
     77c:	36 c0       	rjmp	.+108    	;  0x7ea
     77e:	fc 01       	movw	r30, r24
     780:	3c 96       	adiw	r30, 0x0c	; 12
     782:	9c 01       	movw	r18, r24
     784:	2e 5e       	subi	r18, 0xEE	; 238
     786:	3f 4f       	sbci	r19, 0xFF	; 255
     788:	40 81       	ld	r20, Z
     78a:	46 13       	cpse	r20, r22
     78c:	01 c0       	rjmp	.+2      	;  0x790
     78e:	10 82       	st	Z, r1
     790:	31 96       	adiw	r30, 0x01	; 1
     792:	e2 17       	cp	r30, r18
     794:	f3 07       	cpc	r31, r19
     796:	c1 f7       	brne	.-16     	;  0x788
     798:	40 e0       	ldi	r20, 0x00	; 0
     79a:	50 e0       	ldi	r21, 0x00	; 0
     79c:	c6 e0       	ldi	r28, 0x06	; 6
     79e:	d0 e0       	ldi	r29, 0x00	; 0
     7a0:	25 2f       	mov	r18, r21
     7a2:	30 e0       	ldi	r19, 0x00	; 0
     7a4:	b9 01       	movw	r22, r18
     7a6:	64 0f       	add	r22, r20
     7a8:	71 1d       	adc	r23, r1
     7aa:	66 30       	cpi	r22, 0x06	; 6
     7ac:	71 05       	cpc	r23, r1
     7ae:	ec f4       	brge	.+58     	;  0x7ea
     7b0:	fc 01       	movw	r30, r24
     7b2:	e2 0f       	add	r30, r18
     7b4:	f3 1f       	adc	r31, r19
     7b6:	24 85       	ldd	r18, Z+12	; 0x0c
     7b8:	21 11       	cpse	r18, r1
     7ba:	15 c0       	rjmp	.+42     	;  0x7e6
     7bc:	4f 5f       	subi	r20, 0xFF	; 255
     7be:	a5 2f       	mov	r26, r21
     7c0:	be 01       	movw	r22, r28
     7c2:	64 1b       	sub	r22, r20
     7c4:	71 09       	sbc	r23, r1
     7c6:	2a 2f       	mov	r18, r26
     7c8:	30 e0       	ldi	r19, 0x00	; 0
     7ca:	fc 01       	movw	r30, r24
     7cc:	26 17       	cp	r18, r22
     7ce:	37 07       	cpc	r19, r23
     7d0:	30 f4       	brcc	.+12     	;  0x7de
     7d2:	e2 0f       	add	r30, r18
     7d4:	f3 1f       	adc	r31, r19
     7d6:	25 85       	ldd	r18, Z+13	; 0x0d
     7d8:	24 87       	std	Z+12, r18	; 0x0c
     7da:	af 5f       	subi	r26, 0xFF	; 255
     7dc:	f4 cf       	rjmp	.-24     	;  0x7c6
     7de:	e6 0f       	add	r30, r22
     7e0:	f7 1f       	adc	r31, r23
     7e2:	14 86       	std	Z+12, r1	; 0x0c
     7e4:	dd cf       	rjmp	.-70     	;  0x7a0
     7e6:	5f 5f       	subi	r21, 0xFF	; 255
     7e8:	db cf       	rjmp	.-74     	;  0x7a0
     7ea:	81 e0       	ldi	r24, 0x01	; 1
     7ec:	90 e0       	ldi	r25, 0x00	; 0
     7ee:	df 91       	pop	r29
     7f0:	cf 91       	pop	r28
     7f2:	08 95       	ret
     7f4:	0a 96       	adiw	r24, 0x0a	; 10
     7f6:	28 e0       	ldi	r18, 0x08	; 8
     7f8:	fc 01       	movw	r30, r24
     7fa:	11 92       	st	Z+, r1
     7fc:	2a 95       	dec	r18
     7fe:	e9 f7       	brne	.-6      	;  0x7fa
     800:	08 95       	ret
     802:	cf 93       	push	r28
     804:	df 93       	push	r29
     806:	ec 01       	movw	r28, r24
     808:	0e 94 fa 03 	call	0x7f4	;  0x7f4
     80c:	ce 01       	movw	r24, r28
     80e:	df 91       	pop	r29
     810:	cf 91       	pop	r28
     812:	0c 94 7a 03 	jmp	0x6f4	;  0x6f4
     816:	82 ea       	ldi	r24, 0xA2	; 162
     818:	91 e0       	ldi	r25, 0x01	; 1
     81a:	0c 94 59 03 	jmp	0x6b2	;  0x6b2
     81e:	fc 01       	movw	r30, r24
     820:	12 82       	std	Z+2, r1	; 0x02
     822:	8f ef       	ldi	r24, 0xFF	; 255
     824:	81 83       	std	Z+1, r24	; 0x01
     826:	10 82       	st	Z, r1
     828:	13 82       	std	Z+3, r1	; 0x03
     82a:	08 95       	ret
     82c:	fc 01       	movw	r30, r24
     82e:	83 81       	ldd	r24, Z+3	; 0x03
     830:	88 23       	and	r24, r24
     832:	31 f0       	breq	.+12     	;  0x840
     834:	61 11       	cpse	r22, r1
     836:	03 c0       	rjmp	.+6      	;  0x83e
     838:	8f ef       	ldi	r24, 0xFF	; 255
     83a:	81 83       	std	Z+1, r24	; 0x01
     83c:	08 95       	ret
     83e:	11 82       	std	Z+1, r1	; 0x01
     840:	08 95       	ret
     842:	86 ef       	ldi	r24, 0xF6	; 246
     844:	93 e0       	ldi	r25, 0x03	; 3
     846:	0e 94 2a 1a 	call	0x3454	;  0x3454
     84a:	86 ef       	ldi	r24, 0xF6	; 246
     84c:	93 e0       	ldi	r25, 0x03	; 3
     84e:	0e 94 c5 1a 	call	0x358a	;  0x358a
     852:	91 e0       	ldi	r25, 0x01	; 1
     854:	81 11       	cpse	r24, r1
     856:	90 e0       	ldi	r25, 0x00	; 0
     858:	89 2f       	mov	r24, r25
     85a:	08 95       	ret
     85c:	cf 93       	push	r28
     85e:	df 93       	push	r29
     860:	ec 01       	movw	r28, r24
     862:	6a 83       	std	Y+2, r22	; 0x02
     864:	86 ef       	ldi	r24, 0xF6	; 246
     866:	93 e0       	ldi	r25, 0x03	; 3
     868:	0e 94 52 1a 	call	0x34a4	;  0x34a4
     86c:	6a 81       	ldd	r22, Y+2	; 0x02
     86e:	ce 01       	movw	r24, r28
     870:	0e 94 21 04 	call	0x842	;  0x842
     874:	8b 83       	std	Y+3, r24	; 0x03
     876:	88 23       	and	r24, r24
     878:	29 f0       	breq	.+10     	;  0x884
     87a:	86 ef       	ldi	r24, 0xF6	; 246
     87c:	93 e0       	ldi	r25, 0x03	; 3
     87e:	0e 94 f8 15 	call	0x2bf0	;  0x2bf0
     882:	88 83       	st	Y, r24
     884:	8b 81       	ldd	r24, Y+3	; 0x03
     886:	90 e0       	ldi	r25, 0x00	; 0
     888:	df 91       	pop	r29
     88a:	cf 91       	pop	r28
     88c:	08 95       	ret
     88e:	cf 93       	push	r28
     890:	df 93       	push	r29
     892:	fc 01       	movw	r30, r24
     894:	23 81       	ldd	r18, Z+3	; 0x03
     896:	22 23       	and	r18, r18
     898:	b1 f0       	breq	.+44     	;  0x8c6
     89a:	ec 01       	movw	r28, r24
     89c:	81 81       	ldd	r24, Z+1	; 0x01
     89e:	80 95       	com	r24
     8a0:	68 23       	and	r22, r24
     8a2:	60 83       	st	Z, r22
     8a4:	62 81       	ldd	r22, Z+2	; 0x02
     8a6:	86 ef       	ldi	r24, 0xF6	; 246
     8a8:	93 e0       	ldi	r25, 0x03	; 3
     8aa:	0e 94 2a 1a 	call	0x3454	;  0x3454
     8ae:	68 81       	ld	r22, Y
     8b0:	86 ef       	ldi	r24, 0xF6	; 246
     8b2:	93 e0       	ldi	r25, 0x03	; 3
     8b4:	0e 94 e1 1a 	call	0x35c2	;  0x35c2
     8b8:	86 ef       	ldi	r24, 0xF6	; 246
     8ba:	93 e0       	ldi	r25, 0x03	; 3
     8bc:	0e 94 c5 1a 	call	0x358a	;  0x358a
     8c0:	28 2f       	mov	r18, r24
     8c2:	30 e0       	ldi	r19, 0x00	; 0
     8c4:	02 c0       	rjmp	.+4      	;  0x8ca
     8c6:	20 e0       	ldi	r18, 0x00	; 0
     8c8:	30 e0       	ldi	r19, 0x00	; 0
     8ca:	81 e0       	ldi	r24, 0x01	; 1
     8cc:	90 e0       	ldi	r25, 0x00	; 0
     8ce:	23 2b       	or	r18, r19
     8d0:	11 f0       	breq	.+4      	;  0x8d6
     8d2:	80 e0       	ldi	r24, 0x00	; 0
     8d4:	90 e0       	ldi	r25, 0x00	; 0
     8d6:	df 91       	pop	r29
     8d8:	cf 91       	pop	r28
     8da:	08 95       	ret
     8dc:	08 95       	ret
     8de:	08 95       	ret
     8e0:	dc 01       	movw	r26, r24
     8e2:	ed 91       	ld	r30, X+
     8e4:	fc 91       	ld	r31, X
     8e6:	02 84       	ldd	r0, Z+10	; 0x0a
     8e8:	f3 85       	ldd	r31, Z+11	; 0x0b
     8ea:	e0 2d       	mov	r30, r0
     8ec:	41 e0       	ldi	r20, 0x01	; 1
     8ee:	09 95       	icall
     8f0:	81 e0       	ldi	r24, 0x01	; 1
     8f2:	90 e0       	ldi	r25, 0x00	; 0
     8f4:	08 95       	ret
     8f6:	fc 01       	movw	r30, r24
     8f8:	13 82       	std	Z+3, r1	; 0x03
     8fa:	12 82       	std	Z+2, r1	; 0x02
     8fc:	2f e3       	ldi	r18, 0x3F	; 63
     8fe:	31 e0       	ldi	r19, 0x01	; 1
     900:	31 83       	std	Z+1, r19	; 0x01
     902:	20 83       	st	Z, r18
     904:	08 95       	ret
     906:	dc 01       	movw	r26, r24
     908:	ed 91       	ld	r30, X+
     90a:	fc 91       	ld	r31, X
     90c:	00 84       	ldd	r0, Z+8	; 0x08
     90e:	f1 85       	ldd	r31, Z+9	; 0x09
     910:	e0 2d       	mov	r30, r0
     912:	6f ef       	ldi	r22, 0xFF	; 255
     914:	09 94       	ijmp
     916:	dc 01       	movw	r26, r24
     918:	ed 91       	ld	r30, X+
     91a:	fc 91       	ld	r31, X
     91c:	02 84       	ldd	r0, Z+10	; 0x0a
     91e:	f3 85       	ldd	r31, Z+11	; 0x0b
     920:	e0 2d       	mov	r30, r0
     922:	40 e0       	ldi	r20, 0x00	; 0
     924:	09 94       	ijmp
     926:	61 e0       	ldi	r22, 0x01	; 1
     928:	0e 94 8b 04 	call	0x916	;  0x916
     92c:	80 ed       	ldi	r24, 0xD0	; 208
     92e:	97 e0       	ldi	r25, 0x07	; 7
     930:	0c 94 04 13 	jmp	0x2608	;  0x2608
     934:	cf 93       	push	r28
     936:	df 93       	push	r29
     938:	cd b7       	in	r28, 0x3d	; 61
     93a:	de b7       	in	r29, 0x3e	; 62
     93c:	28 97       	sbiw	r28, 0x08	; 8
     93e:	0f b6       	in	r0, 0x3f	; 63
     940:	f8 94       	cli
     942:	de bf       	out	0x3e, r29	; 62
     944:	0f be       	out	0x3f, r0	; 63
     946:	cd bf       	out	0x3d, r28	; 61
     948:	fc 01       	movw	r30, r24
     94a:	1d 82       	std	Y+5, r1	; 0x05
     94c:	80 e4       	ldi	r24, 0x40	; 64
     94e:	8e 83       	std	Y+6, r24	; 0x06
     950:	94 e1       	ldi	r25, 0x14	; 20
     952:	9f 83       	std	Y+7, r25	; 0x07
     954:	94 e5       	ldi	r25, 0x54	; 84
     956:	98 87       	std	Y+8, r25	; 0x08
     958:	19 82       	std	Y+1, r1	; 0x01
     95a:	8a 83       	std	Y+2, r24	; 0x02
     95c:	80 e1       	ldi	r24, 0x10	; 16
     95e:	8b 83       	std	Y+3, r24	; 0x03
     960:	80 e5       	ldi	r24, 0x50	; 80
     962:	8c 83       	std	Y+4, r24	; 0x04
     964:	87 81       	ldd	r24, Z+7	; 0x07
     966:	48 17       	cp	r20, r24
     968:	10 f0       	brcs	.+4      	;  0x96e
     96a:	4f ef       	ldi	r20, 0xFF	; 255
     96c:	48 0f       	add	r20, r24
     96e:	90 85       	ldd	r25, Z+8	; 0x08
     970:	50 e0       	ldi	r21, 0x00	; 0
     972:	de 01       	movw	r26, r28
     974:	a4 0f       	add	r26, r20
     976:	b5 1f       	adc	r27, r21
     978:	90 31       	cpi	r25, 0x10	; 16
     97a:	29 f4       	brne	.+10     	;  0x986
     97c:	84 30       	cpi	r24, 0x04	; 4
     97e:	19 f4       	brne	.+6      	;  0x986
     980:	11 96       	adiw	r26, 0x01	; 1
     982:	9c 91       	ld	r25, X
     984:	02 c0       	rjmp	.+4      	;  0x98a
     986:	15 96       	adiw	r26, 0x05	; 5
     988:	9c 91       	ld	r25, X
     98a:	69 0f       	add	r22, r25
     98c:	60 68       	ori	r22, 0x80	; 128
     98e:	cf 01       	movw	r24, r30
     990:	28 96       	adiw	r28, 0x08	; 8
     992:	0f b6       	in	r0, 0x3f	; 63
     994:	f8 94       	cli
     996:	de bf       	out	0x3e, r29	; 62
     998:	0f be       	out	0x3f, r0	; 63
     99a:	cd bf       	out	0x3d, r28	; 61
     99c:	df 91       	pop	r29
     99e:	cf 91       	pop	r28
     9a0:	0c 94 8b 04 	jmp	0x916	;  0x916
     9a4:	fc 01       	movw	r30, r24
     9a6:	65 81       	ldd	r22, Z+5	; 0x05
     9a8:	26 2f       	mov	r18, r22
     9aa:	24 60       	ori	r18, 0x04	; 4
     9ac:	25 83       	std	Z+5, r18	; 0x05
     9ae:	6c 60       	ori	r22, 0x0C	; 12
     9b0:	0c 94 8b 04 	jmp	0x916	;  0x916
     9b4:	cf 93       	push	r28
     9b6:	df 93       	push	r29
     9b8:	ec 01       	movw	r28, r24
     9ba:	42 30       	cpi	r20, 0x02	; 2
     9bc:	18 f0       	brcs	.+6      	;  0x9c4
     9be:	8c 81       	ldd	r24, Y+4	; 0x04
     9c0:	88 60       	ori	r24, 0x08	; 8
     9c2:	8c 83       	std	Y+4, r24	; 0x04
     9c4:	4f 83       	std	Y+7, r20	; 0x07
     9c6:	68 87       	std	Y+8, r22	; 0x08
     9c8:	22 23       	and	r18, r18
     9ca:	29 f0       	breq	.+10     	;  0x9d6
     9cc:	41 30       	cpi	r20, 0x01	; 1
     9ce:	19 f4       	brne	.+6      	;  0x9d6
     9d0:	8c 81       	ldd	r24, Y+4	; 0x04
     9d2:	84 60       	ori	r24, 0x04	; 4
     9d4:	8c 83       	std	Y+4, r24	; 0x04
     9d6:	64 e6       	ldi	r22, 0x64	; 100
     9d8:	70 e0       	ldi	r23, 0x00	; 0
     9da:	80 e0       	ldi	r24, 0x00	; 0
     9dc:	90 e0       	ldi	r25, 0x00	; 0
     9de:	0e 94 c8 12 	call	0x2590	;  0x2590
     9e2:	6c 81       	ldd	r22, Y+4	; 0x04
     9e4:	64 fd       	sbrc	r22, 4
     9e6:	31 c0       	rjmp	.+98     	;  0xa4a
     9e8:	e8 81       	ld	r30, Y
     9ea:	f9 81       	ldd	r31, Y+1	; 0x01
     9ec:	02 84       	ldd	r0, Z+10	; 0x0a
     9ee:	f3 85       	ldd	r31, Z+11	; 0x0b
     9f0:	e0 2d       	mov	r30, r0
     9f2:	42 e0       	ldi	r20, 0x02	; 2
     9f4:	63 e0       	ldi	r22, 0x03	; 3
     9f6:	ce 01       	movw	r24, r28
     9f8:	09 95       	icall
     9fa:	84 e9       	ldi	r24, 0x94	; 148
     9fc:	91 e1       	ldi	r25, 0x11	; 17
     9fe:	0e 94 04 13 	call	0x2608	;  0x2608
     a02:	e8 81       	ld	r30, Y
     a04:	f9 81       	ldd	r31, Y+1	; 0x01
     a06:	02 84       	ldd	r0, Z+10	; 0x0a
     a08:	f3 85       	ldd	r31, Z+11	; 0x0b
     a0a:	e0 2d       	mov	r30, r0
     a0c:	42 e0       	ldi	r20, 0x02	; 2
     a0e:	63 e0       	ldi	r22, 0x03	; 3
     a10:	ce 01       	movw	r24, r28
     a12:	09 95       	icall
     a14:	86 e9       	ldi	r24, 0x96	; 150
     a16:	90 e0       	ldi	r25, 0x00	; 0
     a18:	0e 94 04 13 	call	0x2608	;  0x2608
     a1c:	e8 81       	ld	r30, Y
     a1e:	f9 81       	ldd	r31, Y+1	; 0x01
     a20:	02 84       	ldd	r0, Z+10	; 0x0a
     a22:	f3 85       	ldd	r31, Z+11	; 0x0b
     a24:	e0 2d       	mov	r30, r0
     a26:	42 e0       	ldi	r20, 0x02	; 2
     a28:	63 e0       	ldi	r22, 0x03	; 3
     a2a:	ce 01       	movw	r24, r28
     a2c:	09 95       	icall
     a2e:	86 e9       	ldi	r24, 0x96	; 150
     a30:	90 e0       	ldi	r25, 0x00	; 0
     a32:	0e 94 04 13 	call	0x2608	;  0x2608
     a36:	e8 81       	ld	r30, Y
     a38:	f9 81       	ldd	r31, Y+1	; 0x01
     a3a:	02 84       	ldd	r0, Z+10	; 0x0a
     a3c:	f3 85       	ldd	r31, Z+11	; 0x0b
     a3e:	e0 2d       	mov	r30, r0
     a40:	42 e0       	ldi	r20, 0x02	; 2
     a42:	62 e0       	ldi	r22, 0x02	; 2
     a44:	ce 01       	movw	r24, r28
     a46:	09 95       	icall
     a48:	16 c0       	rjmp	.+44     	;  0xa76
     a4a:	60 62       	ori	r22, 0x20	; 32
     a4c:	ce 01       	movw	r24, r28
     a4e:	0e 94 8b 04 	call	0x916	;  0x916
     a52:	84 e9       	ldi	r24, 0x94	; 148
     a54:	91 e1       	ldi	r25, 0x11	; 17
     a56:	0e 94 04 13 	call	0x2608	;  0x2608
     a5a:	6c 81       	ldd	r22, Y+4	; 0x04
     a5c:	60 62       	ori	r22, 0x20	; 32
     a5e:	ce 01       	movw	r24, r28
     a60:	0e 94 8b 04 	call	0x916	;  0x916
     a64:	86 e9       	ldi	r24, 0x96	; 150
     a66:	90 e0       	ldi	r25, 0x00	; 0
     a68:	0e 94 04 13 	call	0x2608	;  0x2608
     a6c:	6c 81       	ldd	r22, Y+4	; 0x04
     a6e:	60 62       	ori	r22, 0x20	; 32
     a70:	ce 01       	movw	r24, r28
     a72:	0e 94 8b 04 	call	0x916	;  0x916
     a76:	86 e9       	ldi	r24, 0x96	; 150
     a78:	90 e0       	ldi	r25, 0x00	; 0
     a7a:	0e 94 04 13 	call	0x2608	;  0x2608
     a7e:	6c 81       	ldd	r22, Y+4	; 0x04
     a80:	60 62       	ori	r22, 0x20	; 32
     a82:	ce 01       	movw	r24, r28
     a84:	0e 94 8b 04 	call	0x916	;  0x916
     a88:	8c e3       	ldi	r24, 0x3C	; 60
     a8a:	90 e0       	ldi	r25, 0x00	; 0
     a8c:	0e 94 04 13 	call	0x2608	;  0x2608
     a90:	84 e0       	ldi	r24, 0x04	; 4
     a92:	8d 83       	std	Y+5, r24	; 0x05
     a94:	ce 01       	movw	r24, r28
     a96:	0e 94 d2 04 	call	0x9a4	;  0x9a4
     a9a:	ce 01       	movw	r24, r28
     a9c:	0e 94 93 04 	call	0x926	;  0x926
     aa0:	82 e0       	ldi	r24, 0x02	; 2
     aa2:	8e 83       	std	Y+6, r24	; 0x06
     aa4:	66 e0       	ldi	r22, 0x06	; 6
     aa6:	ce 01       	movw	r24, r28
     aa8:	0e 94 8b 04 	call	0x916	;  0x916
     aac:	ce 01       	movw	r24, r28
     aae:	df 91       	pop	r29
     ab0:	cf 91       	pop	r28
     ab2:	0c 94 83 04 	jmp	0x906	;  0x906
     ab6:	21 e0       	ldi	r18, 0x01	; 1
     ab8:	01 c0       	rjmp	.+2      	;  0xabc
     aba:	22 0f       	add	r18, r18
     abc:	6a 95       	dec	r22
     abe:	ea f7       	brpl	.-6      	;  0xaba
     ac0:	dc 01       	movw	r26, r24
     ac2:	1c 96       	adiw	r26, 0x0c	; 12
     ac4:	2c 93       	st	X, r18
     ac6:	1c 97       	sbiw	r26, 0x0c	; 12
     ac8:	1a 96       	adiw	r26, 0x0a	; 10
     aca:	5c 93       	st	X, r21
     acc:	4e 93       	st	-X, r20
     ace:	19 97       	sbiw	r26, 0x09	; 9
     ad0:	ed 91       	ld	r30, X+
     ad2:	fc 91       	ld	r31, X
     ad4:	00 84       	ldd	r0, Z+8	; 0x08
     ad6:	f1 85       	ldd	r31, Z+9	; 0x09
     ad8:	e0 2d       	mov	r30, r0
     ada:	60 e0       	ldi	r22, 0x00	; 0
     adc:	09 94       	ijmp
     ade:	fc 01       	movw	r30, r24
     ae0:	84 85       	ldd	r24, Z+12	; 0x0c
     ae2:	88 23       	and	r24, r24
     ae4:	a9 f0       	breq	.+42     	;  0xb10
     ae6:	21 85       	ldd	r18, Z+9	; 0x09
     ae8:	32 85       	ldd	r19, Z+10	; 0x0a
     aea:	21 15       	cp	r18, r1
     aec:	31 05       	cpc	r19, r1
     aee:	19 f4       	brne	.+6      	;  0xaf6
     af0:	61 11       	cpse	r22, r1
     af2:	06 c0       	rjmp	.+12     	;  0xb00
     af4:	07 c0       	rjmp	.+14     	;  0xb04
     af6:	21 30       	cpi	r18, 0x01	; 1
     af8:	31 05       	cpc	r19, r1
     afa:	21 f4       	brne	.+8      	;  0xb04
     afc:	61 11       	cpse	r22, r1
     afe:	02 c0       	rjmp	.+4      	;  0xb04
     b00:	85 87       	std	Z+13, r24	; 0x0d
     b02:	01 c0       	rjmp	.+2      	;  0xb06
     b04:	15 86       	std	Z+13, r1	; 0x0d
     b06:	65 85       	ldd	r22, Z+13	; 0x0d
     b08:	cf 01       	movw	r24, r30
     b0a:	0e 96       	adiw	r24, 0x0e	; 14
     b0c:	0c 94 47 04 	jmp	0x88e	;  0x88e
     b10:	08 95       	ret
     b12:	0f 93       	push	r16
     b14:	1f 93       	push	r17
     b16:	cf 93       	push	r28
     b18:	df 93       	push	r29
     b1a:	8c 01       	movw	r16, r24
     b1c:	ec 01       	movw	r28, r24
     b1e:	2e 96       	adiw	r28, 0x0e	; 14
     b20:	fc 01       	movw	r30, r24
     b22:	63 85       	ldd	r22, Z+11	; 0x0b
     b24:	ce 01       	movw	r24, r28
     b26:	0e 94 2e 04 	call	0x85c	;  0x85c
     b2a:	01 97       	sbiw	r24, 0x01	; 1
     b2c:	69 f4       	brne	.+26     	;  0xb48
     b2e:	61 e0       	ldi	r22, 0x01	; 1
     b30:	ce 01       	movw	r24, r28
     b32:	0e 94 16 04 	call	0x82c	;  0x82c
     b36:	f8 01       	movw	r30, r16
     b38:	14 82       	std	Z+4, r1	; 0x04
     b3a:	60 e0       	ldi	r22, 0x00	; 0
     b3c:	ce 01       	movw	r24, r28
     b3e:	0e 94 47 04 	call	0x88e	;  0x88e
     b42:	81 e0       	ldi	r24, 0x01	; 1
     b44:	90 e0       	ldi	r25, 0x00	; 0
     b46:	02 c0       	rjmp	.+4      	;  0xb4c
     b48:	80 e0       	ldi	r24, 0x00	; 0
     b4a:	90 e0       	ldi	r25, 0x00	; 0
     b4c:	df 91       	pop	r29
     b4e:	cf 91       	pop	r28
     b50:	1f 91       	pop	r17
     b52:	0f 91       	pop	r16
     b54:	08 95       	ret
     b56:	8f 92       	push	r8
     b58:	af 92       	push	r10
     b5a:	cf 92       	push	r12
     b5c:	ef 92       	push	r14
     b5e:	0f 93       	push	r16
     b60:	cf 93       	push	r28
     b62:	df 93       	push	r29
     b64:	cd b7       	in	r28, 0x3d	; 61
     b66:	de b7       	in	r29, 0x3e	; 62
     b68:	fc 01       	movw	r30, r24
     b6a:	63 87       	std	Z+11, r22	; 0x0b
     b6c:	14 86       	std	Z+12, r1	; 0x0c
     b6e:	15 86       	std	Z+13, r1	; 0x0d
     b70:	12 86       	std	Z+10, r1	; 0x0a
     b72:	11 86       	std	Z+9, r1	; 0x09
     b74:	81 e0       	ldi	r24, 0x01	; 1
     b76:	98 2f       	mov	r25, r24
     b78:	01 c0       	rjmp	.+2      	;  0xb7c
     b7a:	99 0f       	add	r25, r25
     b7c:	4a 95       	dec	r20
     b7e:	ea f7       	brpl	.-6      	;  0xb7a
     b80:	92 8b       	std	Z+18, r25	; 0x12
     b82:	98 2f       	mov	r25, r24
     b84:	01 c0       	rjmp	.+2      	;  0xb88
     b86:	99 0f       	add	r25, r25
     b88:	2a 95       	dec	r18
     b8a:	ea f7       	brpl	.-6      	;  0xb86
     b8c:	93 8b       	std	Z+19, r25	; 0x13
     b8e:	98 2f       	mov	r25, r24
     b90:	01 c0       	rjmp	.+2      	;  0xb94
     b92:	99 0f       	add	r25, r25
     b94:	0a 95       	dec	r16
     b96:	ea f7       	brpl	.-6      	;  0xb92
     b98:	94 8b       	std	Z+20, r25	; 0x14
     b9a:	98 2f       	mov	r25, r24
     b9c:	01 c0       	rjmp	.+2      	;  0xba0
     b9e:	99 0f       	add	r25, r25
     ba0:	ea 94       	dec	r14
     ba2:	ea f7       	brpl	.-6      	;  0xb9e
     ba4:	95 8b       	std	Z+21, r25	; 0x15
     ba6:	98 2f       	mov	r25, r24
     ba8:	01 c0       	rjmp	.+2      	;  0xbac
     baa:	99 0f       	add	r25, r25
     bac:	ca 94       	dec	r12
     bae:	ea f7       	brpl	.-6      	;  0xbaa
     bb0:	96 8b       	std	Z+22, r25	; 0x16
     bb2:	98 2f       	mov	r25, r24
     bb4:	01 c0       	rjmp	.+2      	;  0xbb8
     bb6:	99 0f       	add	r25, r25
     bb8:	aa 94       	dec	r10
     bba:	ea f7       	brpl	.-6      	;  0xbb6
     bbc:	97 8b       	std	Z+23, r25	; 0x17
     bbe:	01 c0       	rjmp	.+2      	;  0xbc2
     bc0:	88 0f       	add	r24, r24
     bc2:	8a 94       	dec	r8
     bc4:	ea f7       	brpl	.-6      	;  0xbc0
     bc6:	80 8f       	std	Z+24, r24	; 0x18
     bc8:	df 91       	pop	r29
     bca:	cf 91       	pop	r28
     bcc:	0f 91       	pop	r16
     bce:	ef 90       	pop	r14
     bd0:	cf 90       	pop	r12
     bd2:	af 90       	pop	r10
     bd4:	8f 90       	pop	r8
     bd6:	08 95       	ret
     bd8:	4f 92       	push	r4
     bda:	5f 92       	push	r5
     bdc:	6f 92       	push	r6
     bde:	7f 92       	push	r7
     be0:	8f 92       	push	r8
     be2:	af 92       	push	r10
     be4:	cf 92       	push	r12
     be6:	ef 92       	push	r14
     be8:	0f 93       	push	r16
     bea:	1f 93       	push	r17
     bec:	cf 93       	push	r28
     bee:	df 93       	push	r29
     bf0:	00 d0       	rcall	.+0      	;  0xbf2
     bf2:	1f 92       	push	r1
     bf4:	cd b7       	in	r28, 0x3d	; 61
     bf6:	de b7       	in	r29, 0x3e	; 62
     bf8:	3c 01       	movw	r6, r24
     bfa:	1a 89       	ldd	r17, Y+18	; 0x12
     bfc:	4b 88       	ldd	r4, Y+19	; 0x13
     bfe:	5c 88       	ldd	r5, Y+20	; 0x14
     c00:	2b 83       	std	Y+3, r18	; 0x03
     c02:	4a 83       	std	Y+2, r20	; 0x02
     c04:	69 83       	std	Y+1, r22	; 0x01
     c06:	0e 94 7b 04 	call	0x8f6	;  0x8f6
     c0a:	8f e4       	ldi	r24, 0x4F	; 79
     c0c:	91 e0       	ldi	r25, 0x01	; 1
     c0e:	f3 01       	movw	r30, r6
     c10:	91 83       	std	Z+1, r25	; 0x01
     c12:	80 83       	st	Z, r24
     c14:	c3 01       	movw	r24, r6
     c16:	0e 96       	adiw	r24, 0x0e	; 14
     c18:	0e 94 0f 04 	call	0x81e	;  0x81e
     c1c:	2b 81       	ldd	r18, Y+3	; 0x03
     c1e:	4a 81       	ldd	r20, Y+2	; 0x02
     c20:	69 81       	ldd	r22, Y+1	; 0x01
     c22:	c3 01       	movw	r24, r6
     c24:	0e 94 ab 05 	call	0xb56	;  0xb56
     c28:	a2 01       	movw	r20, r4
     c2a:	61 2f       	mov	r22, r17
     c2c:	c3 01       	movw	r24, r6
     c2e:	0f 90       	pop	r0
     c30:	0f 90       	pop	r0
     c32:	0f 90       	pop	r0
     c34:	df 91       	pop	r29
     c36:	cf 91       	pop	r28
     c38:	1f 91       	pop	r17
     c3a:	0f 91       	pop	r16
     c3c:	ef 90       	pop	r14
     c3e:	cf 90       	pop	r12
     c40:	af 90       	pop	r10
     c42:	8f 90       	pop	r8
     c44:	7f 90       	pop	r7
     c46:	6f 90       	pop	r6
     c48:	5f 90       	pop	r5
     c4a:	4f 90       	pop	r4
     c4c:	0c 94 5b 05 	jmp	0xab6	;  0xab6
     c50:	ff 92       	push	r15
     c52:	0f 93       	push	r16
     c54:	1f 93       	push	r17
     c56:	cf 93       	push	r28
     c58:	df 93       	push	r29
     c5a:	ec 01       	movw	r28, r24
     c5c:	f6 2e       	mov	r15, r22
     c5e:	8c 01       	movw	r16, r24
     c60:	02 5f       	subi	r16, 0xF2	; 242
     c62:	1f 4f       	sbci	r17, 0xFF	; 255
     c64:	9a 89       	ldd	r25, Y+18	; 0x12
     c66:	69 2b       	or	r22, r25
     c68:	c8 01       	movw	r24, r16
     c6a:	0e 94 47 04 	call	0x88e	;  0x88e
     c6e:	9a 89       	ldd	r25, Y+18	; 0x12
     c70:	90 95       	com	r25
     c72:	6f 2d       	mov	r22, r15
     c74:	69 23       	and	r22, r25
     c76:	c8 01       	movw	r24, r16
     c78:	df 91       	pop	r29
     c7a:	cf 91       	pop	r28
     c7c:	1f 91       	pop	r17
     c7e:	0f 91       	pop	r16
     c80:	ff 90       	pop	r15
     c82:	0c 94 47 04 	jmp	0x88e	;  0x88e
     c86:	36 2f       	mov	r19, r22
     c88:	fc 01       	movw	r30, r24
     c8a:	75 96       	adiw	r30, 0x15	; 21
     c8c:	24 e0       	ldi	r18, 0x04	; 4
     c8e:	60 e0       	ldi	r22, 0x00	; 0
     c90:	30 ff       	sbrs	r19, 0
     c92:	02 c0       	rjmp	.+4      	;  0xc98
     c94:	50 81       	ld	r21, Z
     c96:	65 2b       	or	r22, r21
     c98:	36 95       	lsr	r19
     c9a:	21 50       	subi	r18, 0x01	; 1
     c9c:	31 96       	adiw	r30, 0x01	; 1
     c9e:	21 11       	cpse	r18, r1
     ca0:	f7 cf       	rjmp	.-18     	;  0xc90
     ca2:	41 30       	cpi	r20, 0x01	; 1
     ca4:	11 f4       	brne	.+4      	;  0xcaa
     ca6:	fc 01       	movw	r30, r24
     ca8:	44 89       	ldd	r20, Z+20	; 0x14
     caa:	fc 01       	movw	r30, r24
     cac:	25 85       	ldd	r18, Z+13	; 0x0d
     cae:	62 2b       	or	r22, r18
     cb0:	64 2b       	or	r22, r20
     cb2:	0c 94 28 06 	jmp	0xc50	;  0xc50
     cb6:	0f 93       	push	r16
     cb8:	1f 93       	push	r17
     cba:	cf 93       	push	r28
     cbc:	df 93       	push	r29
     cbe:	06 2f       	mov	r16, r22
     cc0:	0f 70       	andi	r16, 0x0F	; 15
     cc2:	42 30       	cpi	r20, 0x02	; 2
     cc4:	19 f4       	brne	.+6      	;  0xccc
     cc6:	40 e0       	ldi	r20, 0x00	; 0
     cc8:	60 2f       	mov	r22, r16
     cca:	10 c0       	rjmp	.+32     	;  0xcec
     ccc:	14 2f       	mov	r17, r20
     cce:	26 2f       	mov	r18, r22
     cd0:	ec 01       	movw	r28, r24
     cd2:	30 e0       	ldi	r19, 0x00	; 0
     cd4:	b9 01       	movw	r22, r18
     cd6:	84 e0       	ldi	r24, 0x04	; 4
     cd8:	75 95       	asr	r23
     cda:	67 95       	ror	r22
     cdc:	8a 95       	dec	r24
     cde:	e1 f7       	brne	.-8      	;  0xcd8
     ce0:	ce 01       	movw	r24, r28
     ce2:	0e 94 43 06 	call	0xc86	;  0xc86
     ce6:	41 2f       	mov	r20, r17
     ce8:	60 2f       	mov	r22, r16
     cea:	ce 01       	movw	r24, r28
     cec:	df 91       	pop	r29
     cee:	cf 91       	pop	r28
     cf0:	1f 91       	pop	r17
     cf2:	0f 91       	pop	r16
     cf4:	0c 94 43 06 	jmp	0xc86	;  0xc86
     cf8:	0f 93       	push	r16
     cfa:	1f 93       	push	r17
     cfc:	cf 93       	push	r28
     cfe:	df 93       	push	r29
     d00:	00 d0       	rcall	.+0      	;  0xd02
     d02:	1f 92       	push	r1
     d04:	cd b7       	in	r28, 0x3d	; 61
     d06:	de b7       	in	r29, 0x3e	; 62
     d08:	8c 01       	movw	r16, r24
     d0a:	2b 83       	std	Y+3, r18	; 0x03
     d0c:	4a 83       	std	Y+2, r20	; 0x02
     d0e:	69 83       	std	Y+1, r22	; 0x01
     d10:	0e 94 89 05 	call	0xb12	;  0xb12
     d14:	2b 81       	ldd	r18, Y+3	; 0x03
     d16:	4a 81       	ldd	r20, Y+2	; 0x02
     d18:	69 81       	ldd	r22, Y+1	; 0x01
     d1a:	c8 01       	movw	r24, r16
     d1c:	0f 90       	pop	r0
     d1e:	0f 90       	pop	r0
     d20:	0f 90       	pop	r0
     d22:	df 91       	pop	r29
     d24:	cf 91       	pop	r28
     d26:	1f 91       	pop	r17
     d28:	0f 91       	pop	r16
     d2a:	0c 94 da 04 	jmp	0x9b4	;  0x9b4
     d2e:	1f 92       	push	r1
     d30:	0f 92       	push	r0
     d32:	0f b6       	in	r0, 0x3f	; 63
     d34:	0f 92       	push	r0
     d36:	11 24       	eor	r1, r1
     d38:	0f 93       	push	r16
     d3a:	1f 93       	push	r17
     d3c:	2f 93       	push	r18
     d3e:	3f 93       	push	r19
     d40:	4f 93       	push	r20
     d42:	5f 93       	push	r21
     d44:	6f 93       	push	r22
     d46:	7f 93       	push	r23
     d48:	8f 93       	push	r24
     d4a:	9f 93       	push	r25
     d4c:	af 93       	push	r26
     d4e:	bf 93       	push	r27
     d50:	cf 93       	push	r28
     d52:	df 93       	push	r29
     d54:	ef 93       	push	r30
     d56:	ff 93       	push	r31
     d58:	80 91 06 01 	lds	r24, 0x0106
     d5c:	8f 5f       	subi	r24, 0xFF	; 255
     d5e:	80 93 06 01 	sts	0x0106, r24
     d62:	88 23       	and	r24, r24
     d64:	29 f0       	breq	.+10     	;  0xd70
     d66:	ec eb       	ldi	r30, 0xBC	; 188
     d68:	f1 e0       	ldi	r31, 0x01	; 1
     d6a:	20 e0       	ldi	r18, 0x00	; 0
     d6c:	30 e0       	ldi	r19, 0x00	; 0
     d6e:	59 c0       	rjmp	.+178    	;  0xe22
     d70:	0c eb       	ldi	r16, 0xBC	; 188
     d72:	11 e0       	ldi	r17, 0x01	; 1
     d74:	e2 ec       	ldi	r30, 0xC2	; 194
     d76:	f1 e0       	ldi	r31, 0x01	; 1
     d78:	c4 ec       	ldi	r28, 0xC4	; 196
     d7a:	d1 e0       	ldi	r29, 0x01	; 1
     d7c:	ce 01       	movw	r24, r28
     d7e:	01 97       	sbiw	r24, 0x01	; 1
     d80:	dc 01       	movw	r26, r24
     d82:	4c 91       	ld	r20, X
     d84:	cf 01       	movw	r24, r30
     d86:	01 97       	sbiw	r24, 0x01	; 1
     d88:	dc 01       	movw	r26, r24
     d8a:	41 11       	cpse	r20, r1
     d8c:	03 c0       	rjmp	.+6      	;  0xd94
     d8e:	28 81       	ld	r18, Y
     d90:	22 23       	and	r18, r18
     d92:	f9 f0       	breq	.+62     	;  0xdd2
     d94:	2c 91       	ld	r18, X
     d96:	30 e0       	ldi	r19, 0x00	; 0
     d98:	80 81       	ld	r24, Z
     d9a:	90 e0       	ldi	r25, 0x00	; 0
     d9c:	b9 01       	movw	r22, r18
     d9e:	68 1b       	sub	r22, r24
     da0:	79 0b       	sbc	r23, r25
     da2:	16 16       	cp	r1, r22
     da4:	17 06       	cpc	r1, r23
     da6:	44 f4       	brge	.+16     	;  0xdb8
     da8:	44 23       	and	r20, r20
     daa:	89 f0       	breq	.+34     	;  0xdce
     dac:	84 0f       	add	r24, r20
     dae:	91 1d       	adc	r25, r1
     db0:	82 17       	cp	r24, r18
     db2:	93 07       	cpc	r25, r19
     db4:	64 f4       	brge	.+24     	;  0xdce
     db6:	0a c0       	rjmp	.+20     	;  0xdcc
     db8:	67 2b       	or	r22, r23
     dba:	49 f0       	breq	.+18     	;  0xdce
     dbc:	48 81       	ld	r20, Y
     dbe:	44 23       	and	r20, r20
     dc0:	31 f0       	breq	.+12     	;  0xdce
     dc2:	84 1b       	sub	r24, r20
     dc4:	91 09       	sbc	r25, r1
     dc6:	28 17       	cp	r18, r24
     dc8:	39 07       	cpc	r19, r25
     dca:	0c f4       	brge	.+2      	;  0xdce
     dcc:	9c 01       	movw	r18, r24
     dce:	20 83       	st	Z, r18
     dd0:	02 c0       	rjmp	.+4      	;  0xdd6
     dd2:	8c 91       	ld	r24, X
     dd4:	80 83       	st	Z, r24
     dd6:	80 81       	ld	r24, Z
     dd8:	88 23       	and	r24, r24
     dda:	c9 f0       	breq	.+50     	;  0xe0e
     ddc:	cf 01       	movw	r24, r30
     dde:	05 97       	sbiw	r24, 0x05	; 5
     de0:	dc 01       	movw	r26, r24
     de2:	8c 91       	ld	r24, X
     de4:	af 01       	movw	r20, r30
     de6:	42 50       	subi	r20, 0x02	; 2
     de8:	51 09       	sbc	r21, r1
     dea:	d8 01       	movw	r26, r16
     dec:	12 96       	adiw	r26, 0x02	; 2
     dee:	2d 91       	ld	r18, X+
     df0:	3c 91       	ld	r19, X
     df2:	13 97       	sbiw	r26, 0x03	; 3
     df4:	d9 01       	movw	r26, r18
     df6:	9c 91       	ld	r25, X
     df8:	da 01       	movw	r26, r20
     dfa:	81 11       	cpse	r24, r1
     dfc:	03 c0       	rjmp	.+6      	;  0xe04
     dfe:	8c 91       	ld	r24, X
     e00:	89 2b       	or	r24, r25
     e02:	03 c0       	rjmp	.+6      	;  0xe0a
     e04:	8c 91       	ld	r24, X
     e06:	80 95       	com	r24
     e08:	89 23       	and	r24, r25
     e0a:	d9 01       	movw	r26, r18
     e0c:	8c 93       	st	X, r24
     e0e:	07 5f       	subi	r16, 0xF7	; 247
     e10:	1f 4f       	sbci	r17, 0xFF	; 255
     e12:	39 96       	adiw	r30, 0x09	; 9
     e14:	29 96       	adiw	r28, 0x09	; 9
     e16:	b2 e0       	ldi	r27, 0x02	; 2
     e18:	00 37       	cpi	r16, 0x70	; 112
     e1a:	1b 07       	cpc	r17, r27
     e1c:	09 f0       	breq	.+2      	;  0xe20
     e1e:	ae cf       	rjmp	.-164    	;  0xd7c
     e20:	a2 cf       	rjmp	.-188    	;  0xd66
     e22:	80 81       	ld	r24, Z
     e24:	87 fd       	sbrc	r24, 7
     e26:	15 c0       	rjmp	.+42     	;  0xe52
     e28:	e9 01       	movw	r28, r18
     e2a:	c4 54       	subi	r28, 0x44	; 68
     e2c:	de 4f       	sbci	r29, 0xFE	; 254
     e2e:	80 91 06 01 	lds	r24, 0x0106
     e32:	9e 81       	ldd	r25, Y+6	; 0x06
     e34:	98 13       	cpse	r25, r24
     e36:	0d c0       	rjmp	.+26     	;  0xe52
     e38:	99 81       	ldd	r25, Y+1	; 0x01
     e3a:	a2 81       	ldd	r26, Z+2	; 0x02
     e3c:	b3 81       	ldd	r27, Z+3	; 0x03
     e3e:	8c 81       	ldd	r24, Y+4	; 0x04
     e40:	91 11       	cpse	r25, r1
     e42:	04 c0       	rjmp	.+8      	;  0xe4c
     e44:	9c 91       	ld	r25, X
     e46:	80 95       	com	r24
     e48:	89 23       	and	r24, r25
     e4a:	02 c0       	rjmp	.+4      	;  0xe50
     e4c:	9c 91       	ld	r25, X
     e4e:	89 2b       	or	r24, r25
     e50:	8c 93       	st	X, r24
     e52:	39 96       	adiw	r30, 0x09	; 9
     e54:	27 5f       	subi	r18, 0xF7	; 247
     e56:	3f 4f       	sbci	r19, 0xFF	; 255
     e58:	24 3b       	cpi	r18, 0xB4	; 180
     e5a:	31 05       	cpc	r19, r1
     e5c:	11 f7       	brne	.-60     	;  0xe22
     e5e:	ff 91       	pop	r31
     e60:	ef 91       	pop	r30
     e62:	df 91       	pop	r29
     e64:	cf 91       	pop	r28
     e66:	bf 91       	pop	r27
     e68:	af 91       	pop	r26
     e6a:	9f 91       	pop	r25
     e6c:	8f 91       	pop	r24
     e6e:	7f 91       	pop	r23
     e70:	6f 91       	pop	r22
     e72:	5f 91       	pop	r21
     e74:	4f 91       	pop	r20
     e76:	3f 91       	pop	r19
     e78:	2f 91       	pop	r18
     e7a:	1f 91       	pop	r17
     e7c:	0f 91       	pop	r16
     e7e:	0f 90       	pop	r0
     e80:	0f be       	out	0x3f, r0	; 63
     e82:	0f 90       	pop	r0
     e84:	1f 90       	pop	r1
     e86:	18 95       	reti
     e88:	10 92 c0 00 	sts	0x00C0, r1
     e8c:	94 e0       	ldi	r25, 0x04	; 4
     e8e:	90 93 c1 00 	sts	0x00C1, r25
     e92:	10 92 c2 00 	sts	0x00C2, r1
     e96:	10 92 c3 00 	sts	0x00C3, r1
     e9a:	10 92 c4 00 	sts	0x00C4, r1
     e9e:	10 92 d1 00 	sts	0x00D1, r1
     ea2:	92 e8       	ldi	r25, 0x82	; 130
     ea4:	90 93 d1 00 	sts	0x00D1, r25
     ea8:	90 e4       	ldi	r25, 0x40	; 64
     eaa:	90 93 72 00 	sts	0x0072, r25
     eae:	ec eb       	ldi	r30, 0xBC	; 188
     eb0:	f1 e0       	ldi	r31, 0x01	; 1
     eb2:	20 e0       	ldi	r18, 0x00	; 0
     eb4:	30 e0       	ldi	r19, 0x00	; 0
     eb6:	9f ef       	ldi	r25, 0xFF	; 255
     eb8:	90 83       	st	Z, r25
     eba:	d9 01       	movw	r26, r18
     ebc:	a4 54       	subi	r26, 0x44	; 68
     ebe:	be 4f       	sbci	r27, 0xFE	; 254
     ec0:	11 96       	adiw	r26, 0x01	; 1
     ec2:	1c 92       	st	X, r1
     ec4:	11 97       	sbiw	r26, 0x01	; 1
     ec6:	13 82       	std	Z+3, r1	; 0x03
     ec8:	12 82       	std	Z+2, r1	; 0x02
     eca:	17 96       	adiw	r26, 0x07	; 7
     ecc:	1c 92       	st	X, r1
     ece:	17 97       	sbiw	r26, 0x07	; 7
     ed0:	18 96       	adiw	r26, 0x08	; 8
     ed2:	1c 92       	st	X, r1
     ed4:	39 96       	adiw	r30, 0x09	; 9
     ed6:	27 5f       	subi	r18, 0xF7	; 247
     ed8:	3f 4f       	sbci	r19, 0xFF	; 255
     eda:	24 3b       	cpi	r18, 0xB4	; 180
     edc:	31 05       	cpc	r19, r1
     ede:	61 f7       	brne	.-40     	;  0xeb8
     ee0:	80 93 70 02 	sts	0x0270, r24
     ee4:	08 95       	ret
     ee6:	cf 93       	push	r28
     ee8:	44 23       	and	r20, r20
     eea:	39 f0       	breq	.+14     	;  0xefa
     eec:	10 92 bf 00 	sts	0x00BF, r1
     ef0:	10 92 be 00 	sts	0x00BE, r1
     ef4:	9f ef       	ldi	r25, 0xFF	; 255
     ef6:	90 93 06 01 	sts	0x0106, r25
     efa:	ec eb       	ldi	r30, 0xBC	; 188
     efc:	f1 e0       	ldi	r31, 0x01	; 1
     efe:	90 e0       	ldi	r25, 0x00	; 0
     f00:	af ef       	ldi	r26, 0xFF	; 255
     f02:	20 81       	ld	r18, Z
     f04:	87 ff       	sbrs	r24, 7
     f06:	03 c0       	rjmp	.+6      	;  0xf0e
     f08:	27 ff       	sbrs	r18, 7
     f0a:	06 c0       	rjmp	.+12     	;  0xf18
     f0c:	4b c0       	rjmp	.+150    	;  0xfa4
     f0e:	28 17       	cp	r18, r24
     f10:	19 f0       	breq	.+6      	;  0xf18
     f12:	af 3f       	cpi	r26, 0xFF	; 255
     f14:	41 f4       	brne	.+16     	;  0xf26
     f16:	04 c0       	rjmp	.+8      	;  0xf20
     f18:	65 83       	std	Z+5, r22	; 0x05
     f1a:	87 fd       	sbrc	r24, 7
     f1c:	fa cf       	rjmp	.-12     	;  0xf12
     f1e:	46 c0       	rjmp	.+140    	;  0xfac
     f20:	20 81       	ld	r18, Z
     f22:	27 fd       	sbrc	r18, 7
     f24:	a9 2f       	mov	r26, r25
     f26:	9f 5f       	subi	r25, 0xFF	; 255
     f28:	39 96       	adiw	r30, 0x09	; 9
     f2a:	94 31       	cpi	r25, 0x14	; 20
     f2c:	51 f7       	brne	.-44     	;  0xf02
     f2e:	87 fd       	sbrc	r24, 7
     f30:	3d c0       	rjmp	.+122    	;  0xfac
     f32:	af 3f       	cpi	r26, 0xFF	; 255
     f34:	09 f4       	brne	.+2      	;  0xf38
     f36:	3a c0       	rjmp	.+116    	;  0xfac
     f38:	c8 2f       	mov	r28, r24
     f3a:	89 e0       	ldi	r24, 0x09	; 9
     f3c:	a8 02       	muls	r26, r24
     f3e:	d0 01       	movw	r26, r0
     f40:	11 24       	eor	r1, r1
     f42:	a4 54       	subi	r26, 0x44	; 68
     f44:	be 4f       	sbci	r27, 0xFE	; 254
     f46:	cc 93       	st	X, r28
     f48:	20 91 70 02 	lds	r18, 0x0270
     f4c:	11 96       	adiw	r26, 0x01	; 1
     f4e:	2c 93       	st	X, r18
     f50:	11 97       	sbiw	r26, 0x01	; 1
     f52:	8c 2f       	mov	r24, r28
     f54:	99 27       	eor	r25, r25
     f56:	87 fd       	sbrc	r24, 7
     f58:	90 95       	com	r25
     f5a:	fc 01       	movw	r30, r24
     f5c:	e4 53       	subi	r30, 0x34	; 52
     f5e:	fe 4f       	sbci	r31, 0xFE	; 254
     f60:	e4 91       	lpm	r30, Z
     f62:	f0 e0       	ldi	r31, 0x00	; 0
     f64:	ee 0f       	add	r30, r30
     f66:	ff 1f       	adc	r31, r31
     f68:	e7 50       	subi	r30, 0x07	; 7
     f6a:	fe 4f       	sbci	r31, 0xFE	; 254
     f6c:	45 91       	lpm	r20, Z+
     f6e:	54 91       	lpm	r21, Z
     f70:	13 96       	adiw	r26, 0x03	; 3
     f72:	5c 93       	st	X, r21
     f74:	4e 93       	st	-X, r20
     f76:	12 97       	sbiw	r26, 0x02	; 2
     f78:	fc 01       	movw	r30, r24
     f7a:	e3 55       	subi	r30, 0x53	; 83
     f7c:	fe 4f       	sbci	r31, 0xFE	; 254
     f7e:	e4 91       	lpm	r30, Z
     f80:	14 96       	adiw	r26, 0x04	; 4
     f82:	ec 93       	st	X, r30
     f84:	14 97       	sbiw	r26, 0x04	; 4
     f86:	15 96       	adiw	r26, 0x05	; 5
     f88:	6c 93       	st	X, r22
     f8a:	21 11       	cpse	r18, r1
     f8c:	02 c0       	rjmp	.+4      	;  0xf92
     f8e:	60 e0       	ldi	r22, 0x00	; 0
     f90:	01 c0       	rjmp	.+2      	;  0xf94
     f92:	61 e0       	ldi	r22, 0x01	; 1
     f94:	8c 2f       	mov	r24, r28
     f96:	0e 94 de 13 	call	0x27bc	;  0x27bc
     f9a:	61 e0       	ldi	r22, 0x01	; 1
     f9c:	8c 2f       	mov	r24, r28
     f9e:	cf 91       	pop	r28
     fa0:	0c 94 a2 13 	jmp	0x2744	;  0x2744
     fa4:	af 3f       	cpi	r26, 0xFF	; 255
     fa6:	09 f0       	breq	.+2      	;  0xfaa
     fa8:	be cf       	rjmp	.-132    	;  0xf26
     faa:	bc cf       	rjmp	.-136    	;  0xf24
     fac:	cf 91       	pop	r28
     fae:	08 95       	ret
     fb0:	28 2f       	mov	r18, r24
     fb2:	3f ef       	ldi	r19, 0xFF	; 255
     fb4:	63 9f       	mul	r22, r19
     fb6:	c0 01       	movw	r24, r0
     fb8:	11 24       	eor	r1, r1
     fba:	64 e6       	ldi	r22, 0x64	; 100
     fbc:	70 e0       	ldi	r23, 0x00	; 0
     fbe:	0e 94 ea 24 	call	0x49d4	;  0x49d4
     fc2:	82 2f       	mov	r24, r18
     fc4:	0c 94 73 07 	jmp	0xee6	;  0xee6
     fc8:	2f 92       	push	r2
     fca:	3f 92       	push	r3
     fcc:	4f 92       	push	r4
     fce:	5f 92       	push	r5
     fd0:	6f 92       	push	r6
     fd2:	7f 92       	push	r7
     fd4:	8f 92       	push	r8
     fd6:	9f 92       	push	r9
     fd8:	af 92       	push	r10
     fda:	bf 92       	push	r11
     fdc:	cf 92       	push	r12
     fde:	df 92       	push	r13
     fe0:	ef 92       	push	r14
     fe2:	ff 92       	push	r15
     fe4:	0f 93       	push	r16
     fe6:	1f 93       	push	r17
     fe8:	cf 93       	push	r28
     fea:	df 93       	push	r29
     fec:	cd b7       	in	r28, 0x3d	; 61
     fee:	de b7       	in	r29, 0x3e	; 62
     ff0:	27 97       	sbiw	r28, 0x07	; 7
     ff2:	0f b6       	in	r0, 0x3f	; 63
     ff4:	f8 94       	cli
     ff6:	de bf       	out	0x3e, r29	; 62
     ff8:	0f be       	out	0x3f, r0	; 63
     ffa:	cd bf       	out	0x3d, r28	; 61
     ffc:	89 83       	std	Y+1, r24	; 0x01
     ffe:	1b 01       	movw	r2, r22
    1000:	5d 83       	std	Y+5, r21	; 0x05
    1002:	4c 83       	std	Y+4, r20	; 0x04
    1004:	8c eb       	ldi	r24, 0xBC	; 188
    1006:	91 e0       	ldi	r25, 0x01	; 1
    1008:	9f 83       	std	Y+7, r25	; 0x07
    100a:	8e 83       	std	Y+6, r24	; 0x06
    100c:	00 e0       	ldi	r16, 0x00	; 0
    100e:	10 e0       	ldi	r17, 0x00	; 0
    1010:	4a 01       	movw	r8, r20
    1012:	a1 2c       	mov	r10, r1
    1014:	b1 2c       	mov	r11, r1
    1016:	80 ef       	ldi	r24, 0xF0	; 240
    1018:	c8 2e       	mov	r12, r24
    101a:	8f e0       	ldi	r24, 0x0F	; 15
    101c:	d8 2e       	mov	r13, r24
    101e:	e1 2c       	mov	r14, r1
    1020:	f1 2c       	mov	r15, r1
    1022:	2b 01       	movw	r4, r22
    1024:	61 2c       	mov	r6, r1
    1026:	71 2c       	mov	r7, r1
    1028:	99 81       	ldd	r25, Y+1	; 0x01
    102a:	ee 81       	ldd	r30, Y+6	; 0x06
    102c:	ff 81       	ldd	r31, Y+7	; 0x07
    102e:	80 81       	ld	r24, Z
    1030:	97 ff       	sbrs	r25, 7
    1032:	0d c0       	rjmp	.+26     	;  0x104e
    1034:	87 ff       	sbrs	r24, 7
    1036:	0e c0       	rjmp	.+28     	;  0x1054
    1038:	8e 81       	ldd	r24, Y+6	; 0x06
    103a:	9f 81       	ldd	r25, Y+7	; 0x07
    103c:	09 96       	adiw	r24, 0x09	; 9
    103e:	9f 83       	std	Y+7, r25	; 0x07
    1040:	8e 83       	std	Y+6, r24	; 0x06
    1042:	07 5f       	subi	r16, 0xF7	; 247
    1044:	1f 4f       	sbci	r17, 0xFF	; 255
    1046:	04 3b       	cpi	r16, 0xB4	; 180
    1048:	11 05       	cpc	r17, r1
    104a:	71 f7       	brne	.-36     	;  0x1028
    104c:	27 c0       	rjmp	.+78     	;  0x109c
    104e:	f9 81       	ldd	r31, Y+1	; 0x01
    1050:	8f 13       	cpse	r24, r31
    1052:	f2 cf       	rjmp	.-28     	;  0x1038
    1054:	21 14       	cp	r2, r1
    1056:	31 04       	cpc	r3, r1
    1058:	39 f0       	breq	.+14     	;  0x1068
    105a:	c7 01       	movw	r24, r14
    105c:	b6 01       	movw	r22, r12
    105e:	a3 01       	movw	r20, r6
    1060:	92 01       	movw	r18, r4
    1062:	0e 94 12 25 	call	0x4a24	;  0x4a24
    1066:	01 c0       	rjmp	.+2      	;  0x106a
    1068:	20 e0       	ldi	r18, 0x00	; 0
    106a:	c8 01       	movw	r24, r16
    106c:	84 54       	subi	r24, 0x44	; 68
    106e:	9e 4f       	sbci	r25, 0xFE	; 254
    1070:	9b 83       	std	Y+3, r25	; 0x03
    1072:	8a 83       	std	Y+2, r24	; 0x02
    1074:	fc 01       	movw	r30, r24
    1076:	27 83       	std	Z+7, r18	; 0x07
    1078:	8c 81       	ldd	r24, Y+4	; 0x04
    107a:	9d 81       	ldd	r25, Y+5	; 0x05
    107c:	89 2b       	or	r24, r25
    107e:	39 f0       	breq	.+14     	;  0x108e
    1080:	c7 01       	movw	r24, r14
    1082:	b6 01       	movw	r22, r12
    1084:	a5 01       	movw	r20, r10
    1086:	94 01       	movw	r18, r8
    1088:	0e 94 12 25 	call	0x4a24	;  0x4a24
    108c:	01 c0       	rjmp	.+2      	;  0x1090
    108e:	20 e0       	ldi	r18, 0x00	; 0
    1090:	ea 81       	ldd	r30, Y+2	; 0x02
    1092:	fb 81       	ldd	r31, Y+3	; 0x03
    1094:	20 87       	std	Z+8, r18	; 0x08
    1096:	f9 81       	ldd	r31, Y+1	; 0x01
    1098:	f7 fd       	sbrc	r31, 7
    109a:	ce cf       	rjmp	.-100    	;  0x1038
    109c:	27 96       	adiw	r28, 0x07	; 7
    109e:	0f b6       	in	r0, 0x3f	; 63
    10a0:	f8 94       	cli
    10a2:	de bf       	out	0x3e, r29	; 62
    10a4:	0f be       	out	0x3f, r0	; 63
    10a6:	cd bf       	out	0x3d, r28	; 61
    10a8:	df 91       	pop	r29
    10aa:	cf 91       	pop	r28
    10ac:	1f 91       	pop	r17
    10ae:	0f 91       	pop	r16
    10b0:	ff 90       	pop	r15
    10b2:	ef 90       	pop	r14
    10b4:	df 90       	pop	r13
    10b6:	cf 90       	pop	r12
    10b8:	bf 90       	pop	r11
    10ba:	af 90       	pop	r10
    10bc:	9f 90       	pop	r9
    10be:	8f 90       	pop	r8
    10c0:	7f 90       	pop	r7
    10c2:	6f 90       	pop	r6
    10c4:	5f 90       	pop	r5
    10c6:	4f 90       	pop	r4
    10c8:	3f 90       	pop	r3
    10ca:	2f 90       	pop	r2
    10cc:	08 95       	ret
    10ce:	08 95       	ret
    10d0:	1f 92       	push	r1
    10d2:	0f 92       	push	r0
    10d4:	0f b6       	in	r0, 0x3f	; 63
    10d6:	0f 92       	push	r0
    10d8:	11 24       	eor	r1, r1
    10da:	2f 93       	push	r18
    10dc:	3f 93       	push	r19
    10de:	4f 93       	push	r20
    10e0:	5f 93       	push	r21
    10e2:	6f 93       	push	r22
    10e4:	7f 93       	push	r23
    10e6:	8f 93       	push	r24
    10e8:	9f 93       	push	r25
    10ea:	af 93       	push	r26
    10ec:	bf 93       	push	r27
    10ee:	ef 93       	push	r30
    10f0:	ff 93       	push	r31
    10f2:	e0 91 07 01 	lds	r30, 0x0107
    10f6:	f0 91 08 01 	lds	r31, 0x0108
    10fa:	09 95       	icall
    10fc:	ff 91       	pop	r31
    10fe:	ef 91       	pop	r30
    1100:	bf 91       	pop	r27
    1102:	af 91       	pop	r26
    1104:	9f 91       	pop	r25
    1106:	8f 91       	pop	r24
    1108:	7f 91       	pop	r23
    110a:	6f 91       	pop	r22
    110c:	5f 91       	pop	r21
    110e:	4f 91       	pop	r20
    1110:	3f 91       	pop	r19
    1112:	2f 91       	pop	r18
    1114:	0f 90       	pop	r0
    1116:	0f be       	out	0x3f, r0	; 63
    1118:	0f 90       	pop	r0
    111a:	1f 90       	pop	r1
    111c:	18 95       	reti
    111e:	cf 93       	push	r28
    1120:	df 93       	push	r29
    1122:	1f 92       	push	r1
    1124:	cd b7       	in	r28, 0x3d	; 61
    1126:	de b7       	in	r29, 0x3e	; 62
    1128:	69 83       	std	Y+1, r22	; 0x01
    112a:	dc 01       	movw	r26, r24
    112c:	ed 91       	ld	r30, X+
    112e:	fc 91       	ld	r31, X
    1130:	02 80       	ldd	r0, Z+2	; 0x02
    1132:	f3 81       	ldd	r31, Z+3	; 0x03
    1134:	e0 2d       	mov	r30, r0
    1136:	41 e0       	ldi	r20, 0x01	; 1
    1138:	50 e0       	ldi	r21, 0x00	; 0
    113a:	be 01       	movw	r22, r28
    113c:	6f 5f       	subi	r22, 0xFF	; 255
    113e:	7f 4f       	sbci	r23, 0xFF	; 255
    1140:	09 95       	icall
    1142:	0f 90       	pop	r0
    1144:	df 91       	pop	r29
    1146:	cf 91       	pop	r28
    1148:	08 95       	ret
    114a:	cf 93       	push	r28
    114c:	df 93       	push	r29
    114e:	ec 01       	movw	r28, r24
    1150:	8c 85       	ldd	r24, Y+12	; 0x0c
    1152:	9d 85       	ldd	r25, Y+13	; 0x0d
    1154:	97 ff       	sbrs	r25, 7
    1156:	05 c0       	rjmp	.+10     	;  0x1162
    1158:	82 e0       	ldi	r24, 0x02	; 2
    115a:	0e 94 6b 0d 	call	0x1ad6	;  0x1ad6
    115e:	9d 87       	std	Y+13, r25	; 0x0d
    1160:	8c 87       	std	Y+12, r24	; 0x0c
    1162:	8c 85       	ldd	r24, Y+12	; 0x0c
    1164:	9d 85       	ldd	r25, Y+13	; 0x0d
    1166:	df 91       	pop	r29
    1168:	cf 91       	pop	r28
    116a:	08 95       	ret
    116c:	83 e0       	ldi	r24, 0x03	; 3
    116e:	0c 94 8e 0e 	jmp	0x1d1c	;  0x1d1c
    1172:	fc 01       	movw	r30, r24
    1174:	84 85       	ldd	r24, Z+12	; 0x0c
    1176:	95 85       	ldd	r25, Z+13	; 0x0d
    1178:	97 fd       	sbrc	r25, 7
    117a:	06 c0       	rjmp	.+12     	;  0x1188
    117c:	82 e0       	ldi	r24, 0x02	; 2
    117e:	0e 94 15 0d 	call	0x1a2a	;  0x1a2a
    1182:	90 e0       	ldi	r25, 0x00	; 0
    1184:	01 96       	adiw	r24, 0x01	; 1
    1186:	08 95       	ret
    1188:	82 e0       	ldi	r24, 0x02	; 2
    118a:	0e 94 15 0d 	call	0x1a2a	;  0x1a2a
    118e:	90 e0       	ldi	r25, 0x00	; 0
    1190:	08 95       	ret
    1192:	fc 01       	movw	r30, r24
    1194:	84 85       	ldd	r24, Z+12	; 0x0c
    1196:	95 85       	ldd	r25, Z+13	; 0x0d
    1198:	97 fd       	sbrc	r25, 7
    119a:	05 c0       	rjmp	.+10     	;  0x11a6
    119c:	2f ef       	ldi	r18, 0xFF	; 255
    119e:	3f ef       	ldi	r19, 0xFF	; 255
    11a0:	35 87       	std	Z+13, r19	; 0x0d
    11a2:	24 87       	std	Z+12, r18	; 0x0c
    11a4:	08 95       	ret
    11a6:	82 e0       	ldi	r24, 0x02	; 2
    11a8:	0c 94 6b 0d 	jmp	0x1ad6	;  0x1ad6
    11ac:	cf 93       	push	r28
    11ae:	df 93       	push	r29
    11b0:	ec 01       	movw	r28, r24
    11b2:	80 91 14 01 	lds	r24, 0x0114
    11b6:	88 23       	and	r24, r24
    11b8:	31 f0       	breq	.+12     	;  0x11c6
    11ba:	83 e0       	ldi	r24, 0x03	; 3
    11bc:	0e 94 9c 0d 	call	0x1b38	;  0x1b38
    11c0:	18 16       	cp	r1, r24
    11c2:	19 06       	cpc	r1, r25
    11c4:	34 f0       	brlt	.+12     	;  0x11d2
    11c6:	81 e0       	ldi	r24, 0x01	; 1
    11c8:	90 e0       	ldi	r25, 0x00	; 0
    11ca:	9b 83       	std	Y+3, r25	; 0x03
    11cc:	8a 83       	std	Y+2, r24	; 0x02
    11ce:	80 e0       	ldi	r24, 0x00	; 0
    11d0:	90 e0       	ldi	r25, 0x00	; 0
    11d2:	df 91       	pop	r29
    11d4:	cf 91       	pop	r28
    11d6:	08 95       	ret
    11d8:	fc 01       	movw	r30, r24
    11da:	90 81       	ld	r25, Z
    11dc:	9e 5f       	subi	r25, 0xFE	; 254
    11de:	90 83       	st	Z, r25
    11e0:	42 e4       	ldi	r20, 0x42	; 66
    11e2:	50 e0       	ldi	r21, 0x00	; 0
    11e4:	6f e0       	ldi	r22, 0x0F	; 15
    11e6:	71 e0       	ldi	r23, 0x01	; 1
    11e8:	80 e8       	ldi	r24, 0x80	; 128
    11ea:	0c 94 34 0e 	jmp	0x1c68	;  0x1c68
    11ee:	fc 01       	movw	r30, r24
    11f0:	81 81       	ldd	r24, Z+1	; 0x01
    11f2:	90 81       	ld	r25, Z
    11f4:	91 3a       	cpi	r25, 0xA1	; 161
    11f6:	59 f4       	brne	.+22     	;  0x120e
    11f8:	81 32       	cpi	r24, 0x21	; 33
    11fa:	09 f0       	breq	.+2      	;  0x11fe
    11fc:	48 c0       	rjmp	.+144    	;  0x128e
    11fe:	47 e0       	ldi	r20, 0x07	; 7
    1200:	50 e0       	ldi	r21, 0x00	; 0
    1202:	6d e0       	ldi	r22, 0x0D	; 13
    1204:	71 e0       	ldi	r23, 0x01	; 1
    1206:	80 e0       	ldi	r24, 0x00	; 0
    1208:	0e 94 34 0e 	call	0x1c68	;  0x1c68
    120c:	73 c0       	rjmp	.+230    	;  0x12f4
    120e:	91 32       	cpi	r25, 0x21	; 33
    1210:	f1 f5       	brne	.+124    	;  0x128e
    1212:	83 32       	cpi	r24, 0x23	; 35
    1214:	91 f4       	brne	.+36     	;  0x123a
    1216:	93 81       	ldd	r25, Z+3	; 0x03
    1218:	89 2f       	mov	r24, r25
    121a:	90 e0       	ldi	r25, 0x00	; 0
    121c:	98 2f       	mov	r25, r24
    121e:	88 27       	eor	r24, r24
    1220:	22 81       	ldd	r18, Z+2	; 0x02
    1222:	82 2b       	or	r24, r18
    1224:	a0 e0       	ldi	r26, 0x00	; 0
    1226:	b0 e0       	ldi	r27, 0x00	; 0
    1228:	80 93 09 01 	sts	0x0109, r24
    122c:	90 93 0a 01 	sts	0x010A, r25
    1230:	a0 93 0b 01 	sts	0x010B, r26
    1234:	b0 93 0c 01 	sts	0x010C, r27
    1238:	5d c0       	rjmp	.+186    	;  0x12f4
    123a:	80 32       	cpi	r24, 0x20	; 32
    123c:	39 f4       	brne	.+14     	;  0x124c
    123e:	67 e0       	ldi	r22, 0x07	; 7
    1240:	70 e0       	ldi	r23, 0x00	; 0
    1242:	8d e0       	ldi	r24, 0x0D	; 13
    1244:	91 e0       	ldi	r25, 0x01	; 1
    1246:	0e 94 5b 0e 	call	0x1cb6	;  0x1cb6
    124a:	06 c0       	rjmp	.+12     	;  0x1258
    124c:	82 32       	cpi	r24, 0x22	; 34
    124e:	09 f0       	breq	.+2      	;  0x1252
    1250:	51 c0       	rjmp	.+162    	;  0x12f4
    1252:	82 81       	ldd	r24, Z+2	; 0x02
    1254:	80 93 14 01 	sts	0x0114, r24
    1258:	80 91 c4 02 	lds	r24, 0x02C4
    125c:	88 23       	and	r24, r24
    125e:	19 f0       	breq	.+6      	;  0x1266
    1260:	ee ef       	ldi	r30, 0xFE	; 254
    1262:	fa e0       	ldi	r31, 0x0A	; 10
    1264:	02 c0       	rjmp	.+4      	;  0x126a
    1266:	e0 e0       	ldi	r30, 0x00	; 0
    1268:	f8 e0       	ldi	r31, 0x08	; 8
    126a:	80 91 0d 01 	lds	r24, 0x010D
    126e:	90 91 0e 01 	lds	r25, 0x010E
    1272:	a0 91 0f 01 	lds	r26, 0x010F
    1276:	b0 91 10 01 	lds	r27, 0x0110
    127a:	80 3b       	cpi	r24, 0xB0	; 176
    127c:	94 40       	sbci	r25, 0x04	; 4
    127e:	a1 05       	cpc	r26, r1
    1280:	b1 05       	cpc	r27, r1
    1282:	39 f4       	brne	.+14     	;  0x1292
    1284:	80 91 14 01 	lds	r24, 0x0114
    1288:	80 ff       	sbrs	r24, 0
    128a:	1c c0       	rjmp	.+56     	;  0x12c4
    128c:	02 c0       	rjmp	.+4      	;  0x1292
    128e:	80 e0       	ldi	r24, 0x00	; 0
    1290:	08 95       	ret
    1292:	88 e1       	ldi	r24, 0x18	; 24
    1294:	0f b6       	in	r0, 0x3f	; 63
    1296:	f8 94       	cli
    1298:	80 93 60 00 	sts	0x0060, r24
    129c:	10 92 60 00 	sts	0x0060, r1
    12a0:	0f be       	out	0x3f, r0	; 63
    12a2:	a8 95       	wdr
    12a4:	ee 3f       	cpi	r30, 0xFE	; 254
    12a6:	8a e0       	ldi	r24, 0x0A	; 10
    12a8:	f8 07       	cpc	r31, r24
    12aa:	39 f0       	breq	.+14     	;  0x12ba
    12ac:	80 91 fe 0a 	lds	r24, 0x0AFE
    12b0:	90 91 ff 0a 	lds	r25, 0x0AFF
    12b4:	91 83       	std	Z+1, r25	; 0x01
    12b6:	80 83       	st	Z, r24
    12b8:	1d c0       	rjmp	.+58     	;  0x12f4
    12ba:	10 92 ff 0a 	sts	0x0AFF, r1
    12be:	10 92 fe 0a 	sts	0x0AFE, r1
    12c2:	18 c0       	rjmp	.+48     	;  0x12f4
    12c4:	ee 3f       	cpi	r30, 0xFE	; 254
    12c6:	2a e0       	ldi	r18, 0x0A	; 10
    12c8:	f2 07       	cpc	r31, r18
    12ca:	31 f0       	breq	.+12     	;  0x12d8
    12cc:	80 81       	ld	r24, Z
    12ce:	91 81       	ldd	r25, Z+1	; 0x01
    12d0:	90 93 ff 0a 	sts	0x0AFF, r25
    12d4:	80 93 fe 0a 	sts	0x0AFE, r24
    12d8:	87 e7       	ldi	r24, 0x77	; 119
    12da:	97 e7       	ldi	r25, 0x77	; 119
    12dc:	91 83       	std	Z+1, r25	; 0x01
    12de:	80 83       	st	Z, r24
    12e0:	9b e0       	ldi	r25, 0x0B	; 11
    12e2:	88 e1       	ldi	r24, 0x18	; 24
    12e4:	0f b6       	in	r0, 0x3f	; 63
    12e6:	f8 94       	cli
    12e8:	a8 95       	wdr
    12ea:	80 93 60 00 	sts	0x0060, r24
    12ee:	0f be       	out	0x3f, r0	; 63
    12f0:	90 93 60 00 	sts	0x0060, r25
    12f4:	81 e0       	ldi	r24, 0x01	; 1
    12f6:	08 95       	ret
    12f8:	e4 e7       	ldi	r30, 0x74	; 116
    12fa:	f2 e0       	ldi	r31, 0x02	; 2
    12fc:	13 82       	std	Z+3, r1	; 0x03
    12fe:	12 82       	std	Z+2, r1	; 0x02
    1300:	88 ee       	ldi	r24, 0xE8	; 232
    1302:	93 e0       	ldi	r25, 0x03	; 3
    1304:	a0 e0       	ldi	r26, 0x00	; 0
    1306:	b0 e0       	ldi	r27, 0x00	; 0
    1308:	84 83       	std	Z+4, r24	; 0x04
    130a:	95 83       	std	Z+5, r25	; 0x05
    130c:	a6 83       	std	Z+6, r26	; 0x06
    130e:	b7 83       	std	Z+7, r27	; 0x07
    1310:	8f e5       	ldi	r24, 0x5F	; 95
    1312:	91 e0       	ldi	r25, 0x01	; 1
    1314:	91 83       	std	Z+1, r25	; 0x01
    1316:	80 83       	st	Z, r24
    1318:	8f ef       	ldi	r24, 0xFF	; 255
    131a:	9f ef       	ldi	r25, 0xFF	; 255
    131c:	95 87       	std	Z+13, r25	; 0x0d
    131e:	84 87       	std	Z+12, r24	; 0x0c
    1320:	08 95       	ret
    1322:	fc 01       	movw	r30, r24
    1324:	91 8d       	ldd	r25, Z+25	; 0x19
    1326:	22 8d       	ldd	r18, Z+26	; 0x1a
    1328:	89 2f       	mov	r24, r25
    132a:	90 e0       	ldi	r25, 0x00	; 0
    132c:	80 5c       	subi	r24, 0xC0	; 192
    132e:	9f 4f       	sbci	r25, 0xFF	; 255
    1330:	82 1b       	sub	r24, r18
    1332:	91 09       	sbc	r25, r1
    1334:	8f 73       	andi	r24, 0x3F	; 63
    1336:	99 27       	eor	r25, r25
    1338:	08 95       	ret
    133a:	fc 01       	movw	r30, r24
    133c:	91 8d       	ldd	r25, Z+25	; 0x19
    133e:	82 8d       	ldd	r24, Z+26	; 0x1a
    1340:	98 17       	cp	r25, r24
    1342:	31 f0       	breq	.+12     	;  0x1350
    1344:	82 8d       	ldd	r24, Z+26	; 0x1a
    1346:	e8 0f       	add	r30, r24
    1348:	f1 1d       	adc	r31, r1
    134a:	85 8d       	ldd	r24, Z+29	; 0x1d
    134c:	90 e0       	ldi	r25, 0x00	; 0
    134e:	08 95       	ret
    1350:	8f ef       	ldi	r24, 0xFF	; 255
    1352:	9f ef       	ldi	r25, 0xFF	; 255
    1354:	08 95       	ret
    1356:	fc 01       	movw	r30, r24
    1358:	91 8d       	ldd	r25, Z+25	; 0x19
    135a:	82 8d       	ldd	r24, Z+26	; 0x1a
    135c:	98 17       	cp	r25, r24
    135e:	61 f0       	breq	.+24     	;  0x1378
    1360:	82 8d       	ldd	r24, Z+26	; 0x1a
    1362:	df 01       	movw	r26, r30
    1364:	a8 0f       	add	r26, r24
    1366:	b1 1d       	adc	r27, r1
    1368:	5d 96       	adiw	r26, 0x1d	; 29
    136a:	8c 91       	ld	r24, X
    136c:	92 8d       	ldd	r25, Z+26	; 0x1a
    136e:	9f 5f       	subi	r25, 0xFF	; 255
    1370:	9f 73       	andi	r25, 0x3F	; 63
    1372:	92 8f       	std	Z+26, r25	; 0x1a
    1374:	90 e0       	ldi	r25, 0x00	; 0
    1376:	08 95       	ret
    1378:	8f ef       	ldi	r24, 0xFF	; 255
    137a:	9f ef       	ldi	r25, 0xFF	; 255
    137c:	08 95       	ret
    137e:	8f ea       	ldi	r24, 0xAF	; 175
    1380:	9a e0       	ldi	r25, 0x0A	; 10
    1382:	89 2b       	or	r24, r25
    1384:	49 f0       	breq	.+18     	;  0x1398
    1386:	80 e0       	ldi	r24, 0x00	; 0
    1388:	90 e0       	ldi	r25, 0x00	; 0
    138a:	89 2b       	or	r24, r25
    138c:	29 f0       	breq	.+10     	;  0x1398
    138e:	0e 94 af 0a 	call	0x155e	;  0x155e
    1392:	81 11       	cpse	r24, r1
    1394:	0c 94 00 00 	jmp	0	;  0x0
    1398:	08 95       	ret
    139a:	fc 01       	movw	r30, r24
    139c:	84 8d       	ldd	r24, Z+28	; 0x1c
    139e:	df 01       	movw	r26, r30
    13a0:	a8 0f       	add	r26, r24
    13a2:	b1 1d       	adc	r27, r1
    13a4:	a3 5a       	subi	r26, 0xA3	; 163
    13a6:	bf 4f       	sbci	r27, 0xFF	; 255
    13a8:	2c 91       	ld	r18, X
    13aa:	84 8d       	ldd	r24, Z+28	; 0x1c
    13ac:	90 e0       	ldi	r25, 0x00	; 0
    13ae:	01 96       	adiw	r24, 0x01	; 1
    13b0:	8f 73       	andi	r24, 0x3F	; 63
    13b2:	99 27       	eor	r25, r25
    13b4:	84 8f       	std	Z+28, r24	; 0x1c
    13b6:	a6 89       	ldd	r26, Z+22	; 0x16
    13b8:	b7 89       	ldd	r27, Z+23	; 0x17
    13ba:	2c 93       	st	X, r18
    13bc:	a0 89       	ldd	r26, Z+16	; 0x10
    13be:	b1 89       	ldd	r27, Z+17	; 0x11
    13c0:	8c 91       	ld	r24, X
    13c2:	80 64       	ori	r24, 0x40	; 64
    13c4:	8c 93       	st	X, r24
    13c6:	93 8d       	ldd	r25, Z+27	; 0x1b
    13c8:	84 8d       	ldd	r24, Z+28	; 0x1c
    13ca:	98 13       	cpse	r25, r24
    13cc:	06 c0       	rjmp	.+12     	;  0x13da
    13ce:	02 88       	ldd	r0, Z+18	; 0x12
    13d0:	f3 89       	ldd	r31, Z+19	; 0x13
    13d2:	e0 2d       	mov	r30, r0
    13d4:	80 81       	ld	r24, Z
    13d6:	8f 7d       	andi	r24, 0xDF	; 223
    13d8:	80 83       	st	Z, r24
    13da:	08 95       	ret
    13dc:	cf 93       	push	r28
    13de:	df 93       	push	r29
    13e0:	ec 01       	movw	r28, r24
    13e2:	88 8d       	ldd	r24, Y+24	; 0x18
    13e4:	88 23       	and	r24, r24
    13e6:	c9 f0       	breq	.+50     	;  0x141a
    13e8:	ea 89       	ldd	r30, Y+18	; 0x12
    13ea:	fb 89       	ldd	r31, Y+19	; 0x13
    13ec:	80 81       	ld	r24, Z
    13ee:	85 fd       	sbrc	r24, 5
    13f0:	05 c0       	rjmp	.+10     	;  0x13fc
    13f2:	a8 89       	ldd	r26, Y+16	; 0x10
    13f4:	b9 89       	ldd	r27, Y+17	; 0x11
    13f6:	8c 91       	ld	r24, X
    13f8:	86 fd       	sbrc	r24, 6
    13fa:	0f c0       	rjmp	.+30     	;  0x141a
    13fc:	0f b6       	in	r0, 0x3f	; 63
    13fe:	07 fc       	sbrc	r0, 7
    1400:	f5 cf       	rjmp	.-22     	;  0x13ec
    1402:	80 81       	ld	r24, Z
    1404:	85 ff       	sbrs	r24, 5
    1406:	f2 cf       	rjmp	.-28     	;  0x13ec
    1408:	a8 89       	ldd	r26, Y+16	; 0x10
    140a:	b9 89       	ldd	r27, Y+17	; 0x11
    140c:	8c 91       	ld	r24, X
    140e:	85 ff       	sbrs	r24, 5
    1410:	ed cf       	rjmp	.-38     	;  0x13ec
    1412:	ce 01       	movw	r24, r28
    1414:	0e 94 cd 09 	call	0x139a	;  0x139a
    1418:	e7 cf       	rjmp	.-50     	;  0x13e8
    141a:	df 91       	pop	r29
    141c:	cf 91       	pop	r28
    141e:	08 95       	ret
    1420:	ef 92       	push	r14
    1422:	ff 92       	push	r15
    1424:	0f 93       	push	r16
    1426:	1f 93       	push	r17
    1428:	cf 93       	push	r28
    142a:	df 93       	push	r29
    142c:	ec 01       	movw	r28, r24
    142e:	81 e0       	ldi	r24, 0x01	; 1
    1430:	88 8f       	std	Y+24, r24	; 0x18
    1432:	9b 8d       	ldd	r25, Y+27	; 0x1b
    1434:	8c 8d       	ldd	r24, Y+28	; 0x1c
    1436:	98 13       	cpse	r25, r24
    1438:	05 c0       	rjmp	.+10     	;  0x1444
    143a:	e8 89       	ldd	r30, Y+16	; 0x10
    143c:	f9 89       	ldd	r31, Y+17	; 0x11
    143e:	80 81       	ld	r24, Z
    1440:	85 fd       	sbrc	r24, 5
    1442:	24 c0       	rjmp	.+72     	;  0x148c
    1444:	f6 2e       	mov	r15, r22
    1446:	0b 8d       	ldd	r16, Y+27	; 0x1b
    1448:	10 e0       	ldi	r17, 0x00	; 0
    144a:	0f 5f       	subi	r16, 0xFF	; 255
    144c:	1f 4f       	sbci	r17, 0xFF	; 255
    144e:	0f 73       	andi	r16, 0x3F	; 63
    1450:	11 27       	eor	r17, r17
    1452:	e0 2e       	mov	r14, r16
    1454:	8c 8d       	ldd	r24, Y+28	; 0x1c
    1456:	e8 12       	cpse	r14, r24
    1458:	0c c0       	rjmp	.+24     	;  0x1472
    145a:	0f b6       	in	r0, 0x3f	; 63
    145c:	07 fc       	sbrc	r0, 7
    145e:	fa cf       	rjmp	.-12     	;  0x1454
    1460:	e8 89       	ldd	r30, Y+16	; 0x10
    1462:	f9 89       	ldd	r31, Y+17	; 0x11
    1464:	80 81       	ld	r24, Z
    1466:	85 ff       	sbrs	r24, 5
    1468:	f5 cf       	rjmp	.-22     	;  0x1454
    146a:	ce 01       	movw	r24, r28
    146c:	0e 94 cd 09 	call	0x139a	;  0x139a
    1470:	f1 cf       	rjmp	.-30     	;  0x1454
    1472:	8b 8d       	ldd	r24, Y+27	; 0x1b
    1474:	fe 01       	movw	r30, r28
    1476:	e8 0f       	add	r30, r24
    1478:	f1 1d       	adc	r31, r1
    147a:	e3 5a       	subi	r30, 0xA3	; 163
    147c:	ff 4f       	sbci	r31, 0xFF	; 255
    147e:	f0 82       	st	Z, r15
    1480:	0b 8f       	std	Y+27, r16	; 0x1b
    1482:	ea 89       	ldd	r30, Y+18	; 0x12
    1484:	fb 89       	ldd	r31, Y+19	; 0x13
    1486:	80 81       	ld	r24, Z
    1488:	80 62       	ori	r24, 0x20	; 32
    148a:	07 c0       	rjmp	.+14     	;  0x149a
    148c:	ee 89       	ldd	r30, Y+22	; 0x16
    148e:	ff 89       	ldd	r31, Y+23	; 0x17
    1490:	60 83       	st	Z, r22
    1492:	e8 89       	ldd	r30, Y+16	; 0x10
    1494:	f9 89       	ldd	r31, Y+17	; 0x11
    1496:	80 81       	ld	r24, Z
    1498:	80 64       	ori	r24, 0x40	; 64
    149a:	80 83       	st	Z, r24
    149c:	81 e0       	ldi	r24, 0x01	; 1
    149e:	90 e0       	ldi	r25, 0x00	; 0
    14a0:	df 91       	pop	r29
    14a2:	cf 91       	pop	r28
    14a4:	1f 91       	pop	r17
    14a6:	0f 91       	pop	r16
    14a8:	ff 90       	pop	r15
    14aa:	ef 90       	pop	r14
    14ac:	08 95       	ret
    14ae:	1f 92       	push	r1
    14b0:	0f 92       	push	r0
    14b2:	0f b6       	in	r0, 0x3f	; 63
    14b4:	0f 92       	push	r0
    14b6:	11 24       	eor	r1, r1
    14b8:	2f 93       	push	r18
    14ba:	8f 93       	push	r24
    14bc:	9f 93       	push	r25
    14be:	ef 93       	push	r30
    14c0:	ff 93       	push	r31
    14c2:	e0 91 d5 02 	lds	r30, 0x02D5
    14c6:	f0 91 d6 02 	lds	r31, 0x02D6
    14ca:	80 81       	ld	r24, Z
    14cc:	e0 91 db 02 	lds	r30, 0x02DB
    14d0:	f0 91 dc 02 	lds	r31, 0x02DC
    14d4:	82 fd       	sbrc	r24, 2
    14d6:	12 c0       	rjmp	.+36     	;  0x14fc
    14d8:	90 81       	ld	r25, Z
    14da:	80 91 de 02 	lds	r24, 0x02DE
    14de:	8f 5f       	subi	r24, 0xFF	; 255
    14e0:	8f 73       	andi	r24, 0x3F	; 63
    14e2:	20 91 df 02 	lds	r18, 0x02DF
    14e6:	82 17       	cp	r24, r18
    14e8:	51 f0       	breq	.+20     	;  0x14fe
    14ea:	e0 91 de 02 	lds	r30, 0x02DE
    14ee:	f0 e0       	ldi	r31, 0x00	; 0
    14f0:	eb 53       	subi	r30, 0x3B	; 59
    14f2:	fd 4f       	sbci	r31, 0xFD	; 253
    14f4:	95 8f       	std	Z+29, r25	; 0x1d
    14f6:	80 93 de 02 	sts	0x02DE, r24
    14fa:	01 c0       	rjmp	.+2      	;  0x14fe
    14fc:	80 81       	ld	r24, Z
    14fe:	ff 91       	pop	r31
    1500:	ef 91       	pop	r30
    1502:	9f 91       	pop	r25
    1504:	8f 91       	pop	r24
    1506:	2f 91       	pop	r18
    1508:	0f 90       	pop	r0
    150a:	0f be       	out	0x3f, r0	; 63
    150c:	0f 90       	pop	r0
    150e:	1f 90       	pop	r1
    1510:	18 95       	reti
    1512:	1f 92       	push	r1
    1514:	0f 92       	push	r0
    1516:	0f b6       	in	r0, 0x3f	; 63
    1518:	0f 92       	push	r0
    151a:	11 24       	eor	r1, r1
    151c:	2f 93       	push	r18
    151e:	3f 93       	push	r19
    1520:	4f 93       	push	r20
    1522:	5f 93       	push	r21
    1524:	6f 93       	push	r22
    1526:	7f 93       	push	r23
    1528:	8f 93       	push	r24
    152a:	9f 93       	push	r25
    152c:	af 93       	push	r26
    152e:	bf 93       	push	r27
    1530:	ef 93       	push	r30
    1532:	ff 93       	push	r31
    1534:	85 ec       	ldi	r24, 0xC5	; 197
    1536:	92 e0       	ldi	r25, 0x02	; 2
    1538:	0e 94 cd 09 	call	0x139a	;  0x139a
    153c:	ff 91       	pop	r31
    153e:	ef 91       	pop	r30
    1540:	bf 91       	pop	r27
    1542:	af 91       	pop	r26
    1544:	9f 91       	pop	r25
    1546:	8f 91       	pop	r24
    1548:	7f 91       	pop	r23
    154a:	6f 91       	pop	r22
    154c:	5f 91       	pop	r21
    154e:	4f 91       	pop	r20
    1550:	3f 91       	pop	r19
    1552:	2f 91       	pop	r18
    1554:	0f 90       	pop	r0
    1556:	0f be       	out	0x3f, r0	; 63
    1558:	0f 90       	pop	r0
    155a:	1f 90       	pop	r1
    155c:	18 95       	reti
    155e:	85 ec       	ldi	r24, 0xC5	; 197
    1560:	92 e0       	ldi	r25, 0x02	; 2
    1562:	0e 94 91 09 	call	0x1322	;  0x1322
    1566:	21 e0       	ldi	r18, 0x01	; 1
    1568:	89 2b       	or	r24, r25
    156a:	09 f4       	brne	.+2      	;  0x156e
    156c:	20 e0       	ldi	r18, 0x00	; 0
    156e:	82 2f       	mov	r24, r18
    1570:	08 95       	ret
    1572:	e5 ec       	ldi	r30, 0xC5	; 197
    1574:	f2 e0       	ldi	r31, 0x02	; 2
    1576:	13 82       	std	Z+3, r1	; 0x03
    1578:	12 82       	std	Z+2, r1	; 0x02
    157a:	88 ee       	ldi	r24, 0xE8	; 232
    157c:	93 e0       	ldi	r25, 0x03	; 3
    157e:	a0 e0       	ldi	r26, 0x00	; 0
    1580:	b0 e0       	ldi	r27, 0x00	; 0
    1582:	84 83       	std	Z+4, r24	; 0x04
    1584:	95 83       	std	Z+5, r25	; 0x05
    1586:	a6 83       	std	Z+6, r26	; 0x06
    1588:	b7 83       	std	Z+7, r27	; 0x07
    158a:	8f e6       	ldi	r24, 0x6F	; 111
    158c:	91 e0       	ldi	r25, 0x01	; 1
    158e:	91 83       	std	Z+1, r25	; 0x01
    1590:	80 83       	st	Z, r24
    1592:	8d ec       	ldi	r24, 0xCD	; 205
    1594:	90 e0       	ldi	r25, 0x00	; 0
    1596:	95 87       	std	Z+13, r25	; 0x0d
    1598:	84 87       	std	Z+12, r24	; 0x0c
    159a:	8c ec       	ldi	r24, 0xCC	; 204
    159c:	90 e0       	ldi	r25, 0x00	; 0
    159e:	97 87       	std	Z+15, r25	; 0x0f
    15a0:	86 87       	std	Z+14, r24	; 0x0e
    15a2:	88 ec       	ldi	r24, 0xC8	; 200
    15a4:	90 e0       	ldi	r25, 0x00	; 0
    15a6:	91 8b       	std	Z+17, r25	; 0x11
    15a8:	80 8b       	std	Z+16, r24	; 0x10
    15aa:	89 ec       	ldi	r24, 0xC9	; 201
    15ac:	90 e0       	ldi	r25, 0x00	; 0
    15ae:	93 8b       	std	Z+19, r25	; 0x13
    15b0:	82 8b       	std	Z+18, r24	; 0x12
    15b2:	8a ec       	ldi	r24, 0xCA	; 202
    15b4:	90 e0       	ldi	r25, 0x00	; 0
    15b6:	95 8b       	std	Z+21, r25	; 0x15
    15b8:	84 8b       	std	Z+20, r24	; 0x14
    15ba:	8e ec       	ldi	r24, 0xCE	; 206
    15bc:	90 e0       	ldi	r25, 0x00	; 0
    15be:	97 8b       	std	Z+23, r25	; 0x17
    15c0:	86 8b       	std	Z+22, r24	; 0x16
    15c2:	11 8e       	std	Z+25, r1	; 0x19
    15c4:	12 8e       	std	Z+26, r1	; 0x1a
    15c6:	13 8e       	std	Z+27, r1	; 0x1b
    15c8:	14 8e       	std	Z+28, r1	; 0x1c
    15ca:	08 95       	ret
    15cc:	8f 92       	push	r8
    15ce:	9f 92       	push	r9
    15d0:	af 92       	push	r10
    15d2:	bf 92       	push	r11
    15d4:	cf 92       	push	r12
    15d6:	df 92       	push	r13
    15d8:	ef 92       	push	r14
    15da:	ff 92       	push	r15
    15dc:	0f 93       	push	r16
    15de:	1f 93       	push	r17
    15e0:	cf 93       	push	r28
    15e2:	df 93       	push	r29
    15e4:	7c 01       	movw	r14, r24
    15e6:	8b 01       	movw	r16, r22
    15e8:	6c 01       	movw	r12, r24
    15ea:	82 e0       	ldi	r24, 0x02	; 2
    15ec:	c8 0e       	add	r12, r24
    15ee:	d1 1c       	adc	r13, r1
    15f0:	47 01       	movw	r8, r14
    15f2:	e5 e0       	ldi	r30, 0x05	; 5
    15f4:	8e 0e       	add	r8, r30
    15f6:	91 1c       	adc	r9, r1
    15f8:	c0 e0       	ldi	r28, 0x00	; 0
    15fa:	d0 e0       	ldi	r29, 0x00	; 0
    15fc:	f6 01       	movw	r30, r12
    15fe:	61 91       	ld	r22, Z+
    1600:	6f 01       	movw	r12, r30
    1602:	4a e0       	ldi	r20, 0x0A	; 10
    1604:	50 e0       	ldi	r21, 0x00	; 0
    1606:	c8 01       	movw	r24, r16
    1608:	0e 94 6b 0c 	call	0x18d6	;  0x18d6
    160c:	5c 01       	movw	r10, r24
    160e:	6e e2       	ldi	r22, 0x2E	; 46
    1610:	c8 01       	movw	r24, r16
    1612:	0e 94 bc 0b 	call	0x1778	;  0x1778
    1616:	8a 0d       	add	r24, r10
    1618:	9b 1d       	adc	r25, r11
    161a:	c8 0f       	add	r28, r24
    161c:	d9 1f       	adc	r29, r25
    161e:	c8 14       	cp	r12, r8
    1620:	d9 04       	cpc	r13, r9
    1622:	61 f7       	brne	.-40     	;  0x15fc
    1624:	4a e0       	ldi	r20, 0x0A	; 10
    1626:	50 e0       	ldi	r21, 0x00	; 0
    1628:	f7 01       	movw	r30, r14
    162a:	65 81       	ldd	r22, Z+5	; 0x05
    162c:	c8 01       	movw	r24, r16
    162e:	0e 94 6b 0c 	call	0x18d6	;  0x18d6
    1632:	8c 0f       	add	r24, r28
    1634:	9d 1f       	adc	r25, r29
    1636:	df 91       	pop	r29
    1638:	cf 91       	pop	r28
    163a:	1f 91       	pop	r17
    163c:	0f 91       	pop	r16
    163e:	ff 90       	pop	r15
    1640:	ef 90       	pop	r14
    1642:	df 90       	pop	r13
    1644:	cf 90       	pop	r12
    1646:	bf 90       	pop	r11
    1648:	af 90       	pop	r10
    164a:	9f 90       	pop	r9
    164c:	8f 90       	pop	r8
    164e:	08 95       	ret
    1650:	e2 e6       	ldi	r30, 0x62	; 98
    1652:	f3 e0       	ldi	r31, 0x03	; 3
    1654:	8f e7       	ldi	r24, 0x7F	; 127
    1656:	91 e0       	ldi	r25, 0x01	; 1
    1658:	91 83       	std	Z+1, r25	; 0x01
    165a:	80 83       	st	Z, r24
    165c:	12 82       	std	Z+2, r1	; 0x02
    165e:	13 82       	std	Z+3, r1	; 0x03
    1660:	14 82       	std	Z+4, r1	; 0x04
    1662:	15 82       	std	Z+5, r1	; 0x05
    1664:	08 95       	ret
    1666:	08 95       	ret
    1668:	0e 94 0f 13 	call	0x261e	;  0x261e
    166c:	0e 94 33 0b 	call	0x1666	;  0x1666
    1670:	84 e7       	ldi	r24, 0x74	; 116
    1672:	93 e0       	ldi	r25, 0x03	; 3
    1674:	0e 94 1b 0f 	call	0x1e36	;  0x1e36
    1678:	0e 94 06 21 	call	0x420c	;  0x420c
    167c:	cf eb       	ldi	r28, 0xBF	; 191
    167e:	d9 e0       	ldi	r29, 0x09	; 9
    1680:	0e 94 2a 22 	call	0x4454	;  0x4454
    1684:	20 97       	sbiw	r28, 0x00	; 0
    1686:	e1 f3       	breq	.-8      	;  0x1680
    1688:	0e 94 bf 09 	call	0x137e	;  0x137e
    168c:	f9 cf       	rjmp	.-14     	;  0x1680
    168e:	08 95       	ret
    1690:	0e 94 59 27 	call	0x4eb2	;  0x4eb2
    1694:	cf 92       	push	r12
    1696:	df 92       	push	r13
    1698:	ef 92       	push	r14
    169a:	ff 92       	push	r15
    169c:	0f 93       	push	r16
    169e:	1f 93       	push	r17
    16a0:	cf 93       	push	r28
    16a2:	df 93       	push	r29
    16a4:	6c 01       	movw	r12, r24
    16a6:	7a 01       	movw	r14, r20
    16a8:	8b 01       	movw	r16, r22
    16aa:	c0 e0       	ldi	r28, 0x00	; 0
    16ac:	d0 e0       	ldi	r29, 0x00	; 0
    16ae:	ce 15       	cp	r28, r14
    16b0:	df 05       	cpc	r29, r15
    16b2:	89 f0       	breq	.+34     	;  0x16d6
    16b4:	d8 01       	movw	r26, r16
    16b6:	6d 91       	ld	r22, X+
    16b8:	8d 01       	movw	r16, r26
    16ba:	d6 01       	movw	r26, r12
    16bc:	ed 91       	ld	r30, X+
    16be:	fc 91       	ld	r31, X
    16c0:	01 90       	ld	r0, Z+
    16c2:	f0 81       	ld	r31, Z
    16c4:	e0 2d       	mov	r30, r0
    16c6:	c6 01       	movw	r24, r12
    16c8:	09 95       	icall
    16ca:	89 2b       	or	r24, r25
    16cc:	11 f4       	brne	.+4      	;  0x16d2
    16ce:	7e 01       	movw	r14, r28
    16d0:	02 c0       	rjmp	.+4      	;  0x16d6
    16d2:	21 96       	adiw	r28, 0x01	; 1
    16d4:	ec cf       	rjmp	.-40     	;  0x16ae
    16d6:	c7 01       	movw	r24, r14
    16d8:	df 91       	pop	r29
    16da:	cf 91       	pop	r28
    16dc:	1f 91       	pop	r17
    16de:	0f 91       	pop	r16
    16e0:	ff 90       	pop	r15
    16e2:	ef 90       	pop	r14
    16e4:	df 90       	pop	r13
    16e6:	cf 90       	pop	r12
    16e8:	08 95       	ret
    16ea:	61 15       	cp	r22, r1
    16ec:	71 05       	cpc	r23, r1
    16ee:	79 f0       	breq	.+30     	;  0x170e
    16f0:	fb 01       	movw	r30, r22
    16f2:	01 90       	ld	r0, Z+
    16f4:	00 20       	and	r0, r0
    16f6:	e9 f7       	brne	.-6      	;  0x16f2
    16f8:	31 97       	sbiw	r30, 0x01	; 1
    16fa:	af 01       	movw	r20, r30
    16fc:	46 1b       	sub	r20, r22
    16fe:	57 0b       	sbc	r21, r23
    1700:	dc 01       	movw	r26, r24
    1702:	ed 91       	ld	r30, X+
    1704:	fc 91       	ld	r31, X
    1706:	02 80       	ldd	r0, Z+2	; 0x02
    1708:	f3 81       	ldd	r31, Z+3	; 0x03
    170a:	e0 2d       	mov	r30, r0
    170c:	09 94       	ijmp
    170e:	80 e0       	ldi	r24, 0x00	; 0
    1710:	90 e0       	ldi	r25, 0x00	; 0
    1712:	08 95       	ret
    1714:	ef 92       	push	r14
    1716:	ff 92       	push	r15
    1718:	0f 93       	push	r16
    171a:	1f 93       	push	r17
    171c:	cf 93       	push	r28
    171e:	df 93       	push	r29
    1720:	8c 01       	movw	r16, r24
    1722:	7b 01       	movw	r14, r22
    1724:	c0 e0       	ldi	r28, 0x00	; 0
    1726:	d0 e0       	ldi	r29, 0x00	; 0
    1728:	f7 01       	movw	r30, r14
    172a:	ec 0f       	add	r30, r28
    172c:	fd 1f       	adc	r31, r29
    172e:	64 91       	lpm	r22, Z
    1730:	66 23       	and	r22, r22
    1732:	61 f0       	breq	.+24     	;  0x174c
    1734:	d8 01       	movw	r26, r16
    1736:	ed 91       	ld	r30, X+
    1738:	fc 91       	ld	r31, X
    173a:	01 90       	ld	r0, Z+
    173c:	f0 81       	ld	r31, Z
    173e:	e0 2d       	mov	r30, r0
    1740:	c8 01       	movw	r24, r16
    1742:	09 95       	icall
    1744:	89 2b       	or	r24, r25
    1746:	11 f0       	breq	.+4      	;  0x174c
    1748:	21 96       	adiw	r28, 0x01	; 1
    174a:	ee cf       	rjmp	.-36     	;  0x1728
    174c:	ce 01       	movw	r24, r28
    174e:	df 91       	pop	r29
    1750:	cf 91       	pop	r28
    1752:	1f 91       	pop	r17
    1754:	0f 91       	pop	r16
    1756:	ff 90       	pop	r15
    1758:	ef 90       	pop	r14
    175a:	08 95       	ret
    175c:	db 01       	movw	r26, r22
    175e:	14 96       	adiw	r26, 0x04	; 4
    1760:	4d 91       	ld	r20, X+
    1762:	5c 91       	ld	r21, X
    1764:	15 97       	sbiw	r26, 0x05	; 5
    1766:	6d 91       	ld	r22, X+
    1768:	7c 91       	ld	r23, X
    176a:	dc 01       	movw	r26, r24
    176c:	ed 91       	ld	r30, X+
    176e:	fc 91       	ld	r31, X
    1770:	02 80       	ldd	r0, Z+2	; 0x02
    1772:	f3 81       	ldd	r31, Z+3	; 0x03
    1774:	e0 2d       	mov	r30, r0
    1776:	09 94       	ijmp
    1778:	dc 01       	movw	r26, r24
    177a:	ed 91       	ld	r30, X+
    177c:	fc 91       	ld	r31, X
    177e:	01 90       	ld	r0, Z+
    1780:	f0 81       	ld	r31, Z
    1782:	e0 2d       	mov	r30, r0
    1784:	09 94       	ijmp
    1786:	4f 92       	push	r4
    1788:	5f 92       	push	r5
    178a:	6f 92       	push	r6
    178c:	7f 92       	push	r7
    178e:	ef 92       	push	r14
    1790:	ff 92       	push	r15
    1792:	0f 93       	push	r16
    1794:	1f 93       	push	r17
    1796:	cf 93       	push	r28
    1798:	df 93       	push	r29
    179a:	cd b7       	in	r28, 0x3d	; 61
    179c:	de b7       	in	r29, 0x3e	; 62
    179e:	a1 97       	sbiw	r28, 0x21	; 33
    17a0:	0f b6       	in	r0, 0x3f	; 63
    17a2:	f8 94       	cli
    17a4:	de bf       	out	0x3e, r29	; 62
    17a6:	0f be       	out	0x3f, r0	; 63
    17a8:	cd bf       	out	0x3d, r28	; 61
    17aa:	7c 01       	movw	r14, r24
    17ac:	fa 01       	movw	r30, r20
    17ae:	cb 01       	movw	r24, r22
    17b0:	19 a2       	std	Y+33, r1	; 0x21
    17b2:	22 30       	cpi	r18, 0x02	; 2
    17b4:	08 f4       	brcc	.+2      	;  0x17b8
    17b6:	2a e0       	ldi	r18, 0x0A	; 10
    17b8:	8e 01       	movw	r16, r28
    17ba:	0f 5d       	subi	r16, 0xDF	; 223
    17bc:	1f 4f       	sbci	r17, 0xFF	; 255
    17be:	42 2e       	mov	r4, r18
    17c0:	51 2c       	mov	r5, r1
    17c2:	61 2c       	mov	r6, r1
    17c4:	71 2c       	mov	r7, r1
    17c6:	bf 01       	movw	r22, r30
    17c8:	a3 01       	movw	r20, r6
    17ca:	92 01       	movw	r18, r4
    17cc:	0e 94 12 25 	call	0x4a24	;  0x4a24
    17d0:	f9 01       	movw	r30, r18
    17d2:	ca 01       	movw	r24, r20
    17d4:	01 50       	subi	r16, 0x01	; 1
    17d6:	11 09       	sbc	r17, r1
    17d8:	6a 30       	cpi	r22, 0x0A	; 10
    17da:	14 f4       	brge	.+4      	;  0x17e0
    17dc:	60 5d       	subi	r22, 0xD0	; 208
    17de:	01 c0       	rjmp	.+2      	;  0x17e2
    17e0:	69 5c       	subi	r22, 0xC9	; 201
    17e2:	d8 01       	movw	r26, r16
    17e4:	6c 93       	st	X, r22
    17e6:	23 2b       	or	r18, r19
    17e8:	24 2b       	or	r18, r20
    17ea:	25 2b       	or	r18, r21
    17ec:	61 f7       	brne	.-40     	;  0x17c6
    17ee:	b8 01       	movw	r22, r16
    17f0:	c7 01       	movw	r24, r14
    17f2:	0e 94 75 0b 	call	0x16ea	;  0x16ea
    17f6:	a1 96       	adiw	r28, 0x21	; 33
    17f8:	0f b6       	in	r0, 0x3f	; 63
    17fa:	f8 94       	cli
    17fc:	de bf       	out	0x3e, r29	; 62
    17fe:	0f be       	out	0x3f, r0	; 63
    1800:	cd bf       	out	0x3d, r28	; 61
    1802:	df 91       	pop	r29
    1804:	cf 91       	pop	r28
    1806:	1f 91       	pop	r17
    1808:	0f 91       	pop	r16
    180a:	ff 90       	pop	r15
    180c:	ef 90       	pop	r14
    180e:	7f 90       	pop	r7
    1810:	6f 90       	pop	r6
    1812:	5f 90       	pop	r5
    1814:	4f 90       	pop	r4
    1816:	08 95       	ret
    1818:	cf 92       	push	r12
    181a:	df 92       	push	r13
    181c:	ef 92       	push	r14
    181e:	ff 92       	push	r15
    1820:	0f 93       	push	r16
    1822:	1f 93       	push	r17
    1824:	cf 93       	push	r28
    1826:	df 93       	push	r29
    1828:	ec 01       	movw	r28, r24
    182a:	6a 01       	movw	r12, r20
    182c:	7b 01       	movw	r14, r22
    182e:	21 15       	cp	r18, r1
    1830:	31 05       	cpc	r19, r1
    1832:	79 f4       	brne	.+30     	;  0x1852
    1834:	e8 81       	ld	r30, Y
    1836:	f9 81       	ldd	r31, Y+1	; 0x01
    1838:	01 90       	ld	r0, Z+
    183a:	f0 81       	ld	r31, Z
    183c:	e0 2d       	mov	r30, r0
    183e:	64 2f       	mov	r22, r20
    1840:	df 91       	pop	r29
    1842:	cf 91       	pop	r28
    1844:	1f 91       	pop	r17
    1846:	0f 91       	pop	r16
    1848:	ff 90       	pop	r15
    184a:	ef 90       	pop	r14
    184c:	df 90       	pop	r13
    184e:	cf 90       	pop	r12
    1850:	09 94       	ijmp
    1852:	2a 30       	cpi	r18, 0x0A	; 10
    1854:	31 05       	cpc	r19, r1
    1856:	e9 f4       	brne	.+58     	;  0x1892
    1858:	77 ff       	sbrs	r23, 7
    185a:	1a c0       	rjmp	.+52     	;  0x1890
    185c:	6d e2       	ldi	r22, 0x2D	; 45
    185e:	0e 94 bc 0b 	call	0x1778	;  0x1778
    1862:	8c 01       	movw	r16, r24
    1864:	44 27       	eor	r20, r20
    1866:	55 27       	eor	r21, r21
    1868:	ba 01       	movw	r22, r20
    186a:	4c 19       	sub	r20, r12
    186c:	5d 09       	sbc	r21, r13
    186e:	6e 09       	sbc	r22, r14
    1870:	7f 09       	sbc	r23, r15
    1872:	2a e0       	ldi	r18, 0x0A	; 10
    1874:	ce 01       	movw	r24, r28
    1876:	0e 94 c3 0b 	call	0x1786	;  0x1786
    187a:	80 0f       	add	r24, r16
    187c:	91 1f       	adc	r25, r17
    187e:	df 91       	pop	r29
    1880:	cf 91       	pop	r28
    1882:	1f 91       	pop	r17
    1884:	0f 91       	pop	r16
    1886:	ff 90       	pop	r15
    1888:	ef 90       	pop	r14
    188a:	df 90       	pop	r13
    188c:	cf 90       	pop	r12
    188e:	08 95       	ret
    1890:	2a e0       	ldi	r18, 0x0A	; 10
    1892:	b7 01       	movw	r22, r14
    1894:	a6 01       	movw	r20, r12
    1896:	ce 01       	movw	r24, r28
    1898:	df 91       	pop	r29
    189a:	cf 91       	pop	r28
    189c:	1f 91       	pop	r17
    189e:	0f 91       	pop	r16
    18a0:	ff 90       	pop	r15
    18a2:	ef 90       	pop	r14
    18a4:	df 90       	pop	r13
    18a6:	cf 90       	pop	r12
    18a8:	0c 94 c3 0b 	jmp	0x1786	;  0x1786
    18ac:	9a 01       	movw	r18, r20
    18ae:	ab 01       	movw	r20, r22
    18b0:	66 27       	eor	r22, r22
    18b2:	57 fd       	sbrc	r21, 7
    18b4:	60 95       	com	r22
    18b6:	76 2f       	mov	r23, r22
    18b8:	0c 94 0c 0c 	jmp	0x1818	;  0x1818
    18bc:	21 15       	cp	r18, r1
    18be:	31 05       	cpc	r19, r1
    18c0:	41 f4       	brne	.+16     	;  0x18d2
    18c2:	dc 01       	movw	r26, r24
    18c4:	ed 91       	ld	r30, X+
    18c6:	fc 91       	ld	r31, X
    18c8:	01 90       	ld	r0, Z+
    18ca:	f0 81       	ld	r31, Z
    18cc:	e0 2d       	mov	r30, r0
    18ce:	64 2f       	mov	r22, r20
    18d0:	09 94       	ijmp
    18d2:	0c 94 c3 0b 	jmp	0x1786	;  0x1786
    18d6:	9a 01       	movw	r18, r20
    18d8:	46 2f       	mov	r20, r22
    18da:	50 e0       	ldi	r21, 0x00	; 0
    18dc:	60 e0       	ldi	r22, 0x00	; 0
    18de:	70 e0       	ldi	r23, 0x00	; 0
    18e0:	0c 94 5e 0c 	jmp	0x18bc	;  0x18bc
    18e4:	61 50       	subi	r22, 0x01	; 1
    18e6:	30 f0       	brcs	.+12     	;  0x18f4
    18e8:	20 91 f1 00 	lds	r18, 0x00F1
    18ec:	fc 01       	movw	r30, r24
    18ee:	20 83       	st	Z, r18
    18f0:	01 96       	adiw	r24, 0x01	; 1
    18f2:	f8 cf       	rjmp	.-16     	;  0x18e4
    18f4:	28 98       	cbi	0x05, 0	; 5
    18f6:	84 e6       	ldi	r24, 0x64	; 100
    18f8:	80 93 7d 03 	sts	0x037D, r24
    18fc:	08 95       	ret
    18fe:	40 91 78 03 	lds	r20, 0x0378
    1902:	50 91 79 03 	lds	r21, 0x0379
    1906:	20 91 76 03 	lds	r18, 0x0376
    190a:	30 91 77 03 	lds	r19, 0x0377
    190e:	42 17       	cp	r20, r18
    1910:	53 07       	cpc	r21, r19
    1912:	b4 f4       	brge	.+44     	;  0x1940
    1914:	90 91 e8 00 	lds	r25, 0x00E8
    1918:	95 70       	andi	r25, 0x05	; 5
    191a:	e1 f3       	breq	.-8      	;  0x1914
    191c:	90 91 e8 00 	lds	r25, 0x00E8
    1920:	92 fd       	sbrc	r25, 2
    1922:	19 c0       	rjmp	.+50     	;  0x1956
    1924:	80 93 f1 00 	sts	0x00F1, r24
    1928:	80 91 78 03 	lds	r24, 0x0378
    192c:	90 91 79 03 	lds	r25, 0x0379
    1930:	01 96       	adiw	r24, 0x01	; 1
    1932:	8f 73       	andi	r24, 0x3F	; 63
    1934:	99 27       	eor	r25, r25
    1936:	89 2b       	or	r24, r25
    1938:	19 f4       	brne	.+6      	;  0x1940
    193a:	8e ef       	ldi	r24, 0xFE	; 254
    193c:	80 93 e8 00 	sts	0x00E8, r24
    1940:	80 91 78 03 	lds	r24, 0x0378
    1944:	90 91 79 03 	lds	r25, 0x0379
    1948:	01 96       	adiw	r24, 0x01	; 1
    194a:	90 93 79 03 	sts	0x0379, r25
    194e:	80 93 78 03 	sts	0x0378, r24
    1952:	81 e0       	ldi	r24, 0x01	; 1
    1954:	08 95       	ret
    1956:	80 e0       	ldi	r24, 0x00	; 0
    1958:	08 95       	ret
    195a:	cf 92       	push	r12
    195c:	df 92       	push	r13
    195e:	ef 92       	push	r14
    1960:	ff 92       	push	r15
    1962:	0f 93       	push	r16
    1964:	1f 93       	push	r17
    1966:	cf 93       	push	r28
    1968:	df 93       	push	r29
    196a:	1f 92       	push	r1
    196c:	cd b7       	in	r28, 0x3d	; 61
    196e:	de b7       	in	r29, 0x3e	; 62
    1970:	18 2f       	mov	r17, r24
    1972:	06 2f       	mov	r16, r22
    1974:	e4 2e       	mov	r14, r20
    1976:	86 2f       	mov	r24, r22
    1978:	88 0f       	add	r24, r24
    197a:	8e 5f       	subi	r24, 0xFE	; 254
    197c:	99 83       	std	Y+1, r25	; 0x01
    197e:	0e 94 7f 0c 	call	0x18fe	;  0x18fe
    1982:	83 e0       	ldi	r24, 0x03	; 3
    1984:	0e 94 7f 0c 	call	0x18fe	;  0x18fe
    1988:	f1 2e       	mov	r15, r17
    198a:	c1 2e       	mov	r12, r17
    198c:	99 81       	ldd	r25, Y+1	; 0x01
    198e:	d9 2e       	mov	r13, r25
    1990:	8c 2d       	mov	r24, r12
    1992:	8f 19       	sub	r24, r15
    1994:	80 17       	cp	r24, r16
    1996:	98 f4       	brcc	.+38     	;  0x19be
    1998:	f6 01       	movw	r30, r12
    199a:	e7 fe       	sbrs	r14, 7
    199c:	02 c0       	rjmp	.+4      	;  0x19a2
    199e:	84 91       	lpm	r24, Z
    19a0:	01 c0       	rjmp	.+2      	;  0x19a4
    19a2:	80 81       	ld	r24, Z
    19a4:	0e 94 7f 0c 	call	0x18fe	;  0x18fe
    19a8:	18 2f       	mov	r17, r24
    19aa:	80 e0       	ldi	r24, 0x00	; 0
    19ac:	0e 94 7f 0c 	call	0x18fe	;  0x18fe
    19b0:	81 23       	and	r24, r17
    19b2:	ff ef       	ldi	r31, 0xFF	; 255
    19b4:	cf 1a       	sub	r12, r31
    19b6:	df 0a       	sbc	r13, r31
    19b8:	81 11       	cpse	r24, r1
    19ba:	ea cf       	rjmp	.-44     	;  0x1990
    19bc:	01 c0       	rjmp	.+2      	;  0x19c0
    19be:	81 e0       	ldi	r24, 0x01	; 1
    19c0:	0f 90       	pop	r0
    19c2:	df 91       	pop	r29
    19c4:	cf 91       	pop	r28
    19c6:	1f 91       	pop	r17
    19c8:	0f 91       	pop	r16
    19ca:	ff 90       	pop	r15
    19cc:	ef 90       	pop	r14
    19ce:	df 90       	pop	r13
    19d0:	cf 90       	pop	r12
    19d2:	08 95       	ret
    19d4:	80 91 d7 00 	lds	r24, 0x00D7
    19d8:	81 60       	ori	r24, 0x01	; 1
    19da:	80 93 d7 00 	sts	0x00D7, r24
    19de:	80 ea       	ldi	r24, 0xA0	; 160
    19e0:	80 93 d8 00 	sts	0x00D8, r24
    19e4:	89 b5       	in	r24, 0x29	; 41
    19e6:	80 61       	ori	r24, 0x10	; 16
    19e8:	89 bd       	out	0x29, r24	; 41
    19ea:	89 b5       	in	r24, 0x29	; 41
    19ec:	82 60       	ori	r24, 0x02	; 2
    19ee:	89 bd       	out	0x29, r24	; 41
    19f0:	09 b4       	in	r0, 0x29	; 41
    19f2:	00 fe       	sbrs	r0, 0
    19f4:	fd cf       	rjmp	.-6      	;  0x19f0
    19f6:	61 e0       	ldi	r22, 0x01	; 1
    19f8:	70 e0       	ldi	r23, 0x00	; 0
    19fa:	80 e0       	ldi	r24, 0x00	; 0
    19fc:	90 e0       	ldi	r25, 0x00	; 0
    19fe:	0e 94 c8 12 	call	0x2590	;  0x2590
    1a02:	80 91 d8 00 	lds	r24, 0x00D8
    1a06:	8f 7c       	andi	r24, 0xCF	; 207
    1a08:	80 61       	ori	r24, 0x10	; 16
    1a0a:	80 93 d8 00 	sts	0x00D8, r24
    1a0e:	80 91 e0 00 	lds	r24, 0x00E0
    1a12:	80 7f       	andi	r24, 0xF0	; 240
    1a14:	80 93 e0 00 	sts	0x00E0, r24
    1a18:	08 95       	ret
    1a1a:	2f b7       	in	r18, 0x3f	; 63
    1a1c:	fc 01       	movw	r30, r24
    1a1e:	20 83       	st	Z, r18
    1a20:	f8 94       	cli
    1a22:	67 70       	andi	r22, 0x07	; 7
    1a24:	60 93 e9 00 	sts	0x00E9, r22
    1a28:	08 95       	ret
    1a2a:	cf 93       	push	r28
    1a2c:	df 93       	push	r29
    1a2e:	1f 92       	push	r1
    1a30:	cd b7       	in	r28, 0x3d	; 61
    1a32:	de b7       	in	r29, 0x3e	; 62
    1a34:	68 2f       	mov	r22, r24
    1a36:	ce 01       	movw	r24, r28
    1a38:	01 96       	adiw	r24, 0x01	; 1
    1a3a:	0e 94 0d 0d 	call	0x1a1a	;  0x1a1a
    1a3e:	80 91 f2 00 	lds	r24, 0x00F2
    1a42:	99 81       	ldd	r25, Y+1	; 0x01
    1a44:	9f bf       	out	0x3f, r25	; 63
    1a46:	0f 90       	pop	r0
    1a48:	df 91       	pop	r29
    1a4a:	cf 91       	pop	r28
    1a4c:	08 95       	ret
    1a4e:	ef 92       	push	r14
    1a50:	ff 92       	push	r15
    1a52:	0f 93       	push	r16
    1a54:	1f 93       	push	r17
    1a56:	cf 93       	push	r28
    1a58:	df 93       	push	r29
    1a5a:	1f 92       	push	r1
    1a5c:	cd b7       	in	r28, 0x3d	; 61
    1a5e:	de b7       	in	r29, 0x3e	; 62
    1a60:	90 91 7c 03 	lds	r25, 0x037C
    1a64:	99 23       	and	r25, r25
    1a66:	11 f0       	breq	.+4      	;  0x1a6c
    1a68:	57 ff       	sbrs	r21, 7
    1a6a:	03 c0       	rjmp	.+6      	;  0x1a72
    1a6c:	8f ef       	ldi	r24, 0xFF	; 255
    1a6e:	9f ef       	ldi	r25, 0xFF	; 255
    1a70:	2a c0       	rjmp	.+84     	;  0x1ac6
    1a72:	8a 01       	movw	r16, r20
    1a74:	7b 01       	movw	r14, r22
    1a76:	68 2f       	mov	r22, r24
    1a78:	ce 01       	movw	r24, r28
    1a7a:	01 96       	adiw	r24, 0x01	; 1
    1a7c:	0e 94 0d 0d 	call	0x1a1a	;  0x1a1a
    1a80:	80 91 f2 00 	lds	r24, 0x00F2
    1a84:	90 e0       	ldi	r25, 0x00	; 0
    1a86:	a8 01       	movw	r20, r16
    1a88:	80 17       	cp	r24, r16
    1a8a:	91 07       	cpc	r25, r17
    1a8c:	0c f4       	brge	.+2      	;  0x1a90
    1a8e:	ac 01       	movw	r20, r24
    1a90:	84 2f       	mov	r24, r20
    1a92:	f7 01       	movw	r30, r14
    1a94:	94 e6       	ldi	r25, 0x64	; 100
    1a96:	81 50       	subi	r24, 0x01	; 1
    1a98:	38 f0       	brcs	.+14     	;  0x1aa8
    1a9a:	28 98       	cbi	0x05, 0	; 5
    1a9c:	90 93 7d 03 	sts	0x037D, r25
    1aa0:	20 91 f1 00 	lds	r18, 0x00F1
    1aa4:	21 93       	st	Z+, r18
    1aa6:	f7 cf       	rjmp	.-18     	;  0x1a96
    1aa8:	41 15       	cp	r20, r1
    1aaa:	51 05       	cpc	r21, r1
    1aac:	21 f0       	breq	.+8      	;  0x1ab6
    1aae:	80 91 f2 00 	lds	r24, 0x00F2
    1ab2:	88 23       	and	r24, r24
    1ab4:	21 f0       	breq	.+8      	;  0x1abe
    1ab6:	89 81       	ldd	r24, Y+1	; 0x01
    1ab8:	8f bf       	out	0x3f, r24	; 63
    1aba:	ca 01       	movw	r24, r20
    1abc:	04 c0       	rjmp	.+8      	;  0x1ac6
    1abe:	8b e6       	ldi	r24, 0x6B	; 107
    1ac0:	80 93 e8 00 	sts	0x00E8, r24
    1ac4:	f8 cf       	rjmp	.-16     	;  0x1ab6
    1ac6:	0f 90       	pop	r0
    1ac8:	df 91       	pop	r29
    1aca:	cf 91       	pop	r28
    1acc:	1f 91       	pop	r17
    1ace:	0f 91       	pop	r16
    1ad0:	ff 90       	pop	r15
    1ad2:	ef 90       	pop	r14
    1ad4:	08 95       	ret
    1ad6:	cf 93       	push	r28
    1ad8:	df 93       	push	r29
    1ada:	1f 92       	push	r1
    1adc:	cd b7       	in	r28, 0x3d	; 61
    1ade:	de b7       	in	r29, 0x3e	; 62
    1ae0:	41 e0       	ldi	r20, 0x01	; 1
    1ae2:	50 e0       	ldi	r21, 0x00	; 0
    1ae4:	be 01       	movw	r22, r28
    1ae6:	6f 5f       	subi	r22, 0xFF	; 255
    1ae8:	7f 4f       	sbci	r23, 0xFF	; 255
    1aea:	0e 94 27 0d 	call	0x1a4e	;  0x1a4e
    1aee:	01 97       	sbiw	r24, 0x01	; 1
    1af0:	19 f4       	brne	.+6      	;  0x1af8
    1af2:	89 81       	ldd	r24, Y+1	; 0x01
    1af4:	90 e0       	ldi	r25, 0x00	; 0
    1af6:	02 c0       	rjmp	.+4      	;  0x1afc
    1af8:	8f ef       	ldi	r24, 0xFF	; 255
    1afa:	9f ef       	ldi	r25, 0xFF	; 255
    1afc:	0f 90       	pop	r0
    1afe:	df 91       	pop	r29
    1b00:	cf 91       	pop	r28
    1b02:	08 95       	ret
    1b04:	cf 93       	push	r28
    1b06:	df 93       	push	r29
    1b08:	1f 92       	push	r1
    1b0a:	cd b7       	in	r28, 0x3d	; 61
    1b0c:	de b7       	in	r29, 0x3e	; 62
    1b0e:	68 2f       	mov	r22, r24
    1b10:	ce 01       	movw	r24, r28
    1b12:	01 96       	adiw	r24, 0x01	; 1
    1b14:	0e 94 0d 0d 	call	0x1a1a	;  0x1a1a
    1b18:	90 91 e8 00 	lds	r25, 0x00E8
    1b1c:	89 2f       	mov	r24, r25
    1b1e:	80 72       	andi	r24, 0x20	; 32
    1b20:	95 ff       	sbrs	r25, 5
    1b22:	04 c0       	rjmp	.+8      	;  0x1b2c
    1b24:	90 91 f2 00 	lds	r25, 0x00F2
    1b28:	80 e4       	ldi	r24, 0x40	; 64
    1b2a:	89 1b       	sub	r24, r25
    1b2c:	99 81       	ldd	r25, Y+1	; 0x01
    1b2e:	9f bf       	out	0x3f, r25	; 63
    1b30:	0f 90       	pop	r0
    1b32:	df 91       	pop	r29
    1b34:	cf 91       	pop	r28
    1b36:	08 95       	ret
    1b38:	6f 92       	push	r6
    1b3a:	7f 92       	push	r7
    1b3c:	8f 92       	push	r8
    1b3e:	9f 92       	push	r9
    1b40:	af 92       	push	r10
    1b42:	bf 92       	push	r11
    1b44:	cf 92       	push	r12
    1b46:	df 92       	push	r13
    1b48:	ef 92       	push	r14
    1b4a:	ff 92       	push	r15
    1b4c:	0f 93       	push	r16
    1b4e:	1f 93       	push	r17
    1b50:	cf 93       	push	r28
    1b52:	df 93       	push	r29
    1b54:	1f 92       	push	r1
    1b56:	cd b7       	in	r28, 0x3d	; 61
    1b58:	de b7       	in	r29, 0x3e	; 62
    1b5a:	a8 2e       	mov	r10, r24
    1b5c:	6b 01       	movw	r12, r22
    1b5e:	b4 2e       	mov	r11, r20
    1b60:	05 2f       	mov	r16, r21
    1b62:	80 91 7c 03 	lds	r24, 0x037C
    1b66:	88 23       	and	r24, r24
    1b68:	69 f0       	breq	.+26     	;  0x1b84
    1b6a:	e4 2e       	mov	r14, r20
    1b6c:	f5 2e       	mov	r15, r21
    1b6e:	8a ef       	ldi	r24, 0xFA	; 250
    1b70:	98 2e       	mov	r9, r24
    1b72:	8a 2d       	mov	r24, r10
    1b74:	80 72       	andi	r24, 0x20	; 32
    1b76:	78 2e       	mov	r7, r24
    1b78:	9a e3       	ldi	r25, 0x3A	; 58
    1b7a:	89 2e       	mov	r8, r25
    1b7c:	8a 2d       	mov	r24, r10
    1b7e:	80 74       	andi	r24, 0x40	; 64
    1b80:	68 2e       	mov	r6, r24
    1b82:	12 c0       	rjmp	.+36     	;  0x1ba8
    1b84:	8f ef       	ldi	r24, 0xFF	; 255
    1b86:	9f ef       	ldi	r25, 0xFF	; 255
    1b88:	54 c0       	rjmp	.+168    	;  0x1c32
    1b8a:	8a 2d       	mov	r24, r10
    1b8c:	0e 94 82 0d 	call	0x1b04	;  0x1b04
    1b90:	18 2f       	mov	r17, r24
    1b92:	81 11       	cpse	r24, r1
    1b94:	0d c0       	rjmp	.+26     	;  0x1bb0
    1b96:	9a 94       	dec	r9
    1b98:	99 20       	and	r9, r9
    1b9a:	a1 f3       	breq	.-24     	;  0x1b84
    1b9c:	61 e0       	ldi	r22, 0x01	; 1
    1b9e:	70 e0       	ldi	r23, 0x00	; 0
    1ba0:	80 e0       	ldi	r24, 0x00	; 0
    1ba2:	90 e0       	ldi	r25, 0x00	; 0
    1ba4:	0e 94 c8 12 	call	0x2590	;  0x2590
    1ba8:	e1 14       	cp	r14, r1
    1baa:	f1 04       	cpc	r15, r1
    1bac:	71 f7       	brne	.-36     	;  0x1b8a
    1bae:	37 c0       	rjmp	.+110    	;  0x1c1e
    1bb0:	90 e0       	ldi	r25, 0x00	; 0
    1bb2:	e8 16       	cp	r14, r24
    1bb4:	f9 06       	cpc	r15, r25
    1bb6:	0c f4       	brge	.+2      	;  0x1bba
    1bb8:	1e 2d       	mov	r17, r14
    1bba:	6a 2d       	mov	r22, r10
    1bbc:	ce 01       	movw	r24, r28
    1bbe:	01 96       	adiw	r24, 0x01	; 1
    1bc0:	0e 94 0d 0d 	call	0x1a1a	;  0x1a1a
    1bc4:	80 91 e8 00 	lds	r24, 0x00E8
    1bc8:	85 ff       	sbrs	r24, 5
    1bca:	26 c0       	rjmp	.+76     	;  0x1c18
    1bcc:	81 2f       	mov	r24, r17
    1bce:	90 e0       	ldi	r25, 0x00	; 0
    1bd0:	e8 1a       	sub	r14, r24
    1bd2:	f9 0a       	sbc	r15, r25
    1bd4:	77 20       	and	r7, r7
    1bd6:	29 f0       	breq	.+10     	;  0x1be2
    1bd8:	11 50       	subi	r17, 0x01	; 1
    1bda:	a8 f0       	brcs	.+42     	;  0x1c06
    1bdc:	10 92 f1 00 	sts	0x00F1, r1
    1be0:	fb cf       	rjmp	.-10     	;  0x1bd8
    1be2:	f6 01       	movw	r30, r12
    1be4:	a7 fe       	sbrs	r10, 7
    1be6:	07 c0       	rjmp	.+14     	;  0x1bf6
    1be8:	11 50       	subi	r17, 0x01	; 1
    1bea:	58 f0       	brcs	.+22     	;  0x1c02
    1bec:	24 91       	lpm	r18, Z
    1bee:	20 93 f1 00 	sts	0x00F1, r18
    1bf2:	31 96       	adiw	r30, 0x01	; 1
    1bf4:	f9 cf       	rjmp	.-14     	;  0x1be8
    1bf6:	11 50       	subi	r17, 0x01	; 1
    1bf8:	20 f0       	brcs	.+8      	;  0x1c02
    1bfa:	21 91       	ld	r18, Z+
    1bfc:	20 93 f1 00 	sts	0x00F1, r18
    1c00:	fa cf       	rjmp	.-12     	;  0x1bf6
    1c02:	c8 0e       	add	r12, r24
    1c04:	d9 1e       	adc	r13, r25
    1c06:	80 91 e8 00 	lds	r24, 0x00E8
    1c0a:	85 ff       	sbrs	r24, 5
    1c0c:	0f c0       	rjmp	.+30     	;  0x1c2c
    1c0e:	e1 14       	cp	r14, r1
    1c10:	f1 04       	cpc	r15, r1
    1c12:	11 f4       	brne	.+4      	;  0x1c18
    1c14:	61 10       	cpse	r6, r1
    1c16:	0a c0       	rjmp	.+20     	;  0x1c2c
    1c18:	89 81       	ldd	r24, Y+1	; 0x01
    1c1a:	8f bf       	out	0x3f, r24	; 63
    1c1c:	c5 cf       	rjmp	.-118    	;  0x1ba8
    1c1e:	5d 98       	cbi	0x0b, 5	; 11
    1c20:	84 e6       	ldi	r24, 0x64	; 100
    1c22:	80 93 7e 03 	sts	0x037E, r24
    1c26:	8b 2d       	mov	r24, r11
    1c28:	90 2f       	mov	r25, r16
    1c2a:	03 c0       	rjmp	.+6      	;  0x1c32
    1c2c:	80 92 e8 00 	sts	0x00E8, r8
    1c30:	f3 cf       	rjmp	.-26     	;  0x1c18
    1c32:	0f 90       	pop	r0
    1c34:	df 91       	pop	r29
    1c36:	cf 91       	pop	r28
    1c38:	1f 91       	pop	r17
    1c3a:	0f 91       	pop	r16
    1c3c:	ff 90       	pop	r15
    1c3e:	ef 90       	pop	r14
    1c40:	df 90       	pop	r13
    1c42:	cf 90       	pop	r12
    1c44:	bf 90       	pop	r11
    1c46:	af 90       	pop	r10
    1c48:	9f 90       	pop	r9
    1c4a:	8f 90       	pop	r8
    1c4c:	7f 90       	pop	r7
    1c4e:	6f 90       	pop	r6
    1c50:	08 95       	ret
    1c52:	10 92 e9 00 	sts	0x00E9, r1
    1c56:	10 92 79 03 	sts	0x0379, r1
    1c5a:	10 92 78 03 	sts	0x0378, r1
    1c5e:	90 93 77 03 	sts	0x0377, r25
    1c62:	80 93 76 03 	sts	0x0376, r24
    1c66:	08 95       	ret
    1c68:	df 92       	push	r13
    1c6a:	ef 92       	push	r14
    1c6c:	ff 92       	push	r15
    1c6e:	0f 93       	push	r16
    1c70:	1f 93       	push	r17
    1c72:	cf 93       	push	r28
    1c74:	df 93       	push	r29
    1c76:	d8 2e       	mov	r13, r24
    1c78:	8a 01       	movw	r16, r20
    1c7a:	7b 01       	movw	r14, r22
    1c7c:	e4 0e       	add	r14, r20
    1c7e:	f5 1e       	adc	r15, r21
    1c80:	eb 01       	movw	r28, r22
    1c82:	ce 15       	cp	r28, r14
    1c84:	df 05       	cpc	r29, r15
    1c86:	71 f0       	breq	.+28     	;  0x1ca4
    1c88:	d7 fe       	sbrs	r13, 7
    1c8a:	03 c0       	rjmp	.+6      	;  0x1c92
    1c8c:	fe 01       	movw	r30, r28
    1c8e:	84 91       	lpm	r24, Z
    1c90:	01 c0       	rjmp	.+2      	;  0x1c94
    1c92:	88 81       	ld	r24, Y
    1c94:	0e 94 7f 0c 	call	0x18fe	;  0x18fe
    1c98:	21 96       	adiw	r28, 0x01	; 1
    1c9a:	81 11       	cpse	r24, r1
    1c9c:	f2 cf       	rjmp	.-28     	;  0x1c82
    1c9e:	8f ef       	ldi	r24, 0xFF	; 255
    1ca0:	9f ef       	ldi	r25, 0xFF	; 255
    1ca2:	01 c0       	rjmp	.+2      	;  0x1ca6
    1ca4:	c8 01       	movw	r24, r16
    1ca6:	df 91       	pop	r29
    1ca8:	cf 91       	pop	r28
    1caa:	1f 91       	pop	r17
    1cac:	0f 91       	pop	r16
    1cae:	ff 90       	pop	r15
    1cb0:	ef 90       	pop	r14
    1cb2:	df 90       	pop	r13
    1cb4:	08 95       	ret
    1cb6:	bf 92       	push	r11
    1cb8:	cf 92       	push	r12
    1cba:	df 92       	push	r13
    1cbc:	ef 92       	push	r14
    1cbe:	ff 92       	push	r15
    1cc0:	0f 93       	push	r16
    1cc2:	1f 93       	push	r17
    1cc4:	cf 93       	push	r28
    1cc6:	df 93       	push	r29
    1cc8:	6c 01       	movw	r12, r24
    1cca:	8b 01       	movw	r16, r22
    1ccc:	eb 01       	movw	r28, r22
    1cce:	9b ef       	ldi	r25, 0xFB	; 251
    1cd0:	b9 2e       	mov	r11, r25
    1cd2:	20 97       	sbiw	r28, 0x00	; 0
    1cd4:	c1 f0       	breq	.+48     	;  0x1d06
    1cd6:	7e 01       	movw	r14, r28
    1cd8:	c1 34       	cpi	r28, 0x41	; 65
    1cda:	d1 05       	cpc	r29, r1
    1cdc:	1c f0       	brlt	.+6      	;  0x1ce4
    1cde:	80 e4       	ldi	r24, 0x40	; 64
    1ce0:	e8 2e       	mov	r14, r24
    1ce2:	f1 2c       	mov	r15, r1
    1ce4:	80 91 e8 00 	lds	r24, 0x00E8
    1ce8:	82 ff       	sbrs	r24, 2
    1cea:	fc cf       	rjmp	.-8      	;  0x1ce4
    1cec:	c8 01       	movw	r24, r16
    1cee:	8c 1b       	sub	r24, r28
    1cf0:	9d 0b       	sbc	r25, r29
    1cf2:	6e 2d       	mov	r22, r14
    1cf4:	8c 0d       	add	r24, r12
    1cf6:	9d 1d       	adc	r25, r13
    1cf8:	0e 94 72 0c 	call	0x18e4	;  0x18e4
    1cfc:	b0 92 e8 00 	sts	0x00E8, r11
    1d00:	ce 19       	sub	r28, r14
    1d02:	df 09       	sbc	r29, r15
    1d04:	e6 cf       	rjmp	.-52     	;  0x1cd2
    1d06:	c8 01       	movw	r24, r16
    1d08:	df 91       	pop	r29
    1d0a:	cf 91       	pop	r28
    1d0c:	1f 91       	pop	r17
    1d0e:	0f 91       	pop	r16
    1d10:	ff 90       	pop	r15
    1d12:	ef 90       	pop	r14
    1d14:	df 90       	pop	r13
    1d16:	cf 90       	pop	r12
    1d18:	bf 90       	pop	r11
    1d1a:	08 95       	ret
    1d1c:	80 93 e9 00 	sts	0x00E9, r24
    1d20:	80 91 f2 00 	lds	r24, 0x00F2
    1d24:	88 23       	and	r24, r24
    1d26:	19 f0       	breq	.+6      	;  0x1d2e
    1d28:	8a e3       	ldi	r24, 0x3A	; 58
    1d2a:	80 93 e8 00 	sts	0x00E8, r24
    1d2e:	08 95       	ret
    1d30:	1f 92       	push	r1
    1d32:	0f 92       	push	r0
    1d34:	0f b6       	in	r0, 0x3f	; 63
    1d36:	0f 92       	push	r0
    1d38:	11 24       	eor	r1, r1
    1d3a:	2f 93       	push	r18
    1d3c:	3f 93       	push	r19
    1d3e:	4f 93       	push	r20
    1d40:	5f 93       	push	r21
    1d42:	6f 93       	push	r22
    1d44:	7f 93       	push	r23
    1d46:	8f 93       	push	r24
    1d48:	9f 93       	push	r25
    1d4a:	af 93       	push	r26
    1d4c:	bf 93       	push	r27
    1d4e:	cf 93       	push	r28
    1d50:	ef 93       	push	r30
    1d52:	ff 93       	push	r31
    1d54:	c0 91 e1 00 	lds	r28, 0x00E1
    1d58:	80 91 e1 00 	lds	r24, 0x00E1
    1d5c:	83 7f       	andi	r24, 0xF3	; 243
    1d5e:	80 93 e1 00 	sts	0x00E1, r24
    1d62:	80 93 e1 00 	sts	0x00E1, r24
    1d66:	c3 ff       	sbrs	r28, 3
    1d68:	0f c0       	rjmp	.+30     	;  0x1d88
    1d6a:	10 92 e9 00 	sts	0x00E9, r1
    1d6e:	81 e0       	ldi	r24, 0x01	; 1
    1d70:	80 93 eb 00 	sts	0x00EB, r24
    1d74:	10 92 ec 00 	sts	0x00EC, r1
    1d78:	82 e3       	ldi	r24, 0x32	; 50
    1d7a:	80 93 ed 00 	sts	0x00ED, r24
    1d7e:	10 92 7c 03 	sts	0x037C, r1
    1d82:	88 e0       	ldi	r24, 0x08	; 8
    1d84:	80 93 f0 00 	sts	0x00F0, r24
    1d88:	c2 ff       	sbrs	r28, 2
    1d8a:	19 c0       	rjmp	.+50     	;  0x1dbe
    1d8c:	83 e0       	ldi	r24, 0x03	; 3
    1d8e:	0e 94 8e 0e 	call	0x1d1c	;  0x1d1c
    1d92:	80 91 7e 03 	lds	r24, 0x037E
    1d96:	88 23       	and	r24, r24
    1d98:	39 f0       	breq	.+14     	;  0x1da8
    1d9a:	80 91 7e 03 	lds	r24, 0x037E
    1d9e:	81 50       	subi	r24, 0x01	; 1
    1da0:	80 93 7e 03 	sts	0x037E, r24
    1da4:	88 23       	and	r24, r24
    1da6:	89 f1       	breq	.+98     	;  0x1e0a
    1da8:	80 91 7d 03 	lds	r24, 0x037D
    1dac:	88 23       	and	r24, r24
    1dae:	39 f0       	breq	.+14     	;  0x1dbe
    1db0:	80 91 7d 03 	lds	r24, 0x037D
    1db4:	81 50       	subi	r24, 0x01	; 1
    1db6:	80 93 7d 03 	sts	0x037D, r24
    1dba:	88 23       	and	r24, r24
    1dbc:	41 f1       	breq	.+80     	;  0x1e0e
    1dbe:	c4 ff       	sbrs	r28, 4
    1dc0:	10 c0       	rjmp	.+32     	;  0x1de2
    1dc2:	80 91 e2 00 	lds	r24, 0x00E2
    1dc6:	8e 7e       	andi	r24, 0xEE	; 238
    1dc8:	81 60       	ori	r24, 0x01	; 1
    1dca:	80 93 e2 00 	sts	0x00E2, r24
    1dce:	80 91 e1 00 	lds	r24, 0x00E1
    1dd2:	8f 7e       	andi	r24, 0xEF	; 239
    1dd4:	80 93 e1 00 	sts	0x00E1, r24
    1dd8:	80 91 7a 03 	lds	r24, 0x037A
    1ddc:	8e 7e       	andi	r24, 0xEE	; 238
    1dde:	80 61       	ori	r24, 0x10	; 16
    1de0:	11 c0       	rjmp	.+34     	;  0x1e04
    1de2:	c0 ff       	sbrs	r28, 0
    1de4:	16 c0       	rjmp	.+44     	;  0x1e12
    1de6:	80 91 e2 00 	lds	r24, 0x00E2
    1dea:	8e 7e       	andi	r24, 0xEE	; 238
    1dec:	80 61       	ori	r24, 0x10	; 16
    1dee:	80 93 e2 00 	sts	0x00E2, r24
    1df2:	80 91 e1 00 	lds	r24, 0x00E1
    1df6:	8e 7e       	andi	r24, 0xEE	; 238
    1df8:	80 93 e1 00 	sts	0x00E1, r24
    1dfc:	80 91 7a 03 	lds	r24, 0x037A
    1e00:	8e 7e       	andi	r24, 0xEE	; 238
    1e02:	81 60       	ori	r24, 0x01	; 1
    1e04:	80 93 7a 03 	sts	0x037A, r24
    1e08:	04 c0       	rjmp	.+8      	;  0x1e12
    1e0a:	5d 9a       	sbi	0x0b, 5	; 11
    1e0c:	cd cf       	rjmp	.-102    	;  0x1da8
    1e0e:	28 9a       	sbi	0x05, 0	; 5
    1e10:	d6 cf       	rjmp	.-84     	;  0x1dbe
    1e12:	ff 91       	pop	r31
    1e14:	ef 91       	pop	r30
    1e16:	cf 91       	pop	r28
    1e18:	bf 91       	pop	r27
    1e1a:	af 91       	pop	r26
    1e1c:	9f 91       	pop	r25
    1e1e:	8f 91       	pop	r24
    1e20:	7f 91       	pop	r23
    1e22:	6f 91       	pop	r22
    1e24:	5f 91       	pop	r21
    1e26:	4f 91       	pop	r20
    1e28:	3f 91       	pop	r19
    1e2a:	2f 91       	pop	r18
    1e2c:	0f 90       	pop	r0
    1e2e:	0f be       	out	0x3f, r0	; 63
    1e30:	0f 90       	pop	r0
    1e32:	1f 90       	pop	r1
    1e34:	18 95       	reti
    1e36:	10 92 7c 03 	sts	0x037C, r1
    1e3a:	10 92 7b 03 	sts	0x037B, r1
    1e3e:	10 92 7a 03 	sts	0x037A, r1
    1e42:	0e 94 ea 0c 	call	0x19d4	;  0x19d4
    1e46:	80 91 e1 00 	lds	r24, 0x00E1
    1e4a:	8e 7e       	andi	r24, 0xEE	; 238
    1e4c:	80 93 e1 00 	sts	0x00E1, r24
    1e50:	8d e0       	ldi	r24, 0x0D	; 13
    1e52:	80 93 e2 00 	sts	0x00E2, r24
    1e56:	55 9a       	sbi	0x0a, 5	; 10
    1e58:	20 9a       	sbi	0x04, 0	; 4
    1e5a:	ee ef       	ldi	r30, 0xFE	; 254
    1e5c:	ff e7       	ldi	r31, 0x7F	; 127
    1e5e:	85 91       	lpm	r24, Z+
    1e60:	94 91       	lpm	r25, Z
    1e62:	8b 3f       	cpi	r24, 0xFB	; 251
    1e64:	9c 4d       	sbci	r25, 0xDC	; 220
    1e66:	19 f4       	brne	.+6      	;  0x1e6e
    1e68:	81 e0       	ldi	r24, 0x01	; 1
    1e6a:	80 93 c4 02 	sts	0x02C4, r24
    1e6e:	08 95       	ret
    1e70:	ef 92       	push	r14
    1e72:	ff 92       	push	r15
    1e74:	0f 93       	push	r16
    1e76:	1f 93       	push	r17
    1e78:	cf 93       	push	r28
    1e7a:	df 93       	push	r29
    1e7c:	7b 01       	movw	r14, r22
    1e7e:	fc 01       	movw	r30, r24
    1e80:	c2 81       	ldd	r28, Z+2	; 0x02
    1e82:	d3 81       	ldd	r29, Z+3	; 0x03
    1e84:	00 e0       	ldi	r16, 0x00	; 0
    1e86:	10 e0       	ldi	r17, 0x00	; 0
    1e88:	20 97       	sbiw	r28, 0x00	; 0
    1e8a:	81 f0       	breq	.+32     	;  0x1eac
    1e8c:	e8 81       	ld	r30, Y
    1e8e:	f9 81       	ldd	r31, Y+1	; 0x01
    1e90:	02 80       	ldd	r0, Z+2	; 0x02
    1e92:	f3 81       	ldd	r31, Z+3	; 0x03
    1e94:	e0 2d       	mov	r30, r0
    1e96:	b7 01       	movw	r22, r14
    1e98:	ce 01       	movw	r24, r28
    1e9a:	09 95       	icall
    1e9c:	97 fd       	sbrc	r25, 7
    1e9e:	08 c0       	rjmp	.+16     	;  0x1eb0
    1ea0:	08 0f       	add	r16, r24
    1ea2:	19 1f       	adc	r17, r25
    1ea4:	08 84       	ldd	r0, Y+8	; 0x08
    1ea6:	d9 85       	ldd	r29, Y+9	; 0x09
    1ea8:	c0 2d       	mov	r28, r0
    1eaa:	ee cf       	rjmp	.-36     	;  0x1e88
    1eac:	c8 01       	movw	r24, r16
    1eae:	02 c0       	rjmp	.+4      	;  0x1eb4
    1eb0:	8f ef       	ldi	r24, 0xFF	; 255
    1eb2:	9f ef       	ldi	r25, 0xFF	; 255
    1eb4:	df 91       	pop	r29
    1eb6:	cf 91       	pop	r28
    1eb8:	1f 91       	pop	r17
    1eba:	0f 91       	pop	r16
    1ebc:	ff 90       	pop	r15
    1ebe:	ef 90       	pop	r14
    1ec0:	08 95       	ret
    1ec2:	0f 93       	push	r16
    1ec4:	1f 93       	push	r17
    1ec6:	cf 93       	push	r28
    1ec8:	df 93       	push	r29
    1eca:	8b 01       	movw	r16, r22
    1ecc:	fc 01       	movw	r30, r24
    1ece:	c2 81       	ldd	r28, Z+2	; 0x02
    1ed0:	d3 81       	ldd	r29, Z+3	; 0x03
    1ed2:	20 97       	sbiw	r28, 0x00	; 0
    1ed4:	71 f0       	breq	.+28     	;  0x1ef2
    1ed6:	e8 81       	ld	r30, Y
    1ed8:	f9 81       	ldd	r31, Y+1	; 0x01
    1eda:	04 80       	ldd	r0, Z+4	; 0x04
    1edc:	f5 81       	ldd	r31, Z+5	; 0x05
    1ede:	e0 2d       	mov	r30, r0
    1ee0:	b8 01       	movw	r22, r16
    1ee2:	ce 01       	movw	r24, r28
    1ee4:	09 95       	icall
    1ee6:	00 97       	sbiw	r24, 0x00	; 0
    1ee8:	31 f4       	brne	.+12     	;  0x1ef6
    1eea:	08 84       	ldd	r0, Y+8	; 0x08
    1eec:	d9 85       	ldd	r29, Y+9	; 0x09
    1eee:	c0 2d       	mov	r28, r0
    1ef0:	f0 cf       	rjmp	.-32     	;  0x1ed2
    1ef2:	80 e0       	ldi	r24, 0x00	; 0
    1ef4:	90 e0       	ldi	r25, 0x00	; 0
    1ef6:	df 91       	pop	r29
    1ef8:	cf 91       	pop	r28
    1efa:	1f 91       	pop	r17
    1efc:	0f 91       	pop	r16
    1efe:	08 95       	ret
    1f00:	0f 93       	push	r16
    1f02:	1f 93       	push	r17
    1f04:	cf 93       	push	r28
    1f06:	df 93       	push	r29
    1f08:	8b 01       	movw	r16, r22
    1f0a:	fc 01       	movw	r30, r24
    1f0c:	c2 81       	ldd	r28, Z+2	; 0x02
    1f0e:	d3 81       	ldd	r29, Z+3	; 0x03
    1f10:	20 97       	sbiw	r28, 0x00	; 0
    1f12:	71 f0       	breq	.+28     	;  0x1f30
    1f14:	e8 81       	ld	r30, Y
    1f16:	f9 81       	ldd	r31, Y+1	; 0x01
    1f18:	06 80       	ldd	r0, Z+6	; 0x06
    1f1a:	f7 81       	ldd	r31, Z+7	; 0x07
    1f1c:	e0 2d       	mov	r30, r0
    1f1e:	b8 01       	movw	r22, r16
    1f20:	ce 01       	movw	r24, r28
    1f22:	09 95       	icall
    1f24:	08 0f       	add	r16, r24
    1f26:	11 1d       	adc	r17, r1
    1f28:	08 84       	ldd	r0, Y+8	; 0x08
    1f2a:	d9 85       	ldd	r29, Y+9	; 0x09
    1f2c:	c0 2d       	mov	r28, r0
    1f2e:	f0 cf       	rjmp	.-32     	;  0x1f10
    1f30:	f8 01       	movw	r30, r16
    1f32:	10 82       	st	Z, r1
    1f34:	df 91       	pop	r29
    1f36:	cf 91       	pop	r28
    1f38:	1f 91       	pop	r17
    1f3a:	0f 91       	pop	r16
    1f3c:	08 95       	ret
    1f3e:	0f 93       	push	r16
    1f40:	1f 93       	push	r17
    1f42:	cf 93       	push	r28
    1f44:	df 93       	push	r29
    1f46:	8b 01       	movw	r16, r22
    1f48:	fc 01       	movw	r30, r24
    1f4a:	c2 81       	ldd	r28, Z+2	; 0x02
    1f4c:	d3 81       	ldd	r29, Z+3	; 0x03
    1f4e:	20 97       	sbiw	r28, 0x00	; 0
    1f50:	71 f0       	breq	.+28     	;  0x1f6e
    1f52:	e8 81       	ld	r30, Y
    1f54:	f9 81       	ldd	r31, Y+1	; 0x01
    1f56:	01 90       	ld	r0, Z+
    1f58:	f0 81       	ld	r31, Z
    1f5a:	e0 2d       	mov	r30, r0
    1f5c:	b8 01       	movw	r22, r16
    1f5e:	ce 01       	movw	r24, r28
    1f60:	09 95       	icall
    1f62:	81 11       	cpse	r24, r1
    1f64:	05 c0       	rjmp	.+10     	;  0x1f70
    1f66:	08 84       	ldd	r0, Y+8	; 0x08
    1f68:	d9 85       	ldd	r29, Y+9	; 0x09
    1f6a:	c0 2d       	mov	r28, r0
    1f6c:	f0 cf       	rjmp	.-32     	;  0x1f4e
    1f6e:	80 e0       	ldi	r24, 0x00	; 0
    1f70:	df 91       	pop	r29
    1f72:	cf 91       	pop	r28
    1f74:	1f 91       	pop	r17
    1f76:	0f 91       	pop	r16
    1f78:	08 95       	ret
    1f7a:	cf 93       	push	r28
    1f7c:	df 93       	push	r29
    1f7e:	fc 01       	movw	r30, r24
    1f80:	db 01       	movw	r26, r22
    1f82:	21 81       	ldd	r18, Z+1	; 0x01
    1f84:	14 96       	adiw	r26, 0x04	; 4
    1f86:	8c 91       	ld	r24, X
    1f88:	14 97       	sbiw	r26, 0x04	; 4
    1f8a:	90 e0       	ldi	r25, 0x00	; 0
    1f8c:	82 0f       	add	r24, r18
    1f8e:	91 1d       	adc	r25, r1
    1f90:	08 97       	sbiw	r24, 0x08	; 8
    1f92:	b4 f5       	brge	.+108    	;  0x2000
    1f94:	c2 81       	ldd	r28, Z+2	; 0x02
    1f96:	d3 81       	ldd	r29, Z+3	; 0x03
    1f98:	20 97       	sbiw	r28, 0x00	; 0
    1f9a:	19 f4       	brne	.+6      	;  0x1fa2
    1f9c:	73 83       	std	Z+3, r23	; 0x03
    1f9e:	62 83       	std	Z+2, r22	; 0x02
    1fa0:	08 c0       	rjmp	.+16     	;  0x1fb2
    1fa2:	88 85       	ldd	r24, Y+8	; 0x08
    1fa4:	99 85       	ldd	r25, Y+9	; 0x09
    1fa6:	00 97       	sbiw	r24, 0x00	; 0
    1fa8:	11 f0       	breq	.+4      	;  0x1fae
    1faa:	ec 01       	movw	r28, r24
    1fac:	fa cf       	rjmp	.-12     	;  0x1fa2
    1fae:	b9 87       	std	Y+9, r27	; 0x09
    1fb0:	a8 87       	std	Y+8, r26	; 0x08
    1fb2:	80 81       	ld	r24, Z
    1fb4:	12 96       	adiw	r26, 0x02	; 2
    1fb6:	8c 93       	st	X, r24
    1fb8:	12 97       	sbiw	r26, 0x02	; 2
    1fba:	81 81       	ldd	r24, Z+1	; 0x01
    1fbc:	13 96       	adiw	r26, 0x03	; 3
    1fbe:	8c 93       	st	X, r24
    1fc0:	13 97       	sbiw	r26, 0x03	; 3
    1fc2:	90 81       	ld	r25, Z
    1fc4:	15 96       	adiw	r26, 0x05	; 5
    1fc6:	8c 91       	ld	r24, X
    1fc8:	15 97       	sbiw	r26, 0x05	; 5
    1fca:	89 0f       	add	r24, r25
    1fcc:	80 83       	st	Z, r24
    1fce:	80 e0       	ldi	r24, 0x00	; 0
    1fd0:	14 96       	adiw	r26, 0x04	; 4
    1fd2:	9c 91       	ld	r25, X
    1fd4:	14 97       	sbiw	r26, 0x04	; 4
    1fd6:	89 17       	cp	r24, r25
    1fd8:	88 f4       	brcc	.+34     	;  0x1ffc
    1fda:	16 96       	adiw	r26, 0x06	; 6
    1fdc:	cd 91       	ld	r28, X+
    1fde:	dc 91       	ld	r29, X
    1fe0:	17 97       	sbiw	r26, 0x07	; 7
    1fe2:	c8 0f       	add	r28, r24
    1fe4:	d1 1d       	adc	r29, r1
    1fe6:	98 81       	ld	r25, Y
    1fe8:	c1 81       	ldd	r28, Z+1	; 0x01
    1fea:	d0 e0       	ldi	r29, 0x00	; 0
    1fec:	cb 5e       	subi	r28, 0xEB	; 235
    1fee:	de 4f       	sbci	r29, 0xFE	; 254
    1ff0:	98 83       	st	Y, r25
    1ff2:	91 81       	ldd	r25, Z+1	; 0x01
    1ff4:	9f 5f       	subi	r25, 0xFF	; 255
    1ff6:	91 83       	std	Z+1, r25	; 0x01
    1ff8:	8f 5f       	subi	r24, 0xFF	; 255
    1ffa:	ea cf       	rjmp	.-44     	;  0x1fd0
    1ffc:	81 e0       	ldi	r24, 0x01	; 1
    1ffe:	01 c0       	rjmp	.+2      	;  0x2002
    2000:	80 e0       	ldi	r24, 0x00	; 0
    2002:	df 91       	pop	r29
    2004:	cf 91       	pop	r28
    2006:	08 95       	ret
    2008:	80 91 6c 03 	lds	r24, 0x036C
    200c:	81 11       	cpse	r24, r1
    200e:	0d c0       	rjmp	.+26     	;  0x202a
    2010:	82 e0       	ldi	r24, 0x02	; 2
    2012:	80 93 68 03 	sts	0x0368, r24
    2016:	84 e0       	ldi	r24, 0x04	; 4
    2018:	80 93 69 03 	sts	0x0369, r24
    201c:	10 92 6b 03 	sts	0x036B, r1
    2020:	10 92 6a 03 	sts	0x036A, r1
    2024:	81 e0       	ldi	r24, 0x01	; 1
    2026:	80 93 6c 03 	sts	0x036C, r24
    202a:	88 e6       	ldi	r24, 0x68	; 104
    202c:	93 e0       	ldi	r25, 0x03	; 3
    202e:	08 95       	ret
    2030:	cf 93       	push	r28
    2032:	df 93       	push	r29
    2034:	1f 92       	push	r1
    2036:	cd b7       	in	r28, 0x3d	; 61
    2038:	de b7       	in	r29, 0x3e	; 62
    203a:	19 82       	std	Y+1, r1	; 0x01
    203c:	ce 01       	movw	r24, r28
    203e:	01 96       	adiw	r24, 0x01	; 1
    2040:	0e 94 ec 08 	call	0x11d8	;  0x11d8
    2044:	0e 94 04 10 	call	0x2008	;  0x2008
    2048:	be 01       	movw	r22, r28
    204a:	6f 5f       	subi	r22, 0xFF	; 255
    204c:	7f 4f       	sbci	r23, 0xFF	; 255
    204e:	0e 94 38 0f 	call	0x1e70	;  0x1e70
    2052:	89 81       	ldd	r24, Y+1	; 0x01
    2054:	0f 90       	pop	r0
    2056:	df 91       	pop	r29
    2058:	cf 91       	pop	r28
    205a:	08 95       	ret
    205c:	1f 92       	push	r1
    205e:	0f 92       	push	r0
    2060:	0f b6       	in	r0, 0x3f	; 63
    2062:	0f 92       	push	r0
    2064:	11 24       	eor	r1, r1
    2066:	cf 92       	push	r12
    2068:	df 92       	push	r13
    206a:	ef 92       	push	r14
    206c:	ff 92       	push	r15
    206e:	0f 93       	push	r16
    2070:	1f 93       	push	r17
    2072:	2f 93       	push	r18
    2074:	3f 93       	push	r19
    2076:	4f 93       	push	r20
    2078:	5f 93       	push	r21
    207a:	6f 93       	push	r22
    207c:	7f 93       	push	r23
    207e:	8f 93       	push	r24
    2080:	9f 93       	push	r25
    2082:	af 93       	push	r26
    2084:	bf 93       	push	r27
    2086:	ef 93       	push	r30
    2088:	ff 93       	push	r31
    208a:	cf 93       	push	r28
    208c:	df 93       	push	r29
    208e:	cd b7       	in	r28, 0x3d	; 61
    2090:	de b7       	in	r29, 0x3e	; 62
    2092:	6c 97       	sbiw	r28, 0x1c	; 28
    2094:	de bf       	out	0x3e, r29	; 62
    2096:	cd bf       	out	0x3d, r28	; 61
    2098:	10 92 e9 00 	sts	0x00E9, r1
    209c:	80 91 e8 00 	lds	r24, 0x00E8
    20a0:	83 ff       	sbrs	r24, 3
    20a2:	24 c1       	rjmp	.+584    	;  0x22ec
    20a4:	68 e0       	ldi	r22, 0x08	; 8
    20a6:	ce 01       	movw	r24, r28
    20a8:	45 96       	adiw	r24, 0x15	; 21
    20aa:	0e 94 72 0c 	call	0x18e4	;  0x18e4
    20ae:	82 ef       	ldi	r24, 0xF2	; 242
    20b0:	80 93 e8 00 	sts	0x00E8, r24
    20b4:	8d 89       	ldd	r24, Y+21	; 0x15
    20b6:	87 ff       	sbrs	r24, 7
    20b8:	05 c0       	rjmp	.+10     	;  0x20c4
    20ba:	90 91 e8 00 	lds	r25, 0x00E8
    20be:	90 ff       	sbrs	r25, 0
    20c0:	fc cf       	rjmp	.-8      	;  0x20ba
    20c2:	03 c0       	rjmp	.+6      	;  0x20ca
    20c4:	9e ef       	ldi	r25, 0xFE	; 254
    20c6:	90 93 e8 00 	sts	0x00E8, r25
    20ca:	98 2f       	mov	r25, r24
    20cc:	90 76       	andi	r25, 0x60	; 96
    20ce:	09 f0       	breq	.+2      	;  0x20d2
    20d0:	f1 c0       	rjmp	.+482    	;  0x22b4
    20d2:	9e 89       	ldd	r25, Y+22	; 0x16
    20d4:	2f 89       	ldd	r18, Y+23	; 0x17
    20d6:	18 8d       	ldd	r17, Y+24	; 0x18
    20d8:	91 11       	cpse	r25, r1
    20da:	0c c0       	rjmp	.+24     	;  0x20f4
    20dc:	80 38       	cpi	r24, 0x80	; 128
    20de:	29 f4       	brne	.+10     	;  0x20ea
    20e0:	80 91 7b 03 	lds	r24, 0x037B
    20e4:	80 93 f1 00 	sts	0x00F1, r24
    20e8:	02 c0       	rjmp	.+4      	;  0x20ee
    20ea:	10 92 f1 00 	sts	0x00F1, r1
    20ee:	10 92 f1 00 	sts	0x00F1, r1
    20f2:	f5 c0       	rjmp	.+490    	;  0x22de
    20f4:	42 2f       	mov	r20, r18
    20f6:	50 e0       	ldi	r21, 0x00	; 0
    20f8:	51 2b       	or	r21, r17
    20fa:	91 30       	cpi	r25, 0x01	; 1
    20fc:	51 f4       	brne	.+20     	;  0x2112
    20fe:	81 11       	cpse	r24, r1
    2100:	ee c0       	rjmp	.+476    	;  0x22de
    2102:	41 30       	cpi	r20, 0x01	; 1
    2104:	51 05       	cpc	r21, r1
    2106:	09 f0       	breq	.+2      	;  0x210a
    2108:	ea c0       	rjmp	.+468    	;  0x22de
    210a:	80 91 7b 03 	lds	r24, 0x037B
    210e:	8d 7f       	andi	r24, 0xFD	; 253
    2110:	0b c0       	rjmp	.+22     	;  0x2128
    2112:	93 30       	cpi	r25, 0x03	; 3
    2114:	61 f4       	brne	.+24     	;  0x212e
    2116:	81 11       	cpse	r24, r1
    2118:	e2 c0       	rjmp	.+452    	;  0x22de
    211a:	41 30       	cpi	r20, 0x01	; 1
    211c:	51 05       	cpc	r21, r1
    211e:	09 f0       	breq	.+2      	;  0x2122
    2120:	de c0       	rjmp	.+444    	;  0x22de
    2122:	80 91 7b 03 	lds	r24, 0x037B
    2126:	82 60       	ori	r24, 0x02	; 2
    2128:	80 93 7b 03 	sts	0x037B, r24
    212c:	d8 c0       	rjmp	.+432    	;  0x22de
    212e:	95 30       	cpi	r25, 0x05	; 5
    2130:	41 f4       	brne	.+16     	;  0x2142
    2132:	80 91 e8 00 	lds	r24, 0x00E8
    2136:	80 ff       	sbrs	r24, 0
    2138:	fc cf       	rjmp	.-8      	;  0x2132
    213a:	20 68       	ori	r18, 0x80	; 128
    213c:	20 93 e3 00 	sts	0x00E3, r18
    2140:	ce c0       	rjmp	.+412    	;  0x22de
    2142:	96 30       	cpi	r25, 0x06	; 6
    2144:	09 f0       	breq	.+2      	;  0x2148
    2146:	8c c0       	rjmp	.+280    	;  0x2260
    2148:	eb 8c       	ldd	r14, Y+27	; 0x1b
    214a:	fc 8c       	ldd	r15, Y+28	; 0x1c
    214c:	12 30       	cpi	r17, 0x02	; 2
    214e:	69 f5       	brne	.+90     	;  0x21aa
    2150:	80 e0       	ldi	r24, 0x00	; 0
    2152:	90 e0       	ldi	r25, 0x00	; 0
    2154:	0e 94 29 0e 	call	0x1c52	;  0x1c52
    2158:	0e 94 18 10 	call	0x2030	;  0x2030
    215c:	99 e0       	ldi	r25, 0x09	; 9
    215e:	9e 01       	movw	r18, r28
    2160:	2f 5f       	subi	r18, 0xFF	; 255
    2162:	3f 4f       	sbci	r19, 0xFF	; 255
    2164:	69 01       	movw	r12, r18
    2166:	f9 01       	movw	r30, r18
    2168:	29 2f       	mov	r18, r25
    216a:	11 92       	st	Z+, r1
    216c:	2a 95       	dec	r18
    216e:	e9 f7       	brne	.-6      	;  0x216a
    2170:	99 83       	std	Y+1, r25	; 0x01
    2172:	1a 83       	std	Y+2, r17	; 0x02
    2174:	91 e0       	ldi	r25, 0x01	; 1
    2176:	9e 83       	std	Y+6, r25	; 0x06
    2178:	90 ea       	ldi	r25, 0xA0	; 160
    217a:	98 87       	std	Y+8, r25	; 0x08
    217c:	9a ef       	ldi	r25, 0xFA	; 250
    217e:	99 87       	std	Y+9, r25	; 0x09
    2180:	20 91 78 03 	lds	r18, 0x0378
    2184:	30 91 79 03 	lds	r19, 0x0379
    2188:	27 5f       	subi	r18, 0xF7	; 247
    218a:	3f 4f       	sbci	r19, 0xFF	; 255
    218c:	3c 83       	std	Y+4, r19	; 0x04
    218e:	2b 83       	std	Y+3, r18	; 0x03
    2190:	8d 83       	std	Y+5, r24	; 0x05
    2192:	c7 01       	movw	r24, r14
    2194:	0e 94 29 0e 	call	0x1c52	;  0x1c52
    2198:	49 e0       	ldi	r20, 0x09	; 9
    219a:	50 e0       	ldi	r21, 0x00	; 0
    219c:	b6 01       	movw	r22, r12
    219e:	80 e0       	ldi	r24, 0x00	; 0
    21a0:	0e 94 34 0e 	call	0x1c68	;  0x1c68
    21a4:	0e 94 18 10 	call	0x2030	;  0x2030
    21a8:	9a c0       	rjmp	.+308    	;  0x22de
    21aa:	c7 01       	movw	r24, r14
    21ac:	0e 94 29 0e 	call	0x1c52	;  0x1c52
    21b0:	0e 94 04 10 	call	0x2008	;  0x2008
    21b4:	be 01       	movw	r22, r28
    21b6:	6b 5e       	subi	r22, 0xEB	; 235
    21b8:	7f 4f       	sbci	r23, 0xFF	; 255
    21ba:	0e 94 61 0f 	call	0x1ec2	;  0x1ec2
    21be:	00 97       	sbiw	r24, 0x00	; 0
    21c0:	19 f0       	breq	.+6      	;  0x21c8
    21c2:	0c f0       	brlt	.+2      	;  0x21c6
    21c4:	8c c0       	rjmp	.+280    	;  0x22de
    21c6:	8f c0       	rjmp	.+286    	;  0x22e6
    21c8:	11 30       	cpi	r17, 0x01	; 1
    21ca:	71 f4       	brne	.+28     	;  0x21e8
    21cc:	8b 8d       	ldd	r24, Y+27	; 0x1b
    21ce:	9c 8d       	ldd	r25, Y+28	; 0x1c
    21d0:	08 97       	sbiw	r24, 0x08	; 8
    21d2:	19 f4       	brne	.+6      	;  0x21da
    21d4:	81 e0       	ldi	r24, 0x01	; 1
    21d6:	80 93 75 03 	sts	0x0375, r24
    21da:	80 91 75 03 	lds	r24, 0x0375
    21de:	81 11       	cpse	r24, r1
    21e0:	2f c0       	rjmp	.+94     	;  0x2240
    21e2:	63 e6       	ldi	r22, 0x63	; 99
    21e4:	71 e0       	ldi	r23, 0x01	; 1
    21e6:	31 c0       	rjmp	.+98     	;  0x224a
    21e8:	13 30       	cpi	r17, 0x03	; 3
    21ea:	09 f0       	breq	.+2      	;  0x21ee
    21ec:	7c c0       	rjmp	.+248    	;  0x22e6
    21ee:	8f 89       	ldd	r24, Y+23	; 0x17
    21f0:	88 23       	and	r24, r24
    21f2:	49 f1       	breq	.+82     	;  0x2246
    21f4:	82 30       	cpi	r24, 0x02	; 2
    21f6:	29 f4       	brne	.+10     	;  0x2202
    21f8:	40 e8       	ldi	r20, 0x80	; 128
    21fa:	6c e0       	ldi	r22, 0x0C	; 12
    21fc:	8e e7       	ldi	r24, 0x7E	; 126
    21fe:	91 e0       	ldi	r25, 0x01	; 1
    2200:	06 c0       	rjmp	.+12     	;  0x220e
    2202:	81 30       	cpi	r24, 0x01	; 1
    2204:	39 f4       	brne	.+14     	;  0x2214
    2206:	40 e8       	ldi	r20, 0x80	; 128
    2208:	68 e0       	ldi	r22, 0x08	; 8
    220a:	85 e7       	ldi	r24, 0x75	; 117
    220c:	91 e0       	ldi	r25, 0x01	; 1
    220e:	0e 94 ad 0c 	call	0x195a	;  0x195a
    2212:	63 c0       	rjmp	.+198    	;  0x22da
    2214:	83 30       	cpi	r24, 0x03	; 3
    2216:	09 f0       	breq	.+2      	;  0x221a
    2218:	66 c0       	rjmp	.+204    	;  0x22e6
    221a:	0e 94 04 10 	call	0x2008	;  0x2008
    221e:	8e 01       	movw	r16, r28
    2220:	0f 5f       	subi	r16, 0xFF	; 255
    2222:	1f 4f       	sbci	r17, 0xFF	; 255
    2224:	b8 01       	movw	r22, r16
    2226:	0e 94 80 0f 	call	0x1f00	;  0x1f00
    222a:	f8 01       	movw	r30, r16
    222c:	01 90       	ld	r0, Z+
    222e:	00 20       	and	r0, r0
    2230:	e9 f7       	brne	.-6      	;  0x222c
    2232:	31 97       	sbiw	r30, 0x01	; 1
    2234:	bf 01       	movw	r22, r30
    2236:	60 1b       	sub	r22, r16
    2238:	71 0b       	sbc	r23, r17
    223a:	40 e0       	ldi	r20, 0x00	; 0
    223c:	c8 01       	movw	r24, r16
    223e:	e7 cf       	rjmp	.-50     	;  0x220e
    2240:	61 e5       	ldi	r22, 0x51	; 81
    2242:	71 e0       	ldi	r23, 0x01	; 1
    2244:	02 c0       	rjmp	.+4      	;  0x224a
    2246:	6b e8       	ldi	r22, 0x8B	; 139
    2248:	71 e0       	ldi	r23, 0x01	; 1
    224a:	61 15       	cp	r22, r1
    224c:	71 05       	cpc	r23, r1
    224e:	09 f4       	brne	.+2      	;  0x2252
    2250:	4a c0       	rjmp	.+148    	;  0x22e6
    2252:	fb 01       	movw	r30, r22
    2254:	44 91       	lpm	r20, Z
    2256:	50 e0       	ldi	r21, 0x00	; 0
    2258:	80 e8       	ldi	r24, 0x80	; 128
    225a:	0e 94 34 0e 	call	0x1c68	;  0x1c68
    225e:	3f c0       	rjmp	.+126    	;  0x22de
    2260:	97 30       	cpi	r25, 0x07	; 7
    2262:	09 f4       	brne	.+2      	;  0x2266
    2264:	40 c0       	rjmp	.+128    	;  0x22e6
    2266:	98 30       	cpi	r25, 0x08	; 8
    2268:	21 f4       	brne	.+8      	;  0x2272
    226a:	81 e0       	ldi	r24, 0x01	; 1
    226c:	80 93 f1 00 	sts	0x00F1, r24
    2270:	36 c0       	rjmp	.+108    	;  0x22de
    2272:	99 30       	cpi	r25, 0x09	; 9
    2274:	a1 f5       	brne	.+104    	;  0x22de
    2276:	83 70       	andi	r24, 0x03	; 3
    2278:	b1 f5       	brne	.+108    	;  0x22e6
    227a:	e6 e1       	ldi	r30, 0x16	; 22
    227c:	f1 e0       	ldi	r31, 0x01	; 1
    227e:	81 e0       	ldi	r24, 0x01	; 1
    2280:	21 e0       	ldi	r18, 0x01	; 1
    2282:	36 e3       	ldi	r19, 0x36	; 54
    2284:	90 81       	ld	r25, Z
    2286:	99 23       	and	r25, r25
    2288:	61 f0       	breq	.+24     	;  0x22a2
    228a:	80 93 e9 00 	sts	0x00E9, r24
    228e:	20 93 eb 00 	sts	0x00EB, r18
    2292:	91 91       	ld	r25, Z+
    2294:	90 93 ec 00 	sts	0x00EC, r25
    2298:	30 93 ed 00 	sts	0x00ED, r19
    229c:	8f 5f       	subi	r24, 0xFF	; 255
    229e:	87 30       	cpi	r24, 0x07	; 7
    22a0:	89 f7       	brne	.-30     	;  0x2284
    22a2:	8e e7       	ldi	r24, 0x7E	; 126
    22a4:	80 93 ea 00 	sts	0x00EA, r24
    22a8:	10 92 ea 00 	sts	0x00EA, r1
    22ac:	8f 89       	ldd	r24, Y+23	; 0x17
    22ae:	80 93 7c 03 	sts	0x037C, r24
    22b2:	15 c0       	rjmp	.+42     	;  0x22de
    22b4:	8b 8d       	ldd	r24, Y+27	; 0x1b
    22b6:	9c 8d       	ldd	r25, Y+28	; 0x1c
    22b8:	0e 94 29 0e 	call	0x1c52	;  0x1c52
    22bc:	89 8d       	ldd	r24, Y+25	; 0x19
    22be:	81 11       	cpse	r24, r1
    22c0:	05 c0       	rjmp	.+10     	;  0x22cc
    22c2:	ce 01       	movw	r24, r28
    22c4:	45 96       	adiw	r24, 0x15	; 21
    22c6:	0e 94 f7 08 	call	0x11ee	;  0x11ee
    22ca:	07 c0       	rjmp	.+14     	;  0x22da
    22cc:	0e 94 04 10 	call	0x2008	;  0x2008
    22d0:	be 01       	movw	r22, r28
    22d2:	6b 5e       	subi	r22, 0xEB	; 235
    22d4:	7f 4f       	sbci	r23, 0xFF	; 255
    22d6:	0e 94 9f 0f 	call	0x1f3e	;  0x1f3e
    22da:	88 23       	and	r24, r24
    22dc:	21 f0       	breq	.+8      	;  0x22e6
    22de:	8e ef       	ldi	r24, 0xFE	; 254
    22e0:	80 93 e8 00 	sts	0x00E8, r24
    22e4:	03 c0       	rjmp	.+6      	;  0x22ec
    22e6:	81 e2       	ldi	r24, 0x21	; 33
    22e8:	80 93 eb 00 	sts	0x00EB, r24
    22ec:	6c 96       	adiw	r28, 0x1c	; 28
    22ee:	0f b6       	in	r0, 0x3f	; 63
    22f0:	f8 94       	cli
    22f2:	de bf       	out	0x3e, r29	; 62
    22f4:	0f be       	out	0x3f, r0	; 63
    22f6:	cd bf       	out	0x3d, r28	; 61
    22f8:	df 91       	pop	r29
    22fa:	cf 91       	pop	r28
    22fc:	ff 91       	pop	r31
    22fe:	ef 91       	pop	r30
    2300:	bf 91       	pop	r27
    2302:	af 91       	pop	r26
    2304:	9f 91       	pop	r25
    2306:	8f 91       	pop	r24
    2308:	7f 91       	pop	r23
    230a:	6f 91       	pop	r22
    230c:	5f 91       	pop	r21
    230e:	4f 91       	pop	r20
    2310:	3f 91       	pop	r19
    2312:	2f 91       	pop	r18
    2314:	1f 91       	pop	r17
    2316:	0f 91       	pop	r16
    2318:	ff 90       	pop	r15
    231a:	ef 90       	pop	r14
    231c:	df 90       	pop	r13
    231e:	cf 90       	pop	r12
    2320:	0f 90       	pop	r0
    2322:	0f be       	out	0x3f, r0	; 63
    2324:	0f 90       	pop	r0
    2326:	1f 90       	pop	r1
    2328:	18 95       	reti
    232a:	08 95       	ret
    232c:	1f 92       	push	r1
    232e:	0f 92       	push	r0
    2330:	0f b6       	in	r0, 0x3f	; 63
    2332:	0f 92       	push	r0
    2334:	11 24       	eor	r1, r1
    2336:	2f 93       	push	r18
    2338:	3f 93       	push	r19
    233a:	4f 93       	push	r20
    233c:	5f 93       	push	r21
    233e:	6f 93       	push	r22
    2340:	7f 93       	push	r23
    2342:	8f 93       	push	r24
    2344:	9f 93       	push	r25
    2346:	af 93       	push	r26
    2348:	bf 93       	push	r27
    234a:	ef 93       	push	r30
    234c:	ff 93       	push	r31
    234e:	e0 91 1c 01 	lds	r30, 0x011C
    2352:	f0 91 1d 01 	lds	r31, 0x011D
    2356:	09 95       	icall
    2358:	ff 91       	pop	r31
    235a:	ef 91       	pop	r30
    235c:	bf 91       	pop	r27
    235e:	af 91       	pop	r26
    2360:	9f 91       	pop	r25
    2362:	8f 91       	pop	r24
    2364:	7f 91       	pop	r23
    2366:	6f 91       	pop	r22
    2368:	5f 91       	pop	r21
    236a:	4f 91       	pop	r20
    236c:	3f 91       	pop	r19
    236e:	2f 91       	pop	r18
    2370:	0f 90       	pop	r0
    2372:	0f be       	out	0x3f, r0	; 63
    2374:	0f 90       	pop	r0
    2376:	1f 90       	pop	r1
    2378:	18 95       	reti
    237a:	1f 92       	push	r1
    237c:	0f 92       	push	r0
    237e:	0f b6       	in	r0, 0x3f	; 63
    2380:	0f 92       	push	r0
    2382:	11 24       	eor	r1, r1
    2384:	2f 93       	push	r18
    2386:	3f 93       	push	r19
    2388:	4f 93       	push	r20
    238a:	5f 93       	push	r21
    238c:	6f 93       	push	r22
    238e:	7f 93       	push	r23
    2390:	8f 93       	push	r24
    2392:	9f 93       	push	r25
    2394:	af 93       	push	r26
    2396:	bf 93       	push	r27
    2398:	ef 93       	push	r30
    239a:	ff 93       	push	r31
    239c:	e0 91 1e 01 	lds	r30, 0x011E
    23a0:	f0 91 1f 01 	lds	r31, 0x011F
    23a4:	09 95       	icall
    23a6:	ff 91       	pop	r31
    23a8:	ef 91       	pop	r30
    23aa:	bf 91       	pop	r27
    23ac:	af 91       	pop	r26
    23ae:	9f 91       	pop	r25
    23b0:	8f 91       	pop	r24
    23b2:	7f 91       	pop	r23
    23b4:	6f 91       	pop	r22
    23b6:	5f 91       	pop	r21
    23b8:	4f 91       	pop	r20
    23ba:	3f 91       	pop	r19
    23bc:	2f 91       	pop	r18
    23be:	0f 90       	pop	r0
    23c0:	0f be       	out	0x3f, r0	; 63
    23c2:	0f 90       	pop	r0
    23c4:	1f 90       	pop	r1
    23c6:	18 95       	reti
    23c8:	1f 92       	push	r1
    23ca:	0f 92       	push	r0
    23cc:	0f b6       	in	r0, 0x3f	; 63
    23ce:	0f 92       	push	r0
    23d0:	11 24       	eor	r1, r1
    23d2:	2f 93       	push	r18
    23d4:	3f 93       	push	r19
    23d6:	4f 93       	push	r20
    23d8:	5f 93       	push	r21
    23da:	6f 93       	push	r22
    23dc:	7f 93       	push	r23
    23de:	8f 93       	push	r24
    23e0:	9f 93       	push	r25
    23e2:	af 93       	push	r26
    23e4:	bf 93       	push	r27
    23e6:	ef 93       	push	r30
    23e8:	ff 93       	push	r31
    23ea:	e0 91 20 01 	lds	r30, 0x0120
    23ee:	f0 91 21 01 	lds	r31, 0x0121
    23f2:	09 95       	icall
    23f4:	ff 91       	pop	r31
    23f6:	ef 91       	pop	r30
    23f8:	bf 91       	pop	r27
    23fa:	af 91       	pop	r26
    23fc:	9f 91       	pop	r25
    23fe:	8f 91       	pop	r24
    2400:	7f 91       	pop	r23
    2402:	6f 91       	pop	r22
    2404:	5f 91       	pop	r21
    2406:	4f 91       	pop	r20
    2408:	3f 91       	pop	r19
    240a:	2f 91       	pop	r18
    240c:	0f 90       	pop	r0
    240e:	0f be       	out	0x3f, r0	; 63
    2410:	0f 90       	pop	r0
    2412:	1f 90       	pop	r1
    2414:	18 95       	reti
    2416:	1f 92       	push	r1
    2418:	0f 92       	push	r0
    241a:	0f b6       	in	r0, 0x3f	; 63
    241c:	0f 92       	push	r0
    241e:	11 24       	eor	r1, r1
    2420:	2f 93       	push	r18
    2422:	3f 93       	push	r19
    2424:	4f 93       	push	r20
    2426:	5f 93       	push	r21
    2428:	6f 93       	push	r22
    242a:	7f 93       	push	r23
    242c:	8f 93       	push	r24
    242e:	9f 93       	push	r25
    2430:	af 93       	push	r26
    2432:	bf 93       	push	r27
    2434:	ef 93       	push	r30
    2436:	ff 93       	push	r31
    2438:	e0 91 22 01 	lds	r30, 0x0122
    243c:	f0 91 23 01 	lds	r31, 0x0123
    2440:	09 95       	icall
    2442:	ff 91       	pop	r31
    2444:	ef 91       	pop	r30
    2446:	bf 91       	pop	r27
    2448:	af 91       	pop	r26
    244a:	9f 91       	pop	r25
    244c:	8f 91       	pop	r24
    244e:	7f 91       	pop	r23
    2450:	6f 91       	pop	r22
    2452:	5f 91       	pop	r21
    2454:	4f 91       	pop	r20
    2456:	3f 91       	pop	r19
    2458:	2f 91       	pop	r18
    245a:	0f 90       	pop	r0
    245c:	0f be       	out	0x3f, r0	; 63
    245e:	0f 90       	pop	r0
    2460:	1f 90       	pop	r1
    2462:	18 95       	reti
    2464:	1f 92       	push	r1
    2466:	0f 92       	push	r0
    2468:	0f b6       	in	r0, 0x3f	; 63
    246a:	0f 92       	push	r0
    246c:	11 24       	eor	r1, r1
    246e:	2f 93       	push	r18
    2470:	3f 93       	push	r19
    2472:	4f 93       	push	r20
    2474:	5f 93       	push	r21
    2476:	6f 93       	push	r22
    2478:	7f 93       	push	r23
    247a:	8f 93       	push	r24
    247c:	9f 93       	push	r25
    247e:	af 93       	push	r26
    2480:	bf 93       	push	r27
    2482:	ef 93       	push	r30
    2484:	ff 93       	push	r31
    2486:	e0 91 24 01 	lds	r30, 0x0124
    248a:	f0 91 25 01 	lds	r31, 0x0125
    248e:	09 95       	icall
    2490:	ff 91       	pop	r31
    2492:	ef 91       	pop	r30
    2494:	bf 91       	pop	r27
    2496:	af 91       	pop	r26
    2498:	9f 91       	pop	r25
    249a:	8f 91       	pop	r24
    249c:	7f 91       	pop	r23
    249e:	6f 91       	pop	r22
    24a0:	5f 91       	pop	r21
    24a2:	4f 91       	pop	r20
    24a4:	3f 91       	pop	r19
    24a6:	2f 91       	pop	r18
    24a8:	0f 90       	pop	r0
    24aa:	0f be       	out	0x3f, r0	; 63
    24ac:	0f 90       	pop	r0
    24ae:	1f 90       	pop	r1
    24b0:	18 95       	reti
    24b2:	1f 92       	push	r1
    24b4:	0f 92       	push	r0
    24b6:	0f b6       	in	r0, 0x3f	; 63
    24b8:	0f 92       	push	r0
    24ba:	11 24       	eor	r1, r1
    24bc:	2f 93       	push	r18
    24be:	3f 93       	push	r19
    24c0:	8f 93       	push	r24
    24c2:	9f 93       	push	r25
    24c4:	af 93       	push	r26
    24c6:	bf 93       	push	r27
    24c8:	80 91 80 03 	lds	r24, 0x0380
    24cc:	90 91 81 03 	lds	r25, 0x0381
    24d0:	a0 91 82 03 	lds	r26, 0x0382
    24d4:	b0 91 83 03 	lds	r27, 0x0383
    24d8:	30 91 7f 03 	lds	r19, 0x037F
    24dc:	23 e0       	ldi	r18, 0x03	; 3
    24de:	23 0f       	add	r18, r19
    24e0:	2d 37       	cpi	r18, 0x7D	; 125
    24e2:	20 f4       	brcc	.+8      	;  0x24ec
    24e4:	01 96       	adiw	r24, 0x01	; 1
    24e6:	a1 1d       	adc	r26, r1
    24e8:	b1 1d       	adc	r27, r1
    24ea:	05 c0       	rjmp	.+10     	;  0x24f6
    24ec:	26 e8       	ldi	r18, 0x86	; 134
    24ee:	23 0f       	add	r18, r19
    24f0:	02 96       	adiw	r24, 0x02	; 2
    24f2:	a1 1d       	adc	r26, r1
    24f4:	b1 1d       	adc	r27, r1
    24f6:	20 93 7f 03 	sts	0x037F, r18
    24fa:	80 93 80 03 	sts	0x0380, r24
    24fe:	90 93 81 03 	sts	0x0381, r25
    2502:	a0 93 82 03 	sts	0x0382, r26
    2506:	b0 93 83 03 	sts	0x0383, r27
    250a:	80 91 84 03 	lds	r24, 0x0384
    250e:	90 91 85 03 	lds	r25, 0x0385
    2512:	a0 91 86 03 	lds	r26, 0x0386
    2516:	b0 91 87 03 	lds	r27, 0x0387
    251a:	01 96       	adiw	r24, 0x01	; 1
    251c:	a1 1d       	adc	r26, r1
    251e:	b1 1d       	adc	r27, r1
    2520:	80 93 84 03 	sts	0x0384, r24
    2524:	90 93 85 03 	sts	0x0385, r25
    2528:	a0 93 86 03 	sts	0x0386, r26
    252c:	b0 93 87 03 	sts	0x0387, r27
    2530:	bf 91       	pop	r27
    2532:	af 91       	pop	r26
    2534:	9f 91       	pop	r25
    2536:	8f 91       	pop	r24
    2538:	3f 91       	pop	r19
    253a:	2f 91       	pop	r18
    253c:	0f 90       	pop	r0
    253e:	0f be       	out	0x3f, r0	; 63
    2540:	0f 90       	pop	r0
    2542:	1f 90       	pop	r1
    2544:	18 95       	reti
    2546:	3f b7       	in	r19, 0x3f	; 63
    2548:	f8 94       	cli
    254a:	80 91 84 03 	lds	r24, 0x0384
    254e:	90 91 85 03 	lds	r25, 0x0385
    2552:	a0 91 86 03 	lds	r26, 0x0386
    2556:	b0 91 87 03 	lds	r27, 0x0387
    255a:	26 b5       	in	r18, 0x26	; 38
    255c:	a8 9b       	sbis	0x15, 0	; 21
    255e:	05 c0       	rjmp	.+10     	;  0x256a
    2560:	2f 3f       	cpi	r18, 0xFF	; 255
    2562:	19 f0       	breq	.+6      	;  0x256a
    2564:	01 96       	adiw	r24, 0x01	; 1
    2566:	a1 1d       	adc	r26, r1
    2568:	b1 1d       	adc	r27, r1
    256a:	3f bf       	out	0x3f, r19	; 63
    256c:	ba 2f       	mov	r27, r26
    256e:	a9 2f       	mov	r26, r25
    2570:	98 2f       	mov	r25, r24
    2572:	88 27       	eor	r24, r24
    2574:	82 0f       	add	r24, r18
    2576:	91 1d       	adc	r25, r1
    2578:	a1 1d       	adc	r26, r1
    257a:	b1 1d       	adc	r27, r1
    257c:	bc 01       	movw	r22, r24
    257e:	cd 01       	movw	r24, r26
    2580:	42 e0       	ldi	r20, 0x02	; 2
    2582:	66 0f       	add	r22, r22
    2584:	77 1f       	adc	r23, r23
    2586:	88 1f       	adc	r24, r24
    2588:	99 1f       	adc	r25, r25
    258a:	4a 95       	dec	r20
    258c:	d1 f7       	brne	.-12     	;  0x2582
    258e:	08 95       	ret
    2590:	8f 92       	push	r8
    2592:	9f 92       	push	r9
    2594:	af 92       	push	r10
    2596:	bf 92       	push	r11
    2598:	cf 92       	push	r12
    259a:	df 92       	push	r13
    259c:	ef 92       	push	r14
    259e:	ff 92       	push	r15
    25a0:	6b 01       	movw	r12, r22
    25a2:	7c 01       	movw	r14, r24
    25a4:	0e 94 a3 12 	call	0x2546	;  0x2546
    25a8:	4b 01       	movw	r8, r22
    25aa:	5c 01       	movw	r10, r24
    25ac:	c1 14       	cp	r12, r1
    25ae:	d1 04       	cpc	r13, r1
    25b0:	e1 04       	cpc	r14, r1
    25b2:	f1 04       	cpc	r15, r1
    25b4:	01 f1       	breq	.+64     	;  0x25f6
    25b6:	0e 94 47 0b 	call	0x168e	;  0x168e
    25ba:	0e 94 a3 12 	call	0x2546	;  0x2546
    25be:	dc 01       	movw	r26, r24
    25c0:	cb 01       	movw	r24, r22
    25c2:	88 19       	sub	r24, r8
    25c4:	99 09       	sbc	r25, r9
    25c6:	aa 09       	sbc	r26, r10
    25c8:	bb 09       	sbc	r27, r11
    25ca:	88 3e       	cpi	r24, 0xE8	; 232
    25cc:	93 40       	sbci	r25, 0x03	; 3
    25ce:	a1 05       	cpc	r26, r1
    25d0:	b1 05       	cpc	r27, r1
    25d2:	60 f3       	brcs	.-40     	;  0x25ac
    25d4:	21 e0       	ldi	r18, 0x01	; 1
    25d6:	c2 1a       	sub	r12, r18
    25d8:	d1 08       	sbc	r13, r1
    25da:	e1 08       	sbc	r14, r1
    25dc:	f1 08       	sbc	r15, r1
    25de:	88 ee       	ldi	r24, 0xE8	; 232
    25e0:	88 0e       	add	r8, r24
    25e2:	83 e0       	ldi	r24, 0x03	; 3
    25e4:	98 1e       	adc	r9, r24
    25e6:	a1 1c       	adc	r10, r1
    25e8:	b1 1c       	adc	r11, r1
    25ea:	c1 14       	cp	r12, r1
    25ec:	d1 04       	cpc	r13, r1
    25ee:	e1 04       	cpc	r14, r1
    25f0:	f1 04       	cpc	r15, r1
    25f2:	19 f7       	brne	.-58     	;  0x25ba
    25f4:	db cf       	rjmp	.-74     	;  0x25ac
    25f6:	ff 90       	pop	r15
    25f8:	ef 90       	pop	r14
    25fa:	df 90       	pop	r13
    25fc:	cf 90       	pop	r12
    25fe:	bf 90       	pop	r11
    2600:	af 90       	pop	r10
    2602:	9f 90       	pop	r9
    2604:	8f 90       	pop	r8
    2606:	08 95       	ret
    2608:	82 30       	cpi	r24, 0x02	; 2
    260a:	91 05       	cpc	r25, r1
    260c:	38 f0       	brcs	.+14     	;  0x261c
    260e:	88 0f       	add	r24, r24
    2610:	99 1f       	adc	r25, r25
    2612:	88 0f       	add	r24, r24
    2614:	99 1f       	adc	r25, r25
    2616:	05 97       	sbiw	r24, 0x05	; 5
    2618:	01 97       	sbiw	r24, 0x01	; 1
    261a:	f1 f7       	brne	.-4      	;  0x2618
    261c:	08 95       	ret
    261e:	78 94       	sei
    2620:	84 b5       	in	r24, 0x24	; 36
    2622:	82 60       	ori	r24, 0x02	; 2
    2624:	84 bd       	out	0x24, r24	; 36
    2626:	84 b5       	in	r24, 0x24	; 36
    2628:	81 60       	ori	r24, 0x01	; 1
    262a:	84 bd       	out	0x24, r24	; 36
    262c:	85 b5       	in	r24, 0x25	; 37
    262e:	82 60       	ori	r24, 0x02	; 2
    2630:	85 bd       	out	0x25, r24	; 37
    2632:	85 b5       	in	r24, 0x25	; 37
    2634:	81 60       	ori	r24, 0x01	; 1
    2636:	85 bd       	out	0x25, r24	; 37
    2638:	ee e6       	ldi	r30, 0x6E	; 110
    263a:	f0 e0       	ldi	r31, 0x00	; 0
    263c:	80 81       	ld	r24, Z
    263e:	81 60       	ori	r24, 0x01	; 1
    2640:	80 83       	st	Z, r24
    2642:	e1 e8       	ldi	r30, 0x81	; 129
    2644:	f0 e0       	ldi	r31, 0x00	; 0
    2646:	10 82       	st	Z, r1
    2648:	80 81       	ld	r24, Z
    264a:	82 60       	ori	r24, 0x02	; 2
    264c:	80 83       	st	Z, r24
    264e:	80 81       	ld	r24, Z
    2650:	81 60       	ori	r24, 0x01	; 1
    2652:	80 83       	st	Z, r24
    2654:	e0 e8       	ldi	r30, 0x80	; 128
    2656:	f0 e0       	ldi	r31, 0x00	; 0
    2658:	80 81       	ld	r24, Z
    265a:	81 60       	ori	r24, 0x01	; 1
    265c:	80 83       	st	Z, r24
    265e:	e1 e9       	ldi	r30, 0x91	; 145
    2660:	f0 e0       	ldi	r31, 0x00	; 0
    2662:	80 81       	ld	r24, Z
    2664:	82 60       	ori	r24, 0x02	; 2
    2666:	80 83       	st	Z, r24
    2668:	80 81       	ld	r24, Z
    266a:	81 60       	ori	r24, 0x01	; 1
    266c:	80 83       	st	Z, r24
    266e:	e0 e9       	ldi	r30, 0x90	; 144
    2670:	f0 e0       	ldi	r31, 0x00	; 0
    2672:	80 81       	ld	r24, Z
    2674:	81 60       	ori	r24, 0x01	; 1
    2676:	80 83       	st	Z, r24
    2678:	e1 ec       	ldi	r30, 0xC1	; 193
    267a:	f0 e0       	ldi	r31, 0x00	; 0
    267c:	80 81       	ld	r24, Z
    267e:	84 60       	ori	r24, 0x04	; 4
    2680:	80 83       	st	Z, r24
    2682:	80 81       	ld	r24, Z
    2684:	82 60       	ori	r24, 0x02	; 2
    2686:	80 83       	st	Z, r24
    2688:	80 81       	ld	r24, Z
    268a:	81 60       	ori	r24, 0x01	; 1
    268c:	80 83       	st	Z, r24
    268e:	e3 ec       	ldi	r30, 0xC3	; 195
    2690:	f0 e0       	ldi	r31, 0x00	; 0
    2692:	80 81       	ld	r24, Z
    2694:	81 60       	ori	r24, 0x01	; 1
    2696:	80 83       	st	Z, r24
    2698:	e0 ec       	ldi	r30, 0xC0	; 192
    269a:	f0 e0       	ldi	r31, 0x00	; 0
    269c:	80 81       	ld	r24, Z
    269e:	82 60       	ori	r24, 0x02	; 2
    26a0:	80 83       	st	Z, r24
    26a2:	e2 ec       	ldi	r30, 0xC2	; 194
    26a4:	f0 e0       	ldi	r31, 0x00	; 0
    26a6:	80 81       	ld	r24, Z
    26a8:	81 60       	ori	r24, 0x01	; 1
    26aa:	80 83       	st	Z, r24
    26ac:	ea e7       	ldi	r30, 0x7A	; 122
    26ae:	f0 e0       	ldi	r31, 0x00	; 0
    26b0:	80 81       	ld	r24, Z
    26b2:	84 60       	ori	r24, 0x04	; 4
    26b4:	80 83       	st	Z, r24
    26b6:	80 81       	ld	r24, Z
    26b8:	82 60       	ori	r24, 0x02	; 2
    26ba:	80 83       	st	Z, r24
    26bc:	80 81       	ld	r24, Z
    26be:	81 60       	ori	r24, 0x01	; 1
    26c0:	80 83       	st	Z, r24
    26c2:	80 81       	ld	r24, Z
    26c4:	80 68       	ori	r24, 0x80	; 128
    26c6:	80 83       	st	Z, r24
    26c8:	08 95       	ret
    26ca:	90 e0       	ldi	r25, 0x00	; 0
    26cc:	fc 01       	movw	r30, r24
    26ce:	31 97       	sbiw	r30, 0x01	; 1
    26d0:	ef 30       	cpi	r30, 0x0F	; 15
    26d2:	f1 05       	cpc	r31, r1
    26d4:	b0 f5       	brcc	.+108    	;  0x2742
    26d6:	ea 5a       	subi	r30, 0xAA	; 170
    26d8:	ff 4f       	sbci	r31, 0xFF	; 255
    26da:	0c 94 53 25 	jmp	0x4aa6	;  0x4aa6
    26de:	80 91 80 00 	lds	r24, 0x0080
    26e2:	8f 77       	andi	r24, 0x7F	; 127
    26e4:	03 c0       	rjmp	.+6      	;  0x26ec
    26e6:	80 91 80 00 	lds	r24, 0x0080
    26ea:	8f 7d       	andi	r24, 0xDF	; 223
    26ec:	80 93 80 00 	sts	0x0080, r24
    26f0:	08 95       	ret
    26f2:	80 91 80 00 	lds	r24, 0x0080
    26f6:	87 7f       	andi	r24, 0xF7	; 247
    26f8:	f9 cf       	rjmp	.-14     	;  0x26ec
    26fa:	84 b5       	in	r24, 0x24	; 36
    26fc:	8f 77       	andi	r24, 0x7F	; 127
    26fe:	02 c0       	rjmp	.+4      	;  0x2704
    2700:	84 b5       	in	r24, 0x24	; 36
    2702:	8f 7d       	andi	r24, 0xDF	; 223
    2704:	84 bd       	out	0x24, r24	; 36
    2706:	08 95       	ret
    2708:	80 91 90 00 	lds	r24, 0x0090
    270c:	8f 77       	andi	r24, 0x7F	; 127
    270e:	07 c0       	rjmp	.+14     	;  0x271e
    2710:	80 91 90 00 	lds	r24, 0x0090
    2714:	8f 7d       	andi	r24, 0xDF	; 223
    2716:	03 c0       	rjmp	.+6      	;  0x271e
    2718:	80 91 90 00 	lds	r24, 0x0090
    271c:	87 7f       	andi	r24, 0xF7	; 247
    271e:	80 93 90 00 	sts	0x0090, r24
    2722:	08 95       	ret
    2724:	80 91 c0 00 	lds	r24, 0x00C0
    2728:	8f 77       	andi	r24, 0x7F	; 127
    272a:	03 c0       	rjmp	.+6      	;  0x2732
    272c:	80 91 c0 00 	lds	r24, 0x00C0
    2730:	8f 7d       	andi	r24, 0xDF	; 223
    2732:	80 93 c0 00 	sts	0x00C0, r24
    2736:	08 95       	ret
    2738:	80 91 c2 00 	lds	r24, 0x00C2
    273c:	87 7f       	andi	r24, 0xF7	; 247
    273e:	80 93 c2 00 	sts	0x00C2, r24
    2742:	08 95       	ret
    2744:	cf 93       	push	r28
    2746:	df 93       	push	r29
    2748:	90 e0       	ldi	r25, 0x00	; 0
    274a:	fc 01       	movw	r30, r24
    274c:	e3 55       	subi	r30, 0x53	; 83
    274e:	fe 4f       	sbci	r31, 0xFE	; 254
    2750:	24 91       	lpm	r18, Z
    2752:	fc 01       	movw	r30, r24
    2754:	e4 53       	subi	r30, 0x34	; 52
    2756:	fe 4f       	sbci	r31, 0xFE	; 254
    2758:	84 91       	lpm	r24, Z
    275a:	88 23       	and	r24, r24
    275c:	61 f1       	breq	.+88     	;  0x27b6
    275e:	90 e0       	ldi	r25, 0x00	; 0
    2760:	88 0f       	add	r24, r24
    2762:	99 1f       	adc	r25, r25
    2764:	fc 01       	movw	r30, r24
    2766:	e9 5f       	subi	r30, 0xF9	; 249
    2768:	fd 4f       	sbci	r31, 0xFD	; 253
    276a:	c5 91       	lpm	r28, Z+
    276c:	d4 91       	lpm	r29, Z
    276e:	fc 01       	movw	r30, r24
    2770:	e7 50       	subi	r30, 0x07	; 7
    2772:	fe 4f       	sbci	r31, 0xFE	; 254
    2774:	a5 91       	lpm	r26, Z+
    2776:	b4 91       	lpm	r27, Z
    2778:	61 11       	cpse	r22, r1
    277a:	09 c0       	rjmp	.+18     	;  0x278e
    277c:	9f b7       	in	r25, 0x3f	; 63
    277e:	f8 94       	cli
    2780:	88 81       	ld	r24, Y
    2782:	20 95       	com	r18
    2784:	82 23       	and	r24, r18
    2786:	88 83       	st	Y, r24
    2788:	ec 91       	ld	r30, X
    278a:	2e 23       	and	r18, r30
    278c:	0b c0       	rjmp	.+22     	;  0x27a4
    278e:	62 30       	cpi	r22, 0x02	; 2
    2790:	61 f4       	brne	.+24     	;  0x27aa
    2792:	9f b7       	in	r25, 0x3f	; 63
    2794:	f8 94       	cli
    2796:	38 81       	ld	r19, Y
    2798:	82 2f       	mov	r24, r18
    279a:	80 95       	com	r24
    279c:	83 23       	and	r24, r19
    279e:	88 83       	st	Y, r24
    27a0:	ec 91       	ld	r30, X
    27a2:	2e 2b       	or	r18, r30
    27a4:	2c 93       	st	X, r18
    27a6:	9f bf       	out	0x3f, r25	; 63
    27a8:	06 c0       	rjmp	.+12     	;  0x27b6
    27aa:	8f b7       	in	r24, 0x3f	; 63
    27ac:	f8 94       	cli
    27ae:	e8 81       	ld	r30, Y
    27b0:	2e 2b       	or	r18, r30
    27b2:	28 83       	st	Y, r18
    27b4:	8f bf       	out	0x3f, r24	; 63
    27b6:	df 91       	pop	r29
    27b8:	cf 91       	pop	r28
    27ba:	08 95       	ret
    27bc:	1f 93       	push	r17
    27be:	cf 93       	push	r28
    27c0:	df 93       	push	r29
    27c2:	28 2f       	mov	r18, r24
    27c4:	30 e0       	ldi	r19, 0x00	; 0
    27c6:	f9 01       	movw	r30, r18
    27c8:	e1 57       	subi	r30, 0x71	; 113
    27ca:	fe 4f       	sbci	r31, 0xFE	; 254
    27cc:	84 91       	lpm	r24, Z
    27ce:	f9 01       	movw	r30, r18
    27d0:	e3 55       	subi	r30, 0x53	; 83
    27d2:	fe 4f       	sbci	r31, 0xFE	; 254
    27d4:	d4 91       	lpm	r29, Z
    27d6:	f9 01       	movw	r30, r18
    27d8:	e4 53       	subi	r30, 0x34	; 52
    27da:	fe 4f       	sbci	r31, 0xFE	; 254
    27dc:	c4 91       	lpm	r28, Z
    27de:	cc 23       	and	r28, r28
    27e0:	c9 f0       	breq	.+50     	;  0x2814
    27e2:	16 2f       	mov	r17, r22
    27e4:	81 11       	cpse	r24, r1
    27e6:	0e 94 65 13 	call	0x26ca	;  0x26ca
    27ea:	ec 2f       	mov	r30, r28
    27ec:	f0 e0       	ldi	r31, 0x00	; 0
    27ee:	ee 0f       	add	r30, r30
    27f0:	ff 1f       	adc	r31, r31
    27f2:	e7 50       	subi	r30, 0x07	; 7
    27f4:	fe 4f       	sbci	r31, 0xFE	; 254
    27f6:	a5 91       	lpm	r26, Z+
    27f8:	b4 91       	lpm	r27, Z
    27fa:	8f b7       	in	r24, 0x3f	; 63
    27fc:	f8 94       	cli
    27fe:	11 11       	cpse	r17, r1
    2800:	05 c0       	rjmp	.+10     	;  0x280c
    2802:	9c 91       	ld	r25, X
    2804:	ed 2f       	mov	r30, r29
    2806:	e0 95       	com	r30
    2808:	e9 23       	and	r30, r25
    280a:	02 c0       	rjmp	.+4      	;  0x2810
    280c:	ec 91       	ld	r30, X
    280e:	ed 2b       	or	r30, r29
    2810:	ec 93       	st	X, r30
    2812:	8f bf       	out	0x3f, r24	; 63
    2814:	df 91       	pop	r29
    2816:	cf 91       	pop	r28
    2818:	1f 91       	pop	r17
    281a:	08 95       	ret
    281c:	4f 92       	push	r4
    281e:	5f 92       	push	r5
    2820:	6f 92       	push	r6
    2822:	7f 92       	push	r7
    2824:	af 92       	push	r10
    2826:	bf 92       	push	r11
    2828:	cf 92       	push	r12
    282a:	df 92       	push	r13
    282c:	ef 92       	push	r14
    282e:	ff 92       	push	r15
    2830:	0f 93       	push	r16
    2832:	1f 93       	push	r17
    2834:	cf 93       	push	r28
    2836:	df 93       	push	r29
    2838:	cd b7       	in	r28, 0x3d	; 61
    283a:	de b7       	in	r29, 0x3e	; 62
    283c:	29 01       	movw	r4, r18
    283e:	3a 01       	movw	r6, r20
    2840:	9b 01       	movw	r18, r22
    2842:	ac 01       	movw	r20, r24
    2844:	24 19       	sub	r18, r4
    2846:	35 09       	sbc	r19, r5
    2848:	46 09       	sbc	r20, r6
    284a:	57 09       	sbc	r21, r7
    284c:	89 89       	ldd	r24, Y+17	; 0x11
    284e:	9a 89       	ldd	r25, Y+18	; 0x12
    2850:	ab 89       	ldd	r26, Y+19	; 0x13
    2852:	bc 89       	ldd	r27, Y+20	; 0x14
    2854:	bc 01       	movw	r22, r24
    2856:	cd 01       	movw	r24, r26
    2858:	6a 19       	sub	r22, r10
    285a:	7b 09       	sbc	r23, r11
    285c:	8c 09       	sbc	r24, r12
    285e:	9d 09       	sbc	r25, r13
    2860:	0e 94 ce 24 	call	0x499c	;  0x499c
    2864:	a8 01       	movw	r20, r16
    2866:	97 01       	movw	r18, r14
    2868:	24 19       	sub	r18, r4
    286a:	35 09       	sbc	r19, r5
    286c:	46 09       	sbc	r20, r6
    286e:	57 09       	sbc	r21, r7
    2870:	0e 94 34 25 	call	0x4a68	;  0x4a68
    2874:	ca 01       	movw	r24, r20
    2876:	b9 01       	movw	r22, r18
    2878:	6a 0d       	add	r22, r10
    287a:	7b 1d       	adc	r23, r11
    287c:	8c 1d       	adc	r24, r12
    287e:	9d 1d       	adc	r25, r13
    2880:	df 91       	pop	r29
    2882:	cf 91       	pop	r28
    2884:	1f 91       	pop	r17
    2886:	0f 91       	pop	r16
    2888:	ff 90       	pop	r15
    288a:	ef 90       	pop	r14
    288c:	df 90       	pop	r13
    288e:	cf 90       	pop	r12
    2890:	bf 90       	pop	r11
    2892:	af 90       	pop	r10
    2894:	7f 90       	pop	r7
    2896:	6f 90       	pop	r6
    2898:	5f 90       	pop	r5
    289a:	4f 90       	pop	r4
    289c:	08 95       	ret
    289e:	fc 01       	movw	r30, r24
    28a0:	80 81       	ld	r24, Z
    28a2:	91 81       	ldd	r25, Z+1	; 0x01
    28a4:	0c 94 fd 25 	jmp	0x4bfa	;  0x4bfa
    28a8:	cf 93       	push	r28
    28aa:	df 93       	push	r29
    28ac:	ec 01       	movw	r28, r24
    28ae:	88 81       	ld	r24, Y
    28b0:	99 81       	ldd	r25, Y+1	; 0x01
    28b2:	00 97       	sbiw	r24, 0x00	; 0
    28b4:	11 f0       	breq	.+4      	;  0x28ba
    28b6:	0e 94 fd 25 	call	0x4bfa	;  0x4bfa
    28ba:	19 82       	std	Y+1, r1	; 0x01
    28bc:	18 82       	st	Y, r1
    28be:	1d 82       	std	Y+5, r1	; 0x05
    28c0:	1c 82       	std	Y+4, r1	; 0x04
    28c2:	1b 82       	std	Y+3, r1	; 0x03
    28c4:	1a 82       	std	Y+2, r1	; 0x02
    28c6:	df 91       	pop	r29
    28c8:	cf 91       	pop	r28
    28ca:	08 95       	ret
    28cc:	0f 93       	push	r16
    28ce:	1f 93       	push	r17
    28d0:	cf 93       	push	r28
    28d2:	df 93       	push	r29
    28d4:	ec 01       	movw	r28, r24
    28d6:	8b 01       	movw	r16, r22
    28d8:	6f 5f       	subi	r22, 0xFF	; 255
    28da:	7f 4f       	sbci	r23, 0xFF	; 255
    28dc:	88 81       	ld	r24, Y
    28de:	99 81       	ldd	r25, Y+1	; 0x01
    28e0:	0e 94 95 26 	call	0x4d2a	;  0x4d2a
    28e4:	00 97       	sbiw	r24, 0x00	; 0
    28e6:	31 f0       	breq	.+12     	;  0x28f4
    28e8:	99 83       	std	Y+1, r25	; 0x01
    28ea:	88 83       	st	Y, r24
    28ec:	1b 83       	std	Y+3, r17	; 0x03
    28ee:	0a 83       	std	Y+2, r16	; 0x02
    28f0:	81 e0       	ldi	r24, 0x01	; 1
    28f2:	01 c0       	rjmp	.+2      	;  0x28f6
    28f4:	80 e0       	ldi	r24, 0x00	; 0
    28f6:	df 91       	pop	r29
    28f8:	cf 91       	pop	r28
    28fa:	1f 91       	pop	r17
    28fc:	0f 91       	pop	r16
    28fe:	08 95       	ret
    2900:	cf 93       	push	r28
    2902:	df 93       	push	r29
    2904:	ec 01       	movw	r28, r24
    2906:	88 81       	ld	r24, Y
    2908:	99 81       	ldd	r25, Y+1	; 0x01
    290a:	89 2b       	or	r24, r25
    290c:	29 f0       	breq	.+10     	;  0x2918
    290e:	8a 81       	ldd	r24, Y+2	; 0x02
    2910:	9b 81       	ldd	r25, Y+3	; 0x03
    2912:	86 17       	cp	r24, r22
    2914:	97 07       	cpc	r25, r23
    2916:	60 f4       	brcc	.+24     	;  0x2930
    2918:	ce 01       	movw	r24, r28
    291a:	0e 94 66 14 	call	0x28cc	;  0x28cc
    291e:	88 23       	and	r24, r24
    2920:	41 f0       	breq	.+16     	;  0x2932
    2922:	8c 81       	ldd	r24, Y+4	; 0x04
    2924:	9d 81       	ldd	r25, Y+5	; 0x05
    2926:	89 2b       	or	r24, r25
    2928:	19 f4       	brne	.+6      	;  0x2930
    292a:	e8 81       	ld	r30, Y
    292c:	f9 81       	ldd	r31, Y+1	; 0x01
    292e:	10 82       	st	Z, r1
    2930:	81 e0       	ldi	r24, 0x01	; 1
    2932:	df 91       	pop	r29
    2934:	cf 91       	pop	r28
    2936:	08 95       	ret
    2938:	ef 92       	push	r14
    293a:	ff 92       	push	r15
    293c:	0f 93       	push	r16
    293e:	1f 93       	push	r17
    2940:	cf 93       	push	r28
    2942:	df 93       	push	r29
    2944:	ec 01       	movw	r28, r24
    2946:	7b 01       	movw	r14, r22
    2948:	8a 01       	movw	r16, r20
    294a:	ba 01       	movw	r22, r20
    294c:	0e 94 80 14 	call	0x2900	;  0x2900
    2950:	81 11       	cpse	r24, r1
    2952:	04 c0       	rjmp	.+8      	;  0x295c
    2954:	ce 01       	movw	r24, r28
    2956:	0e 94 54 14 	call	0x28a8	;  0x28a8
    295a:	07 c0       	rjmp	.+14     	;  0x296a
    295c:	1d 83       	std	Y+5, r17	; 0x05
    295e:	0c 83       	std	Y+4, r16	; 0x04
    2960:	b7 01       	movw	r22, r14
    2962:	88 81       	ld	r24, Y
    2964:	99 81       	ldd	r25, Y+1	; 0x01
    2966:	0e 94 67 27 	call	0x4ece	;  0x4ece
    296a:	ce 01       	movw	r24, r28
    296c:	df 91       	pop	r29
    296e:	cf 91       	pop	r28
    2970:	1f 91       	pop	r17
    2972:	0f 91       	pop	r16
    2974:	ff 90       	pop	r15
    2976:	ef 90       	pop	r14
    2978:	08 95       	ret
    297a:	fc 01       	movw	r30, r24
    297c:	11 82       	std	Z+1, r1	; 0x01
    297e:	10 82       	st	Z, r1
    2980:	13 82       	std	Z+3, r1	; 0x03
    2982:	12 82       	std	Z+2, r1	; 0x02
    2984:	15 82       	std	Z+5, r1	; 0x05
    2986:	14 82       	std	Z+4, r1	; 0x04
    2988:	61 15       	cp	r22, r1
    298a:	71 05       	cpc	r23, r1
    298c:	51 f0       	breq	.+20     	;  0x29a2
    298e:	fb 01       	movw	r30, r22
    2990:	01 90       	ld	r0, Z+
    2992:	00 20       	and	r0, r0
    2994:	e9 f7       	brne	.-6      	;  0x2990
    2996:	31 97       	sbiw	r30, 0x01	; 1
    2998:	af 01       	movw	r20, r30
    299a:	46 1b       	sub	r20, r22
    299c:	57 0b       	sbc	r21, r23
    299e:	0c 94 9c 14 	jmp	0x2938	;  0x2938
    29a2:	08 95       	ret
    29a4:	cf 93       	push	r28
    29a6:	df 93       	push	r29
    29a8:	ec 01       	movw	r28, r24
    29aa:	fb 01       	movw	r30, r22
    29ac:	86 17       	cp	r24, r22
    29ae:	97 07       	cpc	r25, r23
    29b0:	61 f0       	breq	.+24     	;  0x29ca
    29b2:	60 81       	ld	r22, Z
    29b4:	71 81       	ldd	r23, Z+1	; 0x01
    29b6:	61 15       	cp	r22, r1
    29b8:	71 05       	cpc	r23, r1
    29ba:	29 f0       	breq	.+10     	;  0x29c6
    29bc:	44 81       	ldd	r20, Z+4	; 0x04
    29be:	55 81       	ldd	r21, Z+5	; 0x05
    29c0:	0e 94 9c 14 	call	0x2938	;  0x2938
    29c4:	02 c0       	rjmp	.+4      	;  0x29ca
    29c6:	0e 94 54 14 	call	0x28a8	;  0x28a8
    29ca:	ce 01       	movw	r24, r28
    29cc:	df 91       	pop	r29
    29ce:	cf 91       	pop	r28
    29d0:	08 95       	ret
    29d2:	fc 01       	movw	r30, r24
    29d4:	11 82       	std	Z+1, r1	; 0x01
    29d6:	10 82       	st	Z, r1
    29d8:	13 82       	std	Z+3, r1	; 0x03
    29da:	12 82       	std	Z+2, r1	; 0x02
    29dc:	15 82       	std	Z+5, r1	; 0x05
    29de:	14 82       	std	Z+4, r1	; 0x04
    29e0:	0c 94 d2 14 	jmp	0x29a4	;  0x29a4
    29e4:	cf 93       	push	r28
    29e6:	df 93       	push	r29
    29e8:	ec 01       	movw	r28, r24
    29ea:	61 15       	cp	r22, r1
    29ec:	71 05       	cpc	r23, r1
    29ee:	59 f0       	breq	.+22     	;  0x2a06
    29f0:	fb 01       	movw	r30, r22
    29f2:	01 90       	ld	r0, Z+
    29f4:	00 20       	and	r0, r0
    29f6:	e9 f7       	brne	.-6      	;  0x29f2
    29f8:	31 97       	sbiw	r30, 0x01	; 1
    29fa:	af 01       	movw	r20, r30
    29fc:	46 1b       	sub	r20, r22
    29fe:	57 0b       	sbc	r21, r23
    2a00:	0e 94 9c 14 	call	0x2938	;  0x2938
    2a04:	02 c0       	rjmp	.+4      	;  0x2a0a
    2a06:	0e 94 54 14 	call	0x28a8	;  0x28a8
    2a0a:	ce 01       	movw	r24, r28
    2a0c:	df 91       	pop	r29
    2a0e:	cf 91       	pop	r28
    2a10:	08 95       	ret
    2a12:	cf 93       	push	r28
    2a14:	df 93       	push	r29
    2a16:	00 d0       	rcall	.+0      	;  0x2a18
    2a18:	cd b7       	in	r28, 0x3d	; 61
    2a1a:	de b7       	in	r29, 0x3e	; 62
    2a1c:	fc 01       	movw	r30, r24
    2a1e:	11 82       	std	Z+1, r1	; 0x01
    2a20:	10 82       	st	Z, r1
    2a22:	13 82       	std	Z+3, r1	; 0x03
    2a24:	12 82       	std	Z+2, r1	; 0x02
    2a26:	15 82       	std	Z+5, r1	; 0x05
    2a28:	14 82       	std	Z+4, r1	; 0x04
    2a2a:	69 83       	std	Y+1, r22	; 0x01
    2a2c:	1a 82       	std	Y+2, r1	; 0x02
    2a2e:	be 01       	movw	r22, r28
    2a30:	6f 5f       	subi	r22, 0xFF	; 255
    2a32:	7f 4f       	sbci	r23, 0xFF	; 255
    2a34:	0e 94 f2 14 	call	0x29e4	;  0x29e4
    2a38:	0f 90       	pop	r0
    2a3a:	0f 90       	pop	r0
    2a3c:	df 91       	pop	r29
    2a3e:	cf 91       	pop	r28
    2a40:	08 95       	ret
    2a42:	ef 92       	push	r14
    2a44:	ff 92       	push	r15
    2a46:	0f 93       	push	r16
    2a48:	1f 93       	push	r17
    2a4a:	cf 93       	push	r28
    2a4c:	df 93       	push	r29
    2a4e:	fc 01       	movw	r30, r24
    2a50:	24 81       	ldd	r18, Z+4	; 0x04
    2a52:	35 81       	ldd	r19, Z+5	; 0x05
    2a54:	61 15       	cp	r22, r1
    2a56:	71 05       	cpc	r23, r1
    2a58:	11 f4       	brne	.+4      	;  0x2a5e
    2a5a:	80 e0       	ldi	r24, 0x00	; 0
    2a5c:	19 c0       	rjmp	.+50     	;  0x2a90
    2a5e:	41 15       	cp	r20, r1
    2a60:	51 05       	cpc	r21, r1
    2a62:	a9 f0       	breq	.+42     	;  0x2a8e
    2a64:	7b 01       	movw	r14, r22
    2a66:	ec 01       	movw	r28, r24
    2a68:	8a 01       	movw	r16, r20
    2a6a:	02 0f       	add	r16, r18
    2a6c:	13 1f       	adc	r17, r19
    2a6e:	b8 01       	movw	r22, r16
    2a70:	0e 94 80 14 	call	0x2900	;  0x2900
    2a74:	88 23       	and	r24, r24
    2a76:	89 f3       	breq	.-30     	;  0x2a5a
    2a78:	28 81       	ld	r18, Y
    2a7a:	39 81       	ldd	r19, Y+1	; 0x01
    2a7c:	8c 81       	ldd	r24, Y+4	; 0x04
    2a7e:	9d 81       	ldd	r25, Y+5	; 0x05
    2a80:	b7 01       	movw	r22, r14
    2a82:	82 0f       	add	r24, r18
    2a84:	93 1f       	adc	r25, r19
    2a86:	0e 94 67 27 	call	0x4ece	;  0x4ece
    2a8a:	1d 83       	std	Y+5, r17	; 0x05
    2a8c:	0c 83       	std	Y+4, r16	; 0x04
    2a8e:	81 e0       	ldi	r24, 0x01	; 1
    2a90:	df 91       	pop	r29
    2a92:	cf 91       	pop	r28
    2a94:	1f 91       	pop	r17
    2a96:	0f 91       	pop	r16
    2a98:	ff 90       	pop	r15
    2a9a:	ef 90       	pop	r14
    2a9c:	08 95       	ret
    2a9e:	cf 93       	push	r28
    2aa0:	df 93       	push	r29
    2aa2:	ec 01       	movw	r28, r24
    2aa4:	fb 01       	movw	r30, r22
    2aa6:	44 81       	ldd	r20, Z+4	; 0x04
    2aa8:	55 81       	ldd	r21, Z+5	; 0x05
    2aaa:	60 81       	ld	r22, Z
    2aac:	71 81       	ldd	r23, Z+1	; 0x01
    2aae:	0e 94 21 15 	call	0x2a42	;  0x2a42
    2ab2:	81 11       	cpse	r24, r1
    2ab4:	03 c0       	rjmp	.+6      	;  0x2abc
    2ab6:	ce 01       	movw	r24, r28
    2ab8:	0e 94 54 14 	call	0x28a8	;  0x28a8
    2abc:	ce 01       	movw	r24, r28
    2abe:	df 91       	pop	r29
    2ac0:	cf 91       	pop	r28
    2ac2:	08 95       	ret
    2ac4:	20 91 8a 04 	lds	r18, 0x048A
    2ac8:	30 91 8b 04 	lds	r19, 0x048B
    2acc:	28 17       	cp	r18, r24
    2ace:	39 07       	cpc	r19, r25
    2ad0:	b9 f4       	brne	.+46     	;  0x2b00
    2ad2:	90 91 48 04 	lds	r25, 0x0448
    2ad6:	80 91 49 04 	lds	r24, 0x0449
    2ada:	98 17       	cp	r25, r24
    2adc:	89 f0       	breq	.+34     	;  0x2b00
    2ade:	e0 91 48 04 	lds	r30, 0x0448
    2ae2:	f0 e0       	ldi	r31, 0x00	; 0
    2ae4:	e6 5b       	subi	r30, 0xB6	; 182
    2ae6:	fb 4f       	sbci	r31, 0xFB	; 251
    2ae8:	80 81       	ld	r24, Z
    2aea:	20 91 48 04 	lds	r18, 0x0448
    2aee:	30 e0       	ldi	r19, 0x00	; 0
    2af0:	2f 5f       	subi	r18, 0xFF	; 255
    2af2:	3f 4f       	sbci	r19, 0xFF	; 255
    2af4:	2f 73       	andi	r18, 0x3F	; 63
    2af6:	33 27       	eor	r19, r19
    2af8:	20 93 48 04 	sts	0x0448, r18
    2afc:	90 e0       	ldi	r25, 0x00	; 0
    2afe:	08 95       	ret
    2b00:	8f ef       	ldi	r24, 0xFF	; 255
    2b02:	9f ef       	ldi	r25, 0xFF	; 255
    2b04:	08 95       	ret
    2b06:	1f 93       	push	r17
    2b08:	cf 93       	push	r28
    2b0a:	df 93       	push	r29
    2b0c:	dc 01       	movw	r26, r24
    2b0e:	5c 96       	adiw	r26, 0x1c	; 28
    2b10:	2d 91       	ld	r18, X+
    2b12:	3c 91       	ld	r19, X
    2b14:	5d 97       	sbiw	r26, 0x1d	; 29
    2b16:	21 15       	cp	r18, r1
    2b18:	31 05       	cpc	r19, r1
    2b1a:	39 f4       	brne	.+14     	;  0x2b2a
    2b1c:	81 e0       	ldi	r24, 0x01	; 1
    2b1e:	90 e0       	ldi	r25, 0x00	; 0
    2b20:	13 96       	adiw	r26, 0x03	; 3
    2b22:	9c 93       	st	X, r25
    2b24:	8e 93       	st	-X, r24
    2b26:	12 97       	sbiw	r26, 0x02	; 2
    2b28:	3d c0       	rjmp	.+122    	;  0x2ba4
    2b2a:	51 96       	adiw	r26, 0x11	; 17
    2b2c:	ed 91       	ld	r30, X+
    2b2e:	fc 91       	ld	r31, X
    2b30:	52 97       	sbiw	r26, 0x12	; 18
    2b32:	50 96       	adiw	r26, 0x10	; 16
    2b34:	9c 91       	ld	r25, X
    2b36:	50 97       	sbiw	r26, 0x10	; 16
    2b38:	89 2f       	mov	r24, r25
    2b3a:	80 95       	com	r24
    2b3c:	1f b7       	in	r17, 0x3f	; 63
    2b3e:	5e 96       	adiw	r26, 0x1e	; 30
    2b40:	4c 91       	ld	r20, X
    2b42:	5e 97       	sbiw	r26, 0x1e	; 30
    2b44:	41 fb       	bst	r20, 1
    2b46:	77 27       	eor	r23, r23
    2b48:	70 f9       	bld	r23, 0
    2b4a:	41 fd       	sbrc	r20, 1
    2b4c:	60 95       	com	r22
    2b4e:	f8 94       	cli
    2b50:	40 81       	ld	r20, Z
    2b52:	77 23       	and	r23, r23
    2b54:	11 f0       	breq	.+4      	;  0x2b5a
    2b56:	49 2b       	or	r20, r25
    2b58:	01 c0       	rjmp	.+2      	;  0x2b5c
    2b5a:	48 23       	and	r20, r24
    2b5c:	40 83       	st	Z, r20
    2b5e:	e9 01       	movw	r28, r18
    2b60:	21 97       	sbiw	r28, 0x01	; 1
    2b62:	f1 f7       	brne	.-4      	;  0x2b60
    2b64:	48 e0       	ldi	r20, 0x08	; 8
    2b66:	50 81       	ld	r21, Z
    2b68:	60 ff       	sbrs	r22, 0
    2b6a:	02 c0       	rjmp	.+4      	;  0x2b70
    2b6c:	59 2b       	or	r21, r25
    2b6e:	01 c0       	rjmp	.+2      	;  0x2b72
    2b70:	58 23       	and	r21, r24
    2b72:	50 83       	st	Z, r21
    2b74:	e9 01       	movw	r28, r18
    2b76:	21 97       	sbiw	r28, 0x01	; 1
    2b78:	f1 f7       	brne	.-4      	;  0x2b76
    2b7a:	66 95       	lsr	r22
    2b7c:	41 50       	subi	r20, 0x01	; 1
    2b7e:	99 f7       	brne	.-26     	;  0x2b66
    2b80:	77 23       	and	r23, r23
    2b82:	21 f0       	breq	.+8      	;  0x2b8c
    2b84:	90 81       	ld	r25, Z
    2b86:	89 23       	and	r24, r25
    2b88:	80 83       	st	Z, r24
    2b8a:	03 c0       	rjmp	.+6      	;  0x2b92
    2b8c:	80 81       	ld	r24, Z
    2b8e:	98 2b       	or	r25, r24
    2b90:	90 83       	st	Z, r25
    2b92:	1f bf       	out	0x3f, r17	; 63
    2b94:	5c 96       	adiw	r26, 0x1c	; 28
    2b96:	8d 91       	ld	r24, X+
    2b98:	9c 91       	ld	r25, X
    2b9a:	5d 97       	sbiw	r26, 0x1d	; 29
    2b9c:	01 97       	sbiw	r24, 0x01	; 1
    2b9e:	f1 f7       	brne	.-4      	;  0x2b9c
    2ba0:	21 e0       	ldi	r18, 0x01	; 1
    2ba2:	30 e0       	ldi	r19, 0x00	; 0
    2ba4:	c9 01       	movw	r24, r18
    2ba6:	df 91       	pop	r29
    2ba8:	cf 91       	pop	r28
    2baa:	1f 91       	pop	r17
    2bac:	08 95       	ret
    2bae:	08 95       	ret
    2bb0:	20 91 8a 04 	lds	r18, 0x048A
    2bb4:	30 91 8b 04 	lds	r19, 0x048B
    2bb8:	28 17       	cp	r18, r24
    2bba:	39 07       	cpc	r19, r25
    2bbc:	71 f4       	brne	.+28     	;  0x2bda
    2bbe:	90 91 48 04 	lds	r25, 0x0448
    2bc2:	80 91 49 04 	lds	r24, 0x0449
    2bc6:	98 17       	cp	r25, r24
    2bc8:	41 f0       	breq	.+16     	;  0x2bda
    2bca:	e0 91 48 04 	lds	r30, 0x0448
    2bce:	f0 e0       	ldi	r31, 0x00	; 0
    2bd0:	e6 5b       	subi	r30, 0xB6	; 182
    2bd2:	fb 4f       	sbci	r31, 0xFB	; 251
    2bd4:	80 81       	ld	r24, Z
    2bd6:	90 e0       	ldi	r25, 0x00	; 0
    2bd8:	08 95       	ret
    2bda:	8f ef       	ldi	r24, 0xFF	; 255
    2bdc:	9f ef       	ldi	r25, 0xFF	; 255
    2bde:	08 95       	ret
    2be0:	80 91 26 04 	lds	r24, 0x0426
    2be4:	90 e0       	ldi	r25, 0x00	; 0
    2be6:	20 91 27 04 	lds	r18, 0x0427
    2bea:	82 1b       	sub	r24, r18
    2bec:	91 09       	sbc	r25, r1
    2bee:	08 95       	ret
    2bf0:	90 91 27 04 	lds	r25, 0x0427
    2bf4:	80 91 26 04 	lds	r24, 0x0426
    2bf8:	98 17       	cp	r25, r24
    2bfa:	50 f4       	brcc	.+20     	;  0x2c10
    2bfc:	e9 2f       	mov	r30, r25
    2bfe:	f0 e0       	ldi	r31, 0x00	; 0
    2c00:	e8 5d       	subi	r30, 0xD8	; 216
    2c02:	fb 4f       	sbci	r31, 0xFB	; 251
    2c04:	20 81       	ld	r18, Z
    2c06:	30 e0       	ldi	r19, 0x00	; 0
    2c08:	9f 5f       	subi	r25, 0xFF	; 255
    2c0a:	90 93 27 04 	sts	0x0427, r25
    2c0e:	02 c0       	rjmp	.+4      	;  0x2c14
    2c10:	2f ef       	ldi	r18, 0xFF	; 255
    2c12:	3f ef       	ldi	r19, 0xFF	; 255
    2c14:	c9 01       	movw	r24, r18
    2c16:	08 95       	ret
    2c18:	e0 91 27 04 	lds	r30, 0x0427
    2c1c:	80 91 26 04 	lds	r24, 0x0426
    2c20:	e8 17       	cp	r30, r24
    2c22:	30 f4       	brcc	.+12     	;  0x2c30
    2c24:	f0 e0       	ldi	r31, 0x00	; 0
    2c26:	e8 5d       	subi	r30, 0xD8	; 216
    2c28:	fb 4f       	sbci	r31, 0xFB	; 251
    2c2a:	80 81       	ld	r24, Z
    2c2c:	90 e0       	ldi	r25, 0x00	; 0
    2c2e:	08 95       	ret
    2c30:	8f ef       	ldi	r24, 0xFF	; 255
    2c32:	9f ef       	ldi	r25, 0xFF	; 255
    2c34:	08 95       	ret
    2c36:	08 95       	ret
    2c38:	20 91 8a 04 	lds	r18, 0x048A
    2c3c:	30 91 8b 04 	lds	r19, 0x048B
    2c40:	28 17       	cp	r18, r24
    2c42:	39 07       	cpc	r19, r25
    2c44:	71 f4       	brne	.+28     	;  0x2c62
    2c46:	80 91 49 04 	lds	r24, 0x0449
    2c4a:	20 91 48 04 	lds	r18, 0x0448
    2c4e:	90 e0       	ldi	r25, 0x00	; 0
    2c50:	80 5c       	subi	r24, 0xC0	; 192
    2c52:	9f 4f       	sbci	r25, 0xFF	; 255
    2c54:	82 1b       	sub	r24, r18
    2c56:	91 09       	sbc	r25, r1
    2c58:	60 e4       	ldi	r22, 0x40	; 64
    2c5a:	70 e0       	ldi	r23, 0x00	; 0
    2c5c:	0e 94 fe 24 	call	0x49fc	;  0x49fc
    2c60:	08 95       	ret
    2c62:	80 e0       	ldi	r24, 0x00	; 0
    2c64:	90 e0       	ldi	r25, 0x00	; 0
    2c66:	08 95       	ret
    2c68:	1f 92       	push	r1
    2c6a:	0f 92       	push	r0
    2c6c:	0f b6       	in	r0, 0x3f	; 63
    2c6e:	0f 92       	push	r0
    2c70:	11 24       	eor	r1, r1
    2c72:	2f 93       	push	r18
    2c74:	3f 93       	push	r19
    2c76:	4f 93       	push	r20
    2c78:	5f 93       	push	r21
    2c7a:	6f 93       	push	r22
    2c7c:	7f 93       	push	r23
    2c7e:	8f 93       	push	r24
    2c80:	9f 93       	push	r25
    2c82:	af 93       	push	r26
    2c84:	bf 93       	push	r27
    2c86:	ef 93       	push	r30
    2c88:	ff 93       	push	r31
    2c8a:	80 91 8d 04 	lds	r24, 0x048D
    2c8e:	87 ff       	sbrs	r24, 7
    2c90:	05 c0       	rjmp	.+10     	;  0x2c9c
    2c92:	10 92 95 00 	sts	0x0095, r1
    2c96:	10 92 94 00 	sts	0x0094, r1
    2c9a:	1b c0       	rjmp	.+54     	;  0x2cd2
    2c9c:	20 91 8d 04 	lds	r18, 0x048D
    2ca0:	33 27       	eor	r19, r19
    2ca2:	27 fd       	sbrc	r18, 7
    2ca4:	30 95       	com	r19
    2ca6:	80 91 8c 04 	lds	r24, 0x048C
    2caa:	90 e0       	ldi	r25, 0x00	; 0
    2cac:	28 17       	cp	r18, r24
    2cae:	39 07       	cpc	r19, r25
    2cb0:	84 f4       	brge	.+32     	;  0x2cd2
    2cb2:	80 91 8d 04 	lds	r24, 0x048D
    2cb6:	99 27       	eor	r25, r25
    2cb8:	87 fd       	sbrc	r24, 7
    2cba:	90 95       	com	r25
    2cbc:	fc 01       	movw	r30, r24
    2cbe:	ee 0f       	add	r30, r30
    2cc0:	ff 1f       	adc	r31, r31
    2cc2:	8e 0f       	add	r24, r30
    2cc4:	9f 1f       	adc	r25, r31
    2cc6:	fc 01       	movw	r30, r24
    2cc8:	e2 57       	subi	r30, 0x72	; 114
    2cca:	fb 4f       	sbci	r31, 0xFB	; 251
    2ccc:	80 81       	ld	r24, Z
    2cce:	86 fd       	sbrc	r24, 6
    2cd0:	15 c0       	rjmp	.+42     	;  0x2cfc
    2cd2:	80 91 8d 04 	lds	r24, 0x048D
    2cd6:	8f 5f       	subi	r24, 0xFF	; 255
    2cd8:	80 93 8d 04 	sts	0x048D, r24
    2cdc:	20 91 8d 04 	lds	r18, 0x048D
    2ce0:	33 27       	eor	r19, r19
    2ce2:	27 fd       	sbrc	r18, 7
    2ce4:	30 95       	com	r19
    2ce6:	80 91 8c 04 	lds	r24, 0x048C
    2cea:	90 e0       	ldi	r25, 0x00	; 0
    2cec:	28 17       	cp	r18, r24
    2cee:	39 07       	cpc	r19, r25
    2cf0:	c4 f4       	brge	.+48     	;  0x2d22
    2cf2:	80 91 8d 04 	lds	r24, 0x048D
    2cf6:	8c 30       	cpi	r24, 0x0C	; 12
    2cf8:	64 f1       	brlt	.+88     	;  0x2d52
    2cfa:	13 c0       	rjmp	.+38     	;  0x2d22
    2cfc:	80 91 8d 04 	lds	r24, 0x048D
    2d00:	99 27       	eor	r25, r25
    2d02:	87 fd       	sbrc	r24, 7
    2d04:	90 95       	com	r25
    2d06:	fc 01       	movw	r30, r24
    2d08:	ee 0f       	add	r30, r30
    2d0a:	ff 1f       	adc	r31, r31
    2d0c:	8e 0f       	add	r24, r30
    2d0e:	9f 1f       	adc	r25, r31
    2d10:	fc 01       	movw	r30, r24
    2d12:	e2 57       	subi	r30, 0x72	; 114
    2d14:	fb 4f       	sbci	r31, 0xFB	; 251
    2d16:	80 81       	ld	r24, Z
    2d18:	60 e0       	ldi	r22, 0x00	; 0
    2d1a:	8f 73       	andi	r24, 0x3F	; 63
    2d1c:	0e 94 de 13 	call	0x27bc	;  0x27bc
    2d20:	d8 cf       	rjmp	.-80     	;  0x2cd2
    2d22:	80 91 94 00 	lds	r24, 0x0094
    2d26:	90 91 95 00 	lds	r25, 0x0095
    2d2a:	04 96       	adiw	r24, 0x04	; 4
    2d2c:	80 34       	cpi	r24, 0x40	; 64
    2d2e:	9c 49       	sbci	r25, 0x9C	; 156
    2d30:	18 f4       	brcc	.+6      	;  0x2d38
    2d32:	80 e4       	ldi	r24, 0x40	; 64
    2d34:	9c e9       	ldi	r25, 0x9C	; 156
    2d36:	05 c0       	rjmp	.+10     	;  0x2d42
    2d38:	80 91 94 00 	lds	r24, 0x0094
    2d3c:	90 91 95 00 	lds	r25, 0x0095
    2d40:	04 96       	adiw	r24, 0x04	; 4
    2d42:	90 93 99 00 	sts	0x0099, r25
    2d46:	80 93 98 00 	sts	0x0098, r24
    2d4a:	8f ef       	ldi	r24, 0xFF	; 255
    2d4c:	80 93 8d 04 	sts	0x048D, r24
    2d50:	3b c0       	rjmp	.+118    	;  0x2dc8
    2d52:	20 91 94 00 	lds	r18, 0x0094
    2d56:	30 91 95 00 	lds	r19, 0x0095
    2d5a:	80 91 8d 04 	lds	r24, 0x048D
    2d5e:	99 27       	eor	r25, r25
    2d60:	87 fd       	sbrc	r24, 7
    2d62:	90 95       	com	r25
    2d64:	fc 01       	movw	r30, r24
    2d66:	ee 0f       	add	r30, r30
    2d68:	ff 1f       	adc	r31, r31
    2d6a:	8e 0f       	add	r24, r30
    2d6c:	9f 1f       	adc	r25, r31
    2d6e:	fc 01       	movw	r30, r24
    2d70:	e2 57       	subi	r30, 0x72	; 114
    2d72:	fb 4f       	sbci	r31, 0xFB	; 251
    2d74:	81 81       	ldd	r24, Z+1	; 0x01
    2d76:	92 81       	ldd	r25, Z+2	; 0x02
    2d78:	82 0f       	add	r24, r18
    2d7a:	93 1f       	adc	r25, r19
    2d7c:	90 93 99 00 	sts	0x0099, r25
    2d80:	80 93 98 00 	sts	0x0098, r24
    2d84:	80 91 8d 04 	lds	r24, 0x048D
    2d88:	99 27       	eor	r25, r25
    2d8a:	87 fd       	sbrc	r24, 7
    2d8c:	90 95       	com	r25
    2d8e:	fc 01       	movw	r30, r24
    2d90:	ee 0f       	add	r30, r30
    2d92:	ff 1f       	adc	r31, r31
    2d94:	8e 0f       	add	r24, r30
    2d96:	9f 1f       	adc	r25, r31
    2d98:	fc 01       	movw	r30, r24
    2d9a:	e2 57       	subi	r30, 0x72	; 114
    2d9c:	fb 4f       	sbci	r31, 0xFB	; 251
    2d9e:	80 81       	ld	r24, Z
    2da0:	86 ff       	sbrs	r24, 6
    2da2:	12 c0       	rjmp	.+36     	;  0x2dc8
    2da4:	80 91 8d 04 	lds	r24, 0x048D
    2da8:	99 27       	eor	r25, r25
    2daa:	87 fd       	sbrc	r24, 7
    2dac:	90 95       	com	r25
    2dae:	fc 01       	movw	r30, r24
    2db0:	ee 0f       	add	r30, r30
    2db2:	ff 1f       	adc	r31, r31
    2db4:	8e 0f       	add	r24, r30
    2db6:	9f 1f       	adc	r25, r31
    2db8:	fc 01       	movw	r30, r24
    2dba:	e2 57       	subi	r30, 0x72	; 114
    2dbc:	fb 4f       	sbci	r31, 0xFB	; 251
    2dbe:	80 81       	ld	r24, Z
    2dc0:	61 e0       	ldi	r22, 0x01	; 1
    2dc2:	8f 73       	andi	r24, 0x3F	; 63
    2dc4:	0e 94 de 13 	call	0x27bc	;  0x27bc
    2dc8:	ff 91       	pop	r31
    2dca:	ef 91       	pop	r30
    2dcc:	bf 91       	pop	r27
    2dce:	af 91       	pop	r26
    2dd0:	9f 91       	pop	r25
    2dd2:	8f 91       	pop	r24
    2dd4:	7f 91       	pop	r23
    2dd6:	6f 91       	pop	r22
    2dd8:	5f 91       	pop	r21
    2dda:	4f 91       	pop	r20
    2ddc:	3f 91       	pop	r19
    2dde:	2f 91       	pop	r18
    2de0:	0f 90       	pop	r0
    2de2:	0f be       	out	0x3f, r0	; 63
    2de4:	0f 90       	pop	r0
    2de6:	1f 90       	pop	r1
    2de8:	18 95       	reti
    2dea:	fc 01       	movw	r30, r24
    2dec:	90 91 8c 04 	lds	r25, 0x048C
    2df0:	9c 30       	cpi	r25, 0x0C	; 12
    2df2:	a0 f4       	brcc	.+40     	;  0x2e1c
    2df4:	81 e0       	ldi	r24, 0x01	; 1
    2df6:	89 0f       	add	r24, r25
    2df8:	80 93 8c 04 	sts	0x048C, r24
    2dfc:	90 83       	st	Z, r25
    2dfe:	89 2f       	mov	r24, r25
    2e00:	90 e0       	ldi	r25, 0x00	; 0
    2e02:	fc 01       	movw	r30, r24
    2e04:	ee 0f       	add	r30, r30
    2e06:	ff 1f       	adc	r31, r31
    2e08:	8e 0f       	add	r24, r30
    2e0a:	9f 1f       	adc	r25, r31
    2e0c:	fc 01       	movw	r30, r24
    2e0e:	e2 57       	subi	r30, 0x72	; 114
    2e10:	fb 4f       	sbci	r31, 0xFB	; 251
    2e12:	88 eb       	ldi	r24, 0xB8	; 184
    2e14:	9b e0       	ldi	r25, 0x0B	; 11
    2e16:	92 83       	std	Z+2, r25	; 0x02
    2e18:	81 83       	std	Z+1, r24	; 0x01
    2e1a:	08 95       	ret
    2e1c:	8f ef       	ldi	r24, 0xFF	; 255
    2e1e:	80 83       	st	Z, r24
    2e20:	08 95       	ret
    2e22:	df 92       	push	r13
    2e24:	ef 92       	push	r14
    2e26:	ff 92       	push	r15
    2e28:	0f 93       	push	r16
    2e2a:	1f 93       	push	r17
    2e2c:	cf 93       	push	r28
    2e2e:	df 93       	push	r29
    2e30:	ec 01       	movw	r28, r24
    2e32:	d6 2e       	mov	r13, r22
    2e34:	7a 01       	movw	r14, r20
    2e36:	89 01       	movw	r16, r18
    2e38:	88 81       	ld	r24, Y
    2e3a:	8c 30       	cpi	r24, 0x0C	; 12
    2e3c:	08 f0       	brcs	.+2      	;  0x2e40
    2e3e:	67 c0       	rjmp	.+206    	;  0x2f0e
    2e40:	61 e0       	ldi	r22, 0x01	; 1
    2e42:	8d 2d       	mov	r24, r13
    2e44:	0e 94 a2 13 	call	0x2744	;  0x2744
    2e48:	88 81       	ld	r24, Y
    2e4a:	e8 2f       	mov	r30, r24
    2e4c:	f0 e0       	ldi	r31, 0x00	; 0
    2e4e:	9f 01       	movw	r18, r30
    2e50:	22 0f       	add	r18, r18
    2e52:	33 1f       	adc	r19, r19
    2e54:	e2 0f       	add	r30, r18
    2e56:	f3 1f       	adc	r31, r19
    2e58:	e2 57       	subi	r30, 0x72	; 114
    2e5a:	fb 4f       	sbci	r31, 0xFB	; 251
    2e5c:	9d 2d       	mov	r25, r13
    2e5e:	9f 73       	andi	r25, 0x3F	; 63
    2e60:	20 81       	ld	r18, Z
    2e62:	20 7c       	andi	r18, 0xC0	; 192
    2e64:	d2 2e       	mov	r13, r18
    2e66:	d9 2a       	or	r13, r25
    2e68:	d0 82       	st	Z, r13
    2e6a:	60 e2       	ldi	r22, 0x20	; 32
    2e6c:	72 e0       	ldi	r23, 0x02	; 2
    2e6e:	ab 01       	movw	r20, r22
    2e70:	4e 19       	sub	r20, r14
    2e72:	5f 09       	sbc	r21, r15
    2e74:	57 ff       	sbrs	r21, 7
    2e76:	02 c0       	rjmp	.+4      	;  0x2e7c
    2e78:	4d 5f       	subi	r20, 0xFD	; 253
    2e7a:	5f 4f       	sbci	r21, 0xFF	; 255
    2e7c:	55 95       	asr	r21
    2e7e:	47 95       	ror	r20
    2e80:	55 95       	asr	r21
    2e82:	47 95       	ror	r20
    2e84:	49 83       	std	Y+1, r20	; 0x01
    2e86:	40 e6       	ldi	r20, 0x60	; 96
    2e88:	59 e0       	ldi	r21, 0x09	; 9
    2e8a:	9a 01       	movw	r18, r20
    2e8c:	20 1b       	sub	r18, r16
    2e8e:	31 0b       	sbc	r19, r17
    2e90:	37 ff       	sbrs	r19, 7
    2e92:	02 c0       	rjmp	.+4      	;  0x2e98
    2e94:	2d 5f       	subi	r18, 0xFD	; 253
    2e96:	3f 4f       	sbci	r19, 0xFF	; 255
    2e98:	35 95       	asr	r19
    2e9a:	27 95       	ror	r18
    2e9c:	35 95       	asr	r19
    2e9e:	27 95       	ror	r18
    2ea0:	2a 83       	std	Y+2, r18	; 0x02
    2ea2:	6c e0       	ldi	r22, 0x0C	; 12
    2ea4:	0e 94 de 24 	call	0x49bc	;  0x49bc
    2ea8:	9c e0       	ldi	r25, 0x0C	; 12
    2eaa:	89 9f       	mul	r24, r25
    2eac:	b0 01       	movw	r22, r0
    2eae:	11 24       	eor	r1, r1
    2eb0:	40 e0       	ldi	r20, 0x00	; 0
    2eb2:	50 e0       	ldi	r21, 0x00	; 0
    2eb4:	9a 01       	movw	r18, r20
    2eb6:	26 0f       	add	r18, r22
    2eb8:	37 1f       	adc	r19, r23
    2eba:	f9 01       	movw	r30, r18
    2ebc:	ee 0f       	add	r30, r30
    2ebe:	ff 1f       	adc	r31, r31
    2ec0:	2e 0f       	add	r18, r30
    2ec2:	3f 1f       	adc	r19, r31
    2ec4:	f9 01       	movw	r30, r18
    2ec6:	e2 57       	subi	r30, 0x72	; 114
    2ec8:	fb 4f       	sbci	r31, 0xFB	; 251
    2eca:	90 81       	ld	r25, Z
    2ecc:	96 fd       	sbrc	r25, 6
    2ece:	13 c0       	rjmp	.+38     	;  0x2ef6
    2ed0:	4f 5f       	subi	r20, 0xFF	; 255
    2ed2:	5f 4f       	sbci	r21, 0xFF	; 255
    2ed4:	4c 30       	cpi	r20, 0x0C	; 12
    2ed6:	51 05       	cpc	r21, r1
    2ed8:	69 f7       	brne	.-38     	;  0x2eb4
    2eda:	81 11       	cpse	r24, r1
    2edc:	0c c0       	rjmp	.+24     	;  0x2ef6
    2ede:	10 92 90 00 	sts	0x0090, r1
    2ee2:	82 e0       	ldi	r24, 0x02	; 2
    2ee4:	80 93 91 00 	sts	0x0091, r24
    2ee8:	10 92 95 00 	sts	0x0095, r1
    2eec:	10 92 94 00 	sts	0x0094, r1
    2ef0:	88 bb       	out	0x18, r24	; 24
    2ef2:	80 93 71 00 	sts	0x0071, r24
    2ef6:	e8 81       	ld	r30, Y
    2ef8:	f0 e0       	ldi	r31, 0x00	; 0
    2efa:	cf 01       	movw	r24, r30
    2efc:	88 0f       	add	r24, r24
    2efe:	99 1f       	adc	r25, r25
    2f00:	e8 0f       	add	r30, r24
    2f02:	f9 1f       	adc	r31, r25
    2f04:	e2 57       	subi	r30, 0x72	; 114
    2f06:	fb 4f       	sbci	r31, 0xFB	; 251
    2f08:	80 81       	ld	r24, Z
    2f0a:	80 64       	ori	r24, 0x40	; 64
    2f0c:	80 83       	st	Z, r24
    2f0e:	88 81       	ld	r24, Y
    2f10:	df 91       	pop	r29
    2f12:	cf 91       	pop	r28
    2f14:	1f 91       	pop	r17
    2f16:	0f 91       	pop	r16
    2f18:	ff 90       	pop	r15
    2f1a:	ef 90       	pop	r14
    2f1c:	df 90       	pop	r13
    2f1e:	08 95       	ret
    2f20:	20 e6       	ldi	r18, 0x60	; 96
    2f22:	39 e0       	ldi	r19, 0x09	; 9
    2f24:	40 e2       	ldi	r20, 0x20	; 32
    2f26:	52 e0       	ldi	r21, 0x02	; 2
    2f28:	0c 94 11 17 	jmp	0x2e22	;  0x2e22
    2f2c:	dc 01       	movw	r26, r24
    2f2e:	ec 91       	ld	r30, X
    2f30:	f0 e0       	ldi	r31, 0x00	; 0
    2f32:	cf 01       	movw	r24, r30
    2f34:	88 0f       	add	r24, r24
    2f36:	99 1f       	adc	r25, r25
    2f38:	e8 0f       	add	r30, r24
    2f3a:	f9 1f       	adc	r31, r25
    2f3c:	e2 57       	subi	r30, 0x72	; 114
    2f3e:	fb 4f       	sbci	r31, 0xFB	; 251
    2f40:	80 81       	ld	r24, Z
    2f42:	8f 7b       	andi	r24, 0xBF	; 191
    2f44:	80 83       	st	Z, r24
    2f46:	08 95       	ret
    2f48:	fc 01       	movw	r30, r24
    2f4a:	90 81       	ld	r25, Z
    2f4c:	9c 30       	cpi	r25, 0x0C	; 12
    2f4e:	80 f5       	brcc	.+96     	;  0x2fb0
    2f50:	81 81       	ldd	r24, Z+1	; 0x01
    2f52:	28 e8       	ldi	r18, 0x88	; 136
    2f54:	30 e0       	ldi	r19, 0x00	; 0
    2f56:	28 1b       	sub	r18, r24
    2f58:	31 09       	sbc	r19, r1
    2f5a:	87 fd       	sbrc	r24, 7
    2f5c:	33 95       	inc	r19
    2f5e:	22 0f       	add	r18, r18
    2f60:	33 1f       	adc	r19, r19
    2f62:	22 0f       	add	r18, r18
    2f64:	33 1f       	adc	r19, r19
    2f66:	62 17       	cp	r22, r18
    2f68:	73 07       	cpc	r23, r19
    2f6a:	7c f0       	brlt	.+30     	;  0x2f8a
    2f6c:	82 81       	ldd	r24, Z+2	; 0x02
    2f6e:	28 e5       	ldi	r18, 0x58	; 88
    2f70:	32 e0       	ldi	r19, 0x02	; 2
    2f72:	28 1b       	sub	r18, r24
    2f74:	31 09       	sbc	r19, r1
    2f76:	87 fd       	sbrc	r24, 7
    2f78:	33 95       	inc	r19
    2f7a:	22 0f       	add	r18, r18
    2f7c:	33 1f       	adc	r19, r19
    2f7e:	22 0f       	add	r18, r18
    2f80:	33 1f       	adc	r19, r19
    2f82:	62 17       	cp	r22, r18
    2f84:	73 07       	cpc	r23, r19
    2f86:	0c f4       	brge	.+2      	;  0x2f8a
    2f88:	9b 01       	movw	r18, r22
    2f8a:	22 50       	subi	r18, 0x02	; 2
    2f8c:	31 09       	sbc	r19, r1
    2f8e:	22 0f       	add	r18, r18
    2f90:	33 1f       	adc	r19, r19
    2f92:	4f b7       	in	r20, 0x3f	; 63
    2f94:	f8 94       	cli
    2f96:	89 2f       	mov	r24, r25
    2f98:	90 e0       	ldi	r25, 0x00	; 0
    2f9a:	fc 01       	movw	r30, r24
    2f9c:	ee 0f       	add	r30, r30
    2f9e:	ff 1f       	adc	r31, r31
    2fa0:	8e 0f       	add	r24, r30
    2fa2:	9f 1f       	adc	r25, r31
    2fa4:	fc 01       	movw	r30, r24
    2fa6:	e2 57       	subi	r30, 0x72	; 114
    2fa8:	fb 4f       	sbci	r31, 0xFB	; 251
    2faa:	32 83       	std	Z+2, r19	; 0x02
    2fac:	21 83       	std	Z+1, r18	; 0x01
    2fae:	4f bf       	out	0x3f, r20	; 63
    2fb0:	08 95       	ret
    2fb2:	af 92       	push	r10
    2fb4:	bf 92       	push	r11
    2fb6:	cf 92       	push	r12
    2fb8:	df 92       	push	r13
    2fba:	ef 92       	push	r14
    2fbc:	ff 92       	push	r15
    2fbe:	0f 93       	push	r16
    2fc0:	1f 93       	push	r17
    2fc2:	cf 93       	push	r28
    2fc4:	df 93       	push	r29
    2fc6:	ec 01       	movw	r28, r24
    2fc8:	60 32       	cpi	r22, 0x20	; 32
    2fca:	82 e0       	ldi	r24, 0x02	; 2
    2fcc:	78 07       	cpc	r23, r24
    2fce:	0c f0       	brlt	.+2      	;  0x2fd2
    2fd0:	3f c0       	rjmp	.+126    	;  0x3050
    2fd2:	77 fd       	sbrc	r23, 7
    2fd4:	06 c0       	rjmp	.+12     	;  0x2fe2
    2fd6:	65 3b       	cpi	r22, 0xB5	; 181
    2fd8:	71 05       	cpc	r23, r1
    2fda:	2c f0       	brlt	.+10     	;  0x2fe6
    2fdc:	64 eb       	ldi	r22, 0xB4	; 180
    2fde:	70 e0       	ldi	r23, 0x00	; 0
    2fe0:	02 c0       	rjmp	.+4      	;  0x2fe6
    2fe2:	60 e0       	ldi	r22, 0x00	; 0
    2fe4:	70 e0       	ldi	r23, 0x00	; 0
    2fe6:	89 81       	ldd	r24, Y+1	; 0x01
    2fe8:	28 e8       	ldi	r18, 0x88	; 136
    2fea:	30 e0       	ldi	r19, 0x00	; 0
    2fec:	59 01       	movw	r10, r18
    2fee:	a8 1a       	sub	r10, r24
    2ff0:	b1 08       	sbc	r11, r1
    2ff2:	87 fd       	sbrc	r24, 7
    2ff4:	b3 94       	inc	r11
    2ff6:	aa 0c       	add	r10, r10
    2ff8:	bb 1c       	adc	r11, r11
    2ffa:	aa 0c       	add	r10, r10
    2ffc:	bb 1c       	adc	r11, r11
    2ffe:	cc 24       	eor	r12, r12
    3000:	b7 fc       	sbrc	r11, 7
    3002:	c0 94       	com	r12
    3004:	dc 2c       	mov	r13, r12
    3006:	88 27       	eor	r24, r24
    3008:	77 fd       	sbrc	r23, 7
    300a:	80 95       	com	r24
    300c:	98 2f       	mov	r25, r24
    300e:	2a 81       	ldd	r18, Y+2	; 0x02
    3010:	08 e5       	ldi	r16, 0x58	; 88
    3012:	12 e0       	ldi	r17, 0x02	; 2
    3014:	02 1b       	sub	r16, r18
    3016:	11 09       	sbc	r17, r1
    3018:	27 fd       	sbrc	r18, 7
    301a:	13 95       	inc	r17
    301c:	00 0f       	add	r16, r16
    301e:	11 1f       	adc	r17, r17
    3020:	00 0f       	add	r16, r16
    3022:	11 1f       	adc	r17, r17
    3024:	22 27       	eor	r18, r18
    3026:	17 fd       	sbrc	r17, 7
    3028:	20 95       	com	r18
    302a:	32 2f       	mov	r19, r18
    302c:	3f 93       	push	r19
    302e:	2f 93       	push	r18
    3030:	1f 93       	push	r17
    3032:	0f 93       	push	r16
    3034:	14 eb       	ldi	r17, 0xB4	; 180
    3036:	e1 2e       	mov	r14, r17
    3038:	f1 2c       	mov	r15, r1
    303a:	00 e0       	ldi	r16, 0x00	; 0
    303c:	10 e0       	ldi	r17, 0x00	; 0
    303e:	20 e0       	ldi	r18, 0x00	; 0
    3040:	30 e0       	ldi	r19, 0x00	; 0
    3042:	a9 01       	movw	r20, r18
    3044:	0e 94 0e 14 	call	0x281c	;  0x281c
    3048:	0f 90       	pop	r0
    304a:	0f 90       	pop	r0
    304c:	0f 90       	pop	r0
    304e:	0f 90       	pop	r0
    3050:	ce 01       	movw	r24, r28
    3052:	df 91       	pop	r29
    3054:	cf 91       	pop	r28
    3056:	1f 91       	pop	r17
    3058:	0f 91       	pop	r16
    305a:	ff 90       	pop	r15
    305c:	ef 90       	pop	r14
    305e:	df 90       	pop	r13
    3060:	cf 90       	pop	r12
    3062:	bf 90       	pop	r11
    3064:	af 90       	pop	r10
    3066:	0c 94 a4 17 	jmp	0x2f48	;  0x2f48
    306a:	e0 91 8a 04 	lds	r30, 0x048A
    306e:	f0 91 8b 04 	lds	r31, 0x048B
    3072:	e8 17       	cp	r30, r24
    3074:	f9 07       	cpc	r31, r25
    3076:	69 f4       	brne	.+26     	;  0x3092
    3078:	a3 89       	ldd	r26, Z+19	; 0x13
    307a:	b4 89       	ldd	r27, Z+20	; 0x14
    307c:	9c 91       	ld	r25, X
    307e:	85 89       	ldd	r24, Z+21	; 0x15
    3080:	80 95       	com	r24
    3082:	89 23       	and	r24, r25
    3084:	8c 93       	st	X, r24
    3086:	10 92 8b 04 	sts	0x048B, r1
    308a:	10 92 8a 04 	sts	0x048A, r1
    308e:	81 e0       	ldi	r24, 0x01	; 1
    3090:	08 95       	ret
    3092:	80 e0       	ldi	r24, 0x00	; 0
    3094:	08 95       	ret
    3096:	cf 93       	push	r28
    3098:	df 93       	push	r29
    309a:	ec 01       	movw	r28, r24
    309c:	8a 8d       	ldd	r24, Y+26	; 0x1a
    309e:	9b 8d       	ldd	r25, Y+27	; 0x1b
    30a0:	89 2b       	or	r24, r25
    30a2:	f1 f0       	breq	.+60     	;  0x30e0
    30a4:	80 91 8a 04 	lds	r24, 0x048A
    30a8:	90 91 8b 04 	lds	r25, 0x048B
    30ac:	8c 17       	cp	r24, r28
    30ae:	9d 07       	cpc	r25, r29
    30b0:	b9 f0       	breq	.+46     	;  0x30e0
    30b2:	00 97       	sbiw	r24, 0x00	; 0
    30b4:	11 f0       	breq	.+4      	;  0x30ba
    30b6:	0e 94 35 18 	call	0x306a	;  0x306a
    30ba:	8e 8d       	ldd	r24, Y+30	; 0x1e
    30bc:	8e 7f       	andi	r24, 0xFE	; 254
    30be:	8e 8f       	std	Y+30, r24	; 0x1e
    30c0:	10 92 49 04 	sts	0x0449, r1
    30c4:	10 92 48 04 	sts	0x0448, r1
    30c8:	d0 93 8b 04 	sts	0x048B, r29
    30cc:	c0 93 8a 04 	sts	0x048A, r28
    30d0:	eb 89       	ldd	r30, Y+19	; 0x13
    30d2:	fc 89       	ldd	r31, Y+20	; 0x14
    30d4:	90 81       	ld	r25, Z
    30d6:	8d 89       	ldd	r24, Y+21	; 0x15
    30d8:	89 2b       	or	r24, r25
    30da:	80 83       	st	Z, r24
    30dc:	81 e0       	ldi	r24, 0x01	; 1
    30de:	01 c0       	rjmp	.+2      	;  0x30e2
    30e0:	80 e0       	ldi	r24, 0x00	; 0
    30e2:	df 91       	pop	r29
    30e4:	cf 91       	pop	r28
    30e6:	08 95       	ret
    30e8:	1f 92       	push	r1
    30ea:	0f 92       	push	r0
    30ec:	0f b6       	in	r0, 0x3f	; 63
    30ee:	0f 92       	push	r0
    30f0:	11 24       	eor	r1, r1
    30f2:	2f 93       	push	r18
    30f4:	3f 93       	push	r19
    30f6:	4f 93       	push	r20
    30f8:	5f 93       	push	r21
    30fa:	6f 93       	push	r22
    30fc:	7f 93       	push	r23
    30fe:	8f 93       	push	r24
    3100:	9f 93       	push	r25
    3102:	af 93       	push	r26
    3104:	bf 93       	push	r27
    3106:	ef 93       	push	r30
    3108:	ff 93       	push	r31
    310a:	e0 91 8a 04 	lds	r30, 0x048A
    310e:	f0 91 8b 04 	lds	r31, 0x048B
    3112:	30 97       	sbiw	r30, 0x00	; 0
    3114:	09 f4       	brne	.+2      	;  0x3118
    3116:	51 c0       	rjmp	.+162    	;  0x31ba
    3118:	96 8d       	ldd	r25, Z+30	; 0x1e
    311a:	a6 85       	ldd	r26, Z+14	; 0x0e
    311c:	b7 85       	ldd	r27, Z+15	; 0x0f
    311e:	85 85       	ldd	r24, Z+13	; 0x0d
    3120:	91 ff       	sbrs	r25, 1
    3122:	04 c0       	rjmp	.+8      	;  0x312c
    3124:	9c 91       	ld	r25, X
    3126:	89 23       	and	r24, r25
    3128:	29 f4       	brne	.+10     	;  0x3134
    312a:	47 c0       	rjmp	.+142    	;  0x31ba
    312c:	9c 91       	ld	r25, X
    312e:	89 23       	and	r24, r25
    3130:	09 f0       	breq	.+2      	;  0x3134
    3132:	43 c0       	rjmp	.+134    	;  0x31ba
    3134:	a3 89       	ldd	r26, Z+19	; 0x13
    3136:	b4 89       	ldd	r27, Z+20	; 0x14
    3138:	9c 91       	ld	r25, X
    313a:	85 89       	ldd	r24, Z+21	; 0x15
    313c:	80 95       	com	r24
    313e:	89 23       	and	r24, r25
    3140:	8c 93       	st	X, r24
    3142:	86 89       	ldd	r24, Z+22	; 0x16
    3144:	97 89       	ldd	r25, Z+23	; 0x17
    3146:	01 97       	sbiw	r24, 0x01	; 1
    3148:	f1 f7       	brne	.-4      	;  0x3146
    314a:	60 8d       	ldd	r22, Z+24	; 0x18
    314c:	71 8d       	ldd	r23, Z+25	; 0x19
    314e:	a6 85       	ldd	r26, Z+14	; 0x0e
    3150:	b7 85       	ldd	r27, Z+15	; 0x0f
    3152:	55 85       	ldd	r21, Z+13	; 0x0d
    3154:	38 e0       	ldi	r19, 0x08	; 8
    3156:	20 e0       	ldi	r18, 0x00	; 0
    3158:	cb 01       	movw	r24, r22
    315a:	01 97       	sbiw	r24, 0x01	; 1
    315c:	f1 f7       	brne	.-4      	;  0x315a
    315e:	82 2f       	mov	r24, r18
    3160:	90 e0       	ldi	r25, 0x00	; 0
    3162:	95 95       	asr	r25
    3164:	87 95       	ror	r24
    3166:	28 2f       	mov	r18, r24
    3168:	4c 91       	ld	r20, X
    316a:	45 23       	and	r20, r21
    316c:	09 f0       	breq	.+2      	;  0x3170
    316e:	20 68       	ori	r18, 0x80	; 128
    3170:	31 50       	subi	r19, 0x01	; 1
    3172:	91 f7       	brne	.-28     	;  0x3158
    3174:	86 8d       	ldd	r24, Z+30	; 0x1e
    3176:	81 fd       	sbrc	r24, 1
    3178:	20 95       	com	r18
    317a:	80 91 49 04 	lds	r24, 0x0449
    317e:	90 e0       	ldi	r25, 0x00	; 0
    3180:	01 96       	adiw	r24, 0x01	; 1
    3182:	8f 73       	andi	r24, 0x3F	; 63
    3184:	99 27       	eor	r25, r25
    3186:	30 91 48 04 	lds	r19, 0x0448
    318a:	38 17       	cp	r19, r24
    318c:	49 f0       	breq	.+18     	;  0x31a0
    318e:	a0 91 49 04 	lds	r26, 0x0449
    3192:	b0 e0       	ldi	r27, 0x00	; 0
    3194:	a6 5b       	subi	r26, 0xB6	; 182
    3196:	bb 4f       	sbci	r27, 0xFB	; 251
    3198:	2c 93       	st	X, r18
    319a:	80 93 49 04 	sts	0x0449, r24
    319e:	03 c0       	rjmp	.+6      	;  0x31a6
    31a0:	86 8d       	ldd	r24, Z+30	; 0x1e
    31a2:	81 60       	ori	r24, 0x01	; 1
    31a4:	86 8f       	std	Z+30, r24	; 0x1e
    31a6:	82 8d       	ldd	r24, Z+26	; 0x1a
    31a8:	93 8d       	ldd	r25, Z+27	; 0x1b
    31aa:	01 97       	sbiw	r24, 0x01	; 1
    31ac:	f1 f7       	brne	.-4      	;  0x31aa
    31ae:	a3 89       	ldd	r26, Z+19	; 0x13
    31b0:	b4 89       	ldd	r27, Z+20	; 0x14
    31b2:	9c 91       	ld	r25, X
    31b4:	85 89       	ldd	r24, Z+21	; 0x15
    31b6:	89 2b       	or	r24, r25
    31b8:	8c 93       	st	X, r24
    31ba:	ff 91       	pop	r31
    31bc:	ef 91       	pop	r30
    31be:	bf 91       	pop	r27
    31c0:	af 91       	pop	r26
    31c2:	9f 91       	pop	r25
    31c4:	8f 91       	pop	r24
    31c6:	7f 91       	pop	r23
    31c8:	6f 91       	pop	r22
    31ca:	5f 91       	pop	r21
    31cc:	4f 91       	pop	r20
    31ce:	3f 91       	pop	r19
    31d0:	2f 91       	pop	r18
    31d2:	0f 90       	pop	r0
    31d4:	0f be       	out	0x3f, r0	; 63
    31d6:	0f 90       	pop	r0
    31d8:	1f 90       	pop	r1
    31da:	18 95       	reti
    31dc:	25 e8       	ldi	r18, 0x85	; 133
    31de:	31 e0       	ldi	r19, 0x01	; 1
    31e0:	fc 01       	movw	r30, r24
    31e2:	31 83       	std	Z+1, r19	; 0x01
    31e4:	20 83       	st	Z, r18
    31e6:	0c 94 35 18 	jmp	0x306a	;  0x306a
    31ea:	1f 93       	push	r17
    31ec:	cf 93       	push	r28
    31ee:	df 93       	push	r29
    31f0:	ec 01       	movw	r28, r24
    31f2:	16 2f       	mov	r17, r22
    31f4:	6e 8d       	ldd	r22, Y+30	; 0x1e
    31f6:	66 95       	lsr	r22
    31f8:	61 70       	andi	r22, 0x01	; 1
    31fa:	81 e0       	ldi	r24, 0x01	; 1
    31fc:	68 27       	eor	r22, r24
    31fe:	81 2f       	mov	r24, r17
    3200:	0e 94 de 13 	call	0x27bc	;  0x27bc
    3204:	61 e0       	ldi	r22, 0x01	; 1
    3206:	81 2f       	mov	r24, r17
    3208:	0e 94 a2 13 	call	0x2744	;  0x2744
    320c:	61 2f       	mov	r22, r17
    320e:	70 e0       	ldi	r23, 0x00	; 0
    3210:	fb 01       	movw	r30, r22
    3212:	e3 55       	subi	r30, 0x53	; 83
    3214:	fe 4f       	sbci	r31, 0xFE	; 254
    3216:	e4 91       	lpm	r30, Z
    3218:	e8 8b       	std	Y+16, r30	; 0x10
    321a:	fb 01       	movw	r30, r22
    321c:	e4 53       	subi	r30, 0x34	; 52
    321e:	fe 4f       	sbci	r31, 0xFE	; 254
    3220:	e4 91       	lpm	r30, Z
    3222:	f0 e0       	ldi	r31, 0x00	; 0
    3224:	ee 0f       	add	r30, r30
    3226:	ff 1f       	adc	r31, r31
    3228:	e7 50       	subi	r30, 0x07	; 7
    322a:	fe 4f       	sbci	r31, 0xFE	; 254
    322c:	85 91       	lpm	r24, Z+
    322e:	94 91       	lpm	r25, Z
    3230:	9a 8b       	std	Y+18, r25	; 0x12
    3232:	89 8b       	std	Y+17, r24	; 0x11
    3234:	df 91       	pop	r29
    3236:	cf 91       	pop	r28
    3238:	1f 91       	pop	r17
    323a:	08 95       	ret
    323c:	1f 93       	push	r17
    323e:	cf 93       	push	r28
    3240:	df 93       	push	r29
    3242:	ec 01       	movw	r28, r24
    3244:	16 2f       	mov	r17, r22
    3246:	60 e0       	ldi	r22, 0x00	; 0
    3248:	81 2f       	mov	r24, r17
    324a:	0e 94 a2 13 	call	0x2744	;  0x2744
    324e:	8e 8d       	ldd	r24, Y+30	; 0x1e
    3250:	81 fd       	sbrc	r24, 1
    3252:	04 c0       	rjmp	.+8      	;  0x325c
    3254:	61 e0       	ldi	r22, 0x01	; 1
    3256:	81 2f       	mov	r24, r17
    3258:	0e 94 de 13 	call	0x27bc	;  0x27bc
    325c:	1c 87       	std	Y+12, r17	; 0x0c
    325e:	61 2f       	mov	r22, r17
    3260:	70 e0       	ldi	r23, 0x00	; 0
    3262:	fb 01       	movw	r30, r22
    3264:	e3 55       	subi	r30, 0x53	; 83
    3266:	fe 4f       	sbci	r31, 0xFE	; 254
    3268:	e4 91       	lpm	r30, Z
    326a:	ed 87       	std	Y+13, r30	; 0x0d
    326c:	fb 01       	movw	r30, r22
    326e:	e4 53       	subi	r30, 0x34	; 52
    3270:	fe 4f       	sbci	r31, 0xFE	; 254
    3272:	e4 91       	lpm	r30, Z
    3274:	f0 e0       	ldi	r31, 0x00	; 0
    3276:	ee 0f       	add	r30, r30
    3278:	ff 1f       	adc	r31, r31
    327a:	e5 51       	subi	r30, 0x15	; 21
    327c:	fe 4f       	sbci	r31, 0xFE	; 254
    327e:	85 91       	lpm	r24, Z+
    3280:	94 91       	lpm	r25, Z
    3282:	9f 87       	std	Y+15, r25	; 0x0f
    3284:	8e 87       	std	Y+14, r24	; 0x0e
    3286:	df 91       	pop	r29
    3288:	cf 91       	pop	r28
    328a:	1f 91       	pop	r17
    328c:	08 95       	ret
    328e:	1f 93       	push	r17
    3290:	cf 93       	push	r28
    3292:	df 93       	push	r29
    3294:	ec 01       	movw	r28, r24
    3296:	16 2f       	mov	r17, r22
    3298:	1b 82       	std	Y+3, r1	; 0x03
    329a:	1a 82       	std	Y+2, r1	; 0x02
    329c:	88 ee       	ldi	r24, 0xE8	; 232
    329e:	93 e0       	ldi	r25, 0x03	; 3
    32a0:	a0 e0       	ldi	r26, 0x00	; 0
    32a2:	b0 e0       	ldi	r27, 0x00	; 0
    32a4:	8c 83       	std	Y+4, r24	; 0x04
    32a6:	9d 83       	std	Y+5, r25	; 0x05
    32a8:	ae 83       	std	Y+6, r26	; 0x06
    32aa:	bf 83       	std	Y+7, r27	; 0x07
    32ac:	85 e8       	ldi	r24, 0x85	; 133
    32ae:	91 e0       	ldi	r25, 0x01	; 1
    32b0:	99 83       	std	Y+1, r25	; 0x01
    32b2:	88 83       	st	Y, r24
    32b4:	1f 8a       	std	Y+23, r1	; 0x17
    32b6:	1e 8a       	std	Y+22, r1	; 0x16
    32b8:	19 8e       	std	Y+25, r1	; 0x19
    32ba:	18 8e       	std	Y+24, r1	; 0x18
    32bc:	1b 8e       	std	Y+27, r1	; 0x1b
    32be:	1a 8e       	std	Y+26, r1	; 0x1a
    32c0:	1d 8e       	std	Y+29, r1	; 0x1d
    32c2:	1c 8e       	std	Y+28, r1	; 0x1c
    32c4:	8e 8d       	ldd	r24, Y+30	; 0x1e
    32c6:	8e 7f       	andi	r24, 0xFE	; 254
    32c8:	20 fb       	bst	r18, 0
    32ca:	81 f9       	bld	r24, 1
    32cc:	8e 8f       	std	Y+30, r24	; 0x1e
    32ce:	64 2f       	mov	r22, r20
    32d0:	ce 01       	movw	r24, r28
    32d2:	0e 94 f5 18 	call	0x31ea	;  0x31ea
    32d6:	61 2f       	mov	r22, r17
    32d8:	ce 01       	movw	r24, r28
    32da:	df 91       	pop	r29
    32dc:	cf 91       	pop	r28
    32de:	1f 91       	pop	r17
    32e0:	0c 94 1e 19 	jmp	0x323c	;  0x323c
    32e4:	cf 93       	push	r28
    32e6:	df 93       	push	r29
    32e8:	ec 01       	movw	r28, r24
    32ea:	9a 01       	movw	r18, r20
    32ec:	ab 01       	movw	r20, r22
    32ee:	1b 8e       	std	Y+27, r1	; 0x1b
    32f0:	1a 8e       	std	Y+26, r1	; 0x1a
    32f2:	19 8e       	std	Y+25, r1	; 0x19
    32f4:	18 8e       	std	Y+24, r1	; 0x18
    32f6:	1f 8a       	std	Y+23, r1	; 0x17
    32f8:	1e 8a       	std	Y+22, r1	; 0x16
    32fa:	60 e0       	ldi	r22, 0x00	; 0
    32fc:	79 e0       	ldi	r23, 0x09	; 9
    32fe:	8d e3       	ldi	r24, 0x3D	; 61
    3300:	90 e0       	ldi	r25, 0x00	; 0
    3302:	0e 94 34 25 	call	0x4a68	;  0x4a68
    3306:	f9 01       	movw	r30, r18
    3308:	24 30       	cpi	r18, 0x04	; 4
    330a:	31 05       	cpc	r19, r1
    330c:	18 f0       	brcs	.+6      	;  0x3314
    330e:	c9 01       	movw	r24, r18
    3310:	03 97       	sbiw	r24, 0x03	; 3
    3312:	02 c0       	rjmp	.+4      	;  0x3318
    3314:	81 e0       	ldi	r24, 0x01	; 1
    3316:	90 e0       	ldi	r25, 0x00	; 0
    3318:	9d 8f       	std	Y+29, r25	; 0x1d
    331a:	8c 8f       	std	Y+28, r24	; 0x1c
    331c:	8c 85       	ldd	r24, Y+12	; 0x0c
    331e:	98 ef       	ldi	r25, 0xF8	; 248
    3320:	98 0f       	add	r25, r24
    3322:	94 30       	cpi	r25, 0x04	; 4
    3324:	48 f0       	brcs	.+18     	;  0x3338
    3326:	62 ef       	ldi	r22, 0xF2	; 242
    3328:	68 0f       	add	r22, r24
    332a:	64 30       	cpi	r22, 0x04	; 4
    332c:	28 f0       	brcs	.+10     	;  0x3338
    332e:	66 ee       	ldi	r22, 0xE6	; 230
    3330:	68 0f       	add	r22, r24
    3332:	63 30       	cpi	r22, 0x03	; 3
    3334:	08 f0       	brcs	.+2      	;  0x3338
    3336:	71 c0       	rjmp	.+226    	;  0x341a
    3338:	b9 01       	movw	r22, r18
    333a:	76 95       	lsr	r23
    333c:	67 95       	ror	r22
    333e:	64 31       	cpi	r22, 0x14	; 20
    3340:	71 05       	cpc	r23, r1
    3342:	18 f0       	brcs	.+6      	;  0x334a
    3344:	63 51       	subi	r22, 0x13	; 19
    3346:	71 09       	sbc	r23, r1
    3348:	02 c0       	rjmp	.+4      	;  0x334e
    334a:	61 e0       	ldi	r22, 0x01	; 1
    334c:	70 e0       	ldi	r23, 0x00	; 0
    334e:	7f 8b       	std	Y+23, r23	; 0x17
    3350:	6e 8b       	std	Y+22, r22	; 0x16
    3352:	36 97       	sbiw	r30, 0x06	; 6
    3354:	20 f0       	brcs	.+8      	;  0x335e
    3356:	b9 01       	movw	r22, r18
    3358:	65 50       	subi	r22, 0x05	; 5
    335a:	71 09       	sbc	r23, r1
    335c:	02 c0       	rjmp	.+4      	;  0x3362
    335e:	61 e0       	ldi	r22, 0x01	; 1
    3360:	70 e0       	ldi	r23, 0x00	; 0
    3362:	79 8f       	std	Y+25, r23	; 0x19
    3364:	68 8f       	std	Y+24, r22	; 0x18
    3366:	b9 01       	movw	r22, r18
    3368:	66 0f       	add	r22, r22
    336a:	77 1f       	adc	r23, r23
    336c:	26 0f       	add	r18, r22
    336e:	37 1f       	adc	r19, r23
    3370:	36 95       	lsr	r19
    3372:	27 95       	ror	r18
    3374:	36 95       	lsr	r19
    3376:	27 95       	ror	r18
    3378:	2d 30       	cpi	r18, 0x0D	; 13
    337a:	31 05       	cpc	r19, r1
    337c:	18 f0       	brcs	.+6      	;  0x3384
    337e:	2c 50       	subi	r18, 0x0C	; 12
    3380:	31 09       	sbc	r19, r1
    3382:	02 c0       	rjmp	.+4      	;  0x3388
    3384:	21 e0       	ldi	r18, 0x01	; 1
    3386:	30 e0       	ldi	r19, 0x00	; 0
    3388:	3b 8f       	std	Y+27, r19	; 0x1b
    338a:	2a 8f       	std	Y+26, r18	; 0x1a
    338c:	94 30       	cpi	r25, 0x04	; 4
    338e:	58 f0       	brcs	.+22     	;  0x33a6
    3390:	92 ef       	ldi	r25, 0xF2	; 242
    3392:	98 0f       	add	r25, r24
    3394:	94 30       	cpi	r25, 0x04	; 4
    3396:	38 f0       	brcs	.+14     	;  0x33a6
    3398:	8a 51       	subi	r24, 0x1A	; 26
    339a:	83 30       	cpi	r24, 0x03	; 3
    339c:	08 f4       	brcc	.+2      	;  0x33a0
    339e:	42 c0       	rjmp	.+132    	;  0x3424
    33a0:	a0 e0       	ldi	r26, 0x00	; 0
    33a2:	b0 e0       	ldi	r27, 0x00	; 0
    33a4:	41 c0       	rjmp	.+130    	;  0x3428
    33a6:	a8 e6       	ldi	r26, 0x68	; 104
    33a8:	b0 e0       	ldi	r27, 0x00	; 0
    33aa:	e8 e6       	ldi	r30, 0x68	; 104
    33ac:	f0 e0       	ldi	r31, 0x00	; 0
    33ae:	80 81       	ld	r24, Z
    33b0:	81 60       	ori	r24, 0x01	; 1
    33b2:	8c 93       	st	X, r24
    33b4:	8c 85       	ldd	r24, Y+12	; 0x0c
    33b6:	98 ef       	ldi	r25, 0xF8	; 248
    33b8:	98 0f       	add	r25, r24
    33ba:	94 30       	cpi	r25, 0x04	; 4
    33bc:	58 f0       	brcs	.+22     	;  0x33d4
    33be:	22 ef       	ldi	r18, 0xF2	; 242
    33c0:	28 0f       	add	r18, r24
    33c2:	24 30       	cpi	r18, 0x04	; 4
    33c4:	38 f0       	brcs	.+14     	;  0x33d4
    33c6:	26 ee       	ldi	r18, 0xE6	; 230
    33c8:	28 0f       	add	r18, r24
    33ca:	23 30       	cpi	r18, 0x03	; 3
    33cc:	18 f0       	brcs	.+6      	;  0x33d4
    33ce:	20 e0       	ldi	r18, 0x00	; 0
    33d0:	30 e0       	ldi	r19, 0x00	; 0
    33d2:	02 c0       	rjmp	.+4      	;  0x33d8
    33d4:	2b e6       	ldi	r18, 0x6B	; 107
    33d6:	30 e0       	ldi	r19, 0x00	; 0
    33d8:	3c 8b       	std	Y+20, r19	; 0x14
    33da:	2b 8b       	std	Y+19, r18	; 0x13
    33dc:	94 30       	cpi	r25, 0x04	; 4
    33de:	10 f4       	brcc	.+4      	;  0x33e4
    33e0:	84 50       	subi	r24, 0x04	; 4
    33e2:	09 c0       	rjmp	.+18     	;  0x33f6
    33e4:	8e 30       	cpi	r24, 0x0E	; 14
    33e6:	69 f0       	breq	.+26     	;  0x3402
    33e8:	8f 30       	cpi	r24, 0x0F	; 15
    33ea:	69 f0       	breq	.+26     	;  0x3406
    33ec:	80 31       	cpi	r24, 0x10	; 16
    33ee:	69 f0       	breq	.+26     	;  0x340a
    33f0:	81 31       	cpi	r24, 0x11	; 17
    33f2:	69 f0       	breq	.+26     	;  0x340e
    33f4:	86 51       	subi	r24, 0x16	; 22
    33f6:	91 e0       	ldi	r25, 0x01	; 1
    33f8:	01 c0       	rjmp	.+2      	;  0x33fc
    33fa:	99 0f       	add	r25, r25
    33fc:	8a 95       	dec	r24
    33fe:	ea f7       	brpl	.-6      	;  0x33fa
    3400:	07 c0       	rjmp	.+14     	;  0x3410
    3402:	98 e0       	ldi	r25, 0x08	; 8
    3404:	05 c0       	rjmp	.+10     	;  0x3410
    3406:	92 e0       	ldi	r25, 0x02	; 2
    3408:	03 c0       	rjmp	.+6      	;  0x3410
    340a:	94 e0       	ldi	r25, 0x04	; 4
    340c:	01 c0       	rjmp	.+2      	;  0x3410
    340e:	91 e0       	ldi	r25, 0x01	; 1
    3410:	9d 8b       	std	Y+21, r25	; 0x15
    3412:	8c 8d       	ldd	r24, Y+28	; 0x1c
    3414:	9d 8d       	ldd	r25, Y+29	; 0x1d
    3416:	01 97       	sbiw	r24, 0x01	; 1
    3418:	f1 f7       	brne	.-4      	;  0x3416
    341a:	ce 01       	movw	r24, r28
    341c:	df 91       	pop	r29
    341e:	cf 91       	pop	r28
    3420:	0c 94 4b 18 	jmp	0x3096	;  0x3096
    3424:	a8 e6       	ldi	r26, 0x68	; 104
    3426:	b0 e0       	ldi	r27, 0x00	; 0
    3428:	83 30       	cpi	r24, 0x03	; 3
    342a:	08 f4       	brcc	.+2      	;  0x342e
    342c:	be cf       	rjmp	.-132    	;  0x33aa
    342e:	e0 e0       	ldi	r30, 0x00	; 0
    3430:	f0 e0       	ldi	r31, 0x00	; 0
    3432:	bd cf       	rjmp	.-134    	;  0x33ae
    3434:	fc 01       	movw	r30, r24
    3436:	13 82       	std	Z+3, r1	; 0x03
    3438:	12 82       	std	Z+2, r1	; 0x02
    343a:	88 ee       	ldi	r24, 0xE8	; 232
    343c:	93 e0       	ldi	r25, 0x03	; 3
    343e:	a0 e0       	ldi	r26, 0x00	; 0
    3440:	b0 e0       	ldi	r27, 0x00	; 0
    3442:	84 83       	std	Z+4, r24	; 0x04
    3444:	95 83       	std	Z+5, r25	; 0x05
    3446:	a6 83       	std	Z+6, r26	; 0x06
    3448:	b7 83       	std	Z+7, r27	; 0x07
    344a:	85 e9       	ldi	r24, 0x95	; 149
    344c:	91 e0       	ldi	r25, 0x01	; 1
    344e:	91 83       	std	Z+1, r25	; 0x01
    3450:	80 83       	st	Z, r24
    3452:	08 95       	ret
    3454:	81 e0       	ldi	r24, 0x01	; 1
    3456:	80 93 02 04 	sts	0x0402, r24
    345a:	60 93 25 04 	sts	0x0425, r22
    345e:	10 92 04 04 	sts	0x0404, r1
    3462:	10 92 03 04 	sts	0x0403, r1
    3466:	08 95       	ret
    3468:	10 92 f5 03 	sts	0x03F5, r1
    346c:	81 e0       	ldi	r24, 0x01	; 1
    346e:	80 93 f3 03 	sts	0x03F3, r24
    3472:	10 92 f2 03 	sts	0x03F2, r1
    3476:	61 e0       	ldi	r22, 0x01	; 1
    3478:	82 e0       	ldi	r24, 0x02	; 2
    347a:	0e 94 de 13 	call	0x27bc	;  0x27bc
    347e:	61 e0       	ldi	r22, 0x01	; 1
    3480:	83 e0       	ldi	r24, 0x03	; 3
    3482:	0e 94 de 13 	call	0x27bc	;  0x27bc
    3486:	e9 eb       	ldi	r30, 0xB9	; 185
    3488:	f0 e0       	ldi	r31, 0x00	; 0
    348a:	80 81       	ld	r24, Z
    348c:	8e 7f       	andi	r24, 0xFE	; 254
    348e:	80 83       	st	Z, r24
    3490:	80 81       	ld	r24, Z
    3492:	8d 7f       	andi	r24, 0xFD	; 253
    3494:	80 83       	st	Z, r24
    3496:	88 e4       	ldi	r24, 0x48	; 72
    3498:	80 93 b8 00 	sts	0x00B8, r24
    349c:	85 e4       	ldi	r24, 0x45	; 69
    349e:	80 93 bc 00 	sts	0x00BC, r24
    34a2:	08 95       	ret
    34a4:	10 92 27 04 	sts	0x0427, r1
    34a8:	10 92 26 04 	sts	0x0426, r1
    34ac:	10 92 04 04 	sts	0x0404, r1
    34b0:	10 92 03 04 	sts	0x0403, r1
    34b4:	0c 94 34 1a 	jmp	0x3468	;  0x3468
    34b8:	0f 93       	push	r16
    34ba:	41 32       	cpi	r20, 0x21	; 33
    34bc:	e8 f5       	brcc	.+122    	;  0x3538
    34be:	90 91 f5 03 	lds	r25, 0x03F5
    34c2:	91 11       	cpse	r25, r1
    34c4:	fc cf       	rjmp	.-8      	;  0x34be
    34c6:	32 e0       	ldi	r19, 0x02	; 2
    34c8:	30 93 f5 03 	sts	0x03F5, r19
    34cc:	00 93 f3 03 	sts	0x03F3, r16
    34d0:	3f ef       	ldi	r19, 0xFF	; 255
    34d2:	30 93 88 03 	sts	0x0388, r19
    34d6:	10 92 cd 03 	sts	0x03CD, r1
    34da:	40 93 cc 03 	sts	0x03CC, r20
    34de:	fb 01       	movw	r30, r22
    34e0:	6e ec       	ldi	r22, 0xCE	; 206
    34e2:	73 e0       	ldi	r23, 0x03	; 3
    34e4:	db 01       	movw	r26, r22
    34e6:	3a 2f       	mov	r19, r26
    34e8:	36 1b       	sub	r19, r22
    34ea:	34 17       	cp	r19, r20
    34ec:	18 f4       	brcc	.+6      	;  0x34f4
    34ee:	31 91       	ld	r19, Z+
    34f0:	3d 93       	st	X+, r19
    34f2:	f9 cf       	rjmp	.-14     	;  0x34e6
    34f4:	10 92 f4 03 	sts	0x03F4, r1
    34f8:	30 91 f4 03 	lds	r19, 0x03F4
    34fc:	88 0f       	add	r24, r24
    34fe:	83 2b       	or	r24, r19
    3500:	80 93 f4 03 	sts	0x03F4, r24
    3504:	80 91 f2 03 	lds	r24, 0x03F2
    3508:	81 30       	cpi	r24, 0x01	; 1
    350a:	61 f4       	brne	.+24     	;  0x3524
    350c:	10 92 f2 03 	sts	0x03F2, r1
    3510:	80 91 f4 03 	lds	r24, 0x03F4
    3514:	80 93 bb 00 	sts	0x00BB, r24
    3518:	80 91 bc 00 	lds	r24, 0x00BC
    351c:	83 fd       	sbrc	r24, 3
    351e:	f8 cf       	rjmp	.-16     	;  0x3510
    3520:	85 ec       	ldi	r24, 0xC5	; 197
    3522:	01 c0       	rjmp	.+2      	;  0x3526
    3524:	85 ee       	ldi	r24, 0xE5	; 229
    3526:	80 93 bc 00 	sts	0x00BC, r24
    352a:	22 23       	and	r18, r18
    352c:	39 f0       	breq	.+14     	;  0x353c
    352e:	80 91 f5 03 	lds	r24, 0x03F5
    3532:	82 30       	cpi	r24, 0x02	; 2
    3534:	19 f4       	brne	.+6      	;  0x353c
    3536:	f9 cf       	rjmp	.-14     	;  0x352a
    3538:	91 e0       	ldi	r25, 0x01	; 1
    353a:	11 c0       	rjmp	.+34     	;  0x355e
    353c:	80 91 88 03 	lds	r24, 0x0388
    3540:	8f 3f       	cpi	r24, 0xFF	; 255
    3542:	69 f0       	breq	.+26     	;  0x355e
    3544:	80 91 88 03 	lds	r24, 0x0388
    3548:	80 32       	cpi	r24, 0x20	; 32
    354a:	31 f0       	breq	.+12     	;  0x3558
    354c:	80 91 88 03 	lds	r24, 0x0388
    3550:	80 33       	cpi	r24, 0x30	; 48
    3552:	21 f0       	breq	.+8      	;  0x355c
    3554:	94 e0       	ldi	r25, 0x04	; 4
    3556:	03 c0       	rjmp	.+6      	;  0x355e
    3558:	92 e0       	ldi	r25, 0x02	; 2
    355a:	01 c0       	rjmp	.+2      	;  0x355e
    355c:	93 e0       	ldi	r25, 0x03	; 3
    355e:	89 2f       	mov	r24, r25
    3560:	0f 91       	pop	r16
    3562:	08 95       	ret
    3564:	0f 93       	push	r16
    3566:	06 2f       	mov	r16, r22
    3568:	21 e0       	ldi	r18, 0x01	; 1
    356a:	40 91 03 04 	lds	r20, 0x0403
    356e:	65 e0       	ldi	r22, 0x05	; 5
    3570:	74 e0       	ldi	r23, 0x04	; 4
    3572:	80 91 25 04 	lds	r24, 0x0425
    3576:	0e 94 5c 1a 	call	0x34b8	;  0x34b8
    357a:	10 92 04 04 	sts	0x0404, r1
    357e:	10 92 03 04 	sts	0x0403, r1
    3582:	10 92 02 04 	sts	0x0402, r1
    3586:	0f 91       	pop	r16
    3588:	08 95       	ret
    358a:	61 e0       	ldi	r22, 0x01	; 1
    358c:	0c 94 b2 1a 	jmp	0x3564	;  0x3564
    3590:	61 32       	cpi	r22, 0x21	; 33
    3592:	98 f4       	brcc	.+38     	;  0x35ba
    3594:	20 91 f5 03 	lds	r18, 0x03F5
    3598:	24 30       	cpi	r18, 0x04	; 4
    359a:	89 f4       	brne	.+34     	;  0x35be
    359c:	60 93 aa 03 	sts	0x03AA, r22
    35a0:	fc 01       	movw	r30, r24
    35a2:	2c ea       	ldi	r18, 0xAC	; 172
    35a4:	33 e0       	ldi	r19, 0x03	; 3
    35a6:	d9 01       	movw	r26, r18
    35a8:	8a 2f       	mov	r24, r26
    35aa:	82 1b       	sub	r24, r18
    35ac:	86 17       	cp	r24, r22
    35ae:	18 f4       	brcc	.+6      	;  0x35b6
    35b0:	81 91       	ld	r24, Z+
    35b2:	8d 93       	st	X+, r24
    35b4:	f9 cf       	rjmp	.-14     	;  0x35a8
    35b6:	80 e0       	ldi	r24, 0x00	; 0
    35b8:	08 95       	ret
    35ba:	81 e0       	ldi	r24, 0x01	; 1
    35bc:	08 95       	ret
    35be:	82 e0       	ldi	r24, 0x02	; 2
    35c0:	08 95       	ret
    35c2:	cf 93       	push	r28
    35c4:	df 93       	push	r29
    35c6:	1f 92       	push	r1
    35c8:	cd b7       	in	r28, 0x3d	; 61
    35ca:	de b7       	in	r29, 0x3e	; 62
    35cc:	69 83       	std	Y+1, r22	; 0x01
    35ce:	20 91 02 04 	lds	r18, 0x0402
    35d2:	22 23       	and	r18, r18
    35d4:	d1 f0       	breq	.+52     	;  0x360a
    35d6:	20 91 03 04 	lds	r18, 0x0403
    35da:	20 32       	cpi	r18, 0x20	; 32
    35dc:	40 f0       	brcs	.+16     	;  0x35ee
    35de:	21 e0       	ldi	r18, 0x01	; 1
    35e0:	30 e0       	ldi	r19, 0x00	; 0
    35e2:	fc 01       	movw	r30, r24
    35e4:	33 83       	std	Z+3, r19	; 0x03
    35e6:	22 83       	std	Z+2, r18	; 0x02
    35e8:	80 e0       	ldi	r24, 0x00	; 0
    35ea:	90 e0       	ldi	r25, 0x00	; 0
    35ec:	15 c0       	rjmp	.+42     	;  0x3618
    35ee:	80 91 04 04 	lds	r24, 0x0404
    35f2:	e8 2f       	mov	r30, r24
    35f4:	f0 e0       	ldi	r31, 0x00	; 0
    35f6:	eb 5f       	subi	r30, 0xFB	; 251
    35f8:	fb 4f       	sbci	r31, 0xFB	; 251
    35fa:	99 81       	ldd	r25, Y+1	; 0x01
    35fc:	90 83       	st	Z, r25
    35fe:	8f 5f       	subi	r24, 0xFF	; 255
    3600:	80 93 04 04 	sts	0x0404, r24
    3604:	80 93 03 04 	sts	0x0403, r24
    3608:	05 c0       	rjmp	.+10     	;  0x3614
    360a:	61 e0       	ldi	r22, 0x01	; 1
    360c:	ce 01       	movw	r24, r28
    360e:	01 96       	adiw	r24, 0x01	; 1
    3610:	0e 94 c8 1a 	call	0x3590	;  0x3590
    3614:	81 e0       	ldi	r24, 0x01	; 1
    3616:	90 e0       	ldi	r25, 0x00	; 0
    3618:	0f 90       	pop	r0
    361a:	df 91       	pop	r29
    361c:	cf 91       	pop	r28
    361e:	08 95       	ret
    3620:	cf 92       	push	r12
    3622:	df 92       	push	r13
    3624:	ef 92       	push	r14
    3626:	ff 92       	push	r15
    3628:	0f 93       	push	r16
    362a:	1f 93       	push	r17
    362c:	cf 93       	push	r28
    362e:	df 93       	push	r29
    3630:	7c 01       	movw	r14, r24
    3632:	26 2f       	mov	r18, r22
    3634:	97 2f       	mov	r25, r23
    3636:	8a 01       	movw	r16, r20
    3638:	80 91 02 04 	lds	r24, 0x0402
    363c:	88 23       	and	r24, r24
    363e:	91 f0       	breq	.+36     	;  0x3664
    3640:	c6 2f       	mov	r28, r22
    3642:	d7 2f       	mov	r29, r23
    3644:	6e 01       	movw	r12, r28
    3646:	c4 0e       	add	r12, r20
    3648:	d5 1e       	adc	r13, r21
    364a:	cc 15       	cp	r28, r12
    364c:	dd 05       	cpc	r29, r13
    364e:	71 f0       	breq	.+28     	;  0x366c
    3650:	69 91       	ld	r22, Y+
    3652:	d7 01       	movw	r26, r14
    3654:	ed 91       	ld	r30, X+
    3656:	fc 91       	ld	r31, X
    3658:	01 90       	ld	r0, Z+
    365a:	f0 81       	ld	r31, Z
    365c:	e0 2d       	mov	r30, r0
    365e:	c7 01       	movw	r24, r14
    3660:	09 95       	icall
    3662:	f3 cf       	rjmp	.-26     	;  0x364a
    3664:	64 2f       	mov	r22, r20
    3666:	82 2f       	mov	r24, r18
    3668:	0e 94 c8 1a 	call	0x3590	;  0x3590
    366c:	c8 01       	movw	r24, r16
    366e:	df 91       	pop	r29
    3670:	cf 91       	pop	r28
    3672:	1f 91       	pop	r17
    3674:	0f 91       	pop	r16
    3676:	ff 90       	pop	r15
    3678:	ef 90       	pop	r14
    367a:	df 90       	pop	r13
    367c:	cf 90       	pop	r12
    367e:	08 95       	ret
    3680:	85 ed       	ldi	r24, 0xD5	; 213
    3682:	80 93 bc 00 	sts	0x00BC, r24
    3686:	80 91 bc 00 	lds	r24, 0x00BC
    368a:	84 fd       	sbrc	r24, 4
    368c:	fc cf       	rjmp	.-8      	;  0x3686
    368e:	10 92 f5 03 	sts	0x03F5, r1
    3692:	08 95       	ret
    3694:	85 ec       	ldi	r24, 0xC5	; 197
    3696:	80 93 bc 00 	sts	0x00BC, r24
    369a:	10 92 f5 03 	sts	0x03F5, r1
    369e:	08 95       	ret
    36a0:	1f 92       	push	r1
    36a2:	0f 92       	push	r0
    36a4:	0f b6       	in	r0, 0x3f	; 63
    36a6:	0f 92       	push	r0
    36a8:	11 24       	eor	r1, r1
    36aa:	2f 93       	push	r18
    36ac:	3f 93       	push	r19
    36ae:	4f 93       	push	r20
    36b0:	5f 93       	push	r21
    36b2:	6f 93       	push	r22
    36b4:	7f 93       	push	r23
    36b6:	8f 93       	push	r24
    36b8:	9f 93       	push	r25
    36ba:	af 93       	push	r26
    36bc:	bf 93       	push	r27
    36be:	ef 93       	push	r30
    36c0:	ff 93       	push	r31
    36c2:	80 91 b9 00 	lds	r24, 0x00B9
    36c6:	88 7f       	andi	r24, 0xF8	; 248
    36c8:	80 36       	cpi	r24, 0x60	; 96
    36ca:	09 f4       	brne	.+2      	;  0x36ce
    36cc:	9e c0       	rjmp	.+316    	;  0x380a
    36ce:	78 f5       	brcc	.+94     	;  0x372e
    36d0:	88 32       	cpi	r24, 0x28	; 40
    36d2:	09 f4       	brne	.+2      	;  0x36d6
    36d4:	5d c0       	rjmp	.+186    	;  0x3790
    36d6:	90 f4       	brcc	.+36     	;  0x36fc
    36d8:	80 31       	cpi	r24, 0x10	; 16
    36da:	09 f4       	brne	.+2      	;  0x36de
    36dc:	56 c0       	rjmp	.+172    	;  0x378a
    36de:	38 f4       	brcc	.+14     	;  0x36ee
    36e0:	88 23       	and	r24, r24
    36e2:	09 f4       	brne	.+2      	;  0x36e6
    36e4:	f5 c0       	rjmp	.+490    	;  0x38d0
    36e6:	88 30       	cpi	r24, 0x08	; 8
    36e8:	09 f4       	brne	.+2      	;  0x36ec
    36ea:	4f c0       	rjmp	.+158    	;  0x378a
    36ec:	f5 c0       	rjmp	.+490    	;  0x38d8
    36ee:	88 31       	cpi	r24, 0x18	; 24
    36f0:	09 f4       	brne	.+2      	;  0x36f4
    36f2:	4e c0       	rjmp	.+156    	;  0x3790
    36f4:	80 32       	cpi	r24, 0x20	; 32
    36f6:	09 f4       	brne	.+2      	;  0x36fa
    36f8:	5f c0       	rjmp	.+190    	;  0x37b8
    36fa:	ee c0       	rjmp	.+476    	;  0x38d8
    36fc:	80 34       	cpi	r24, 0x40	; 64
    36fe:	09 f4       	brne	.+2      	;  0x3702
    3700:	6a c0       	rjmp	.+212    	;  0x37d6
    3702:	58 f4       	brcc	.+22     	;  0x371a
    3704:	80 33       	cpi	r24, 0x30	; 48
    3706:	09 f4       	brne	.+2      	;  0x370a
    3708:	57 c0       	rjmp	.+174    	;  0x37b8
    370a:	88 33       	cpi	r24, 0x38	; 56
    370c:	09 f0       	breq	.+2      	;  0x3710
    370e:	e4 c0       	rjmp	.+456    	;  0x38d8
    3710:	80 93 88 03 	sts	0x0388, r24
    3714:	0e 94 4a 1b 	call	0x3694	;  0x3694
    3718:	df c0       	rjmp	.+446    	;  0x38d8
    371a:	80 35       	cpi	r24, 0x50	; 80
    371c:	09 f4       	brne	.+2      	;  0x3720
    371e:	4f c0       	rjmp	.+158    	;  0x37be
    3720:	88 35       	cpi	r24, 0x58	; 88
    3722:	09 f4       	brne	.+2      	;  0x3726
    3724:	5d c0       	rjmp	.+186    	;  0x37e0
    3726:	88 34       	cpi	r24, 0x48	; 72
    3728:	09 f0       	breq	.+2      	;  0x372c
    372a:	d6 c0       	rjmp	.+428    	;  0x38d8
    372c:	d3 c0       	rjmp	.+422    	;  0x38d4
    372e:	88 39       	cpi	r24, 0x98	; 152
    3730:	09 f4       	brne	.+2      	;  0x3734
    3732:	c4 c0       	rjmp	.+392    	;  0x38bc
    3734:	a8 f4       	brcc	.+42     	;  0x3760
    3736:	88 37       	cpi	r24, 0x78	; 120
    3738:	09 f4       	brne	.+2      	;  0x373c
    373a:	67 c0       	rjmp	.+206    	;  0x380a
    373c:	38 f4       	brcc	.+14     	;  0x374c
    373e:	88 36       	cpi	r24, 0x68	; 104
    3740:	09 f4       	brne	.+2      	;  0x3744
    3742:	63 c0       	rjmp	.+198    	;  0x380a
    3744:	80 37       	cpi	r24, 0x70	; 112
    3746:	09 f4       	brne	.+2      	;  0x374a
    3748:	60 c0       	rjmp	.+192    	;  0x380a
    374a:	c6 c0       	rjmp	.+396    	;  0x38d8
    374c:	88 38       	cpi	r24, 0x88	; 136
    374e:	09 f4       	brne	.+2      	;  0x3752
    3750:	b5 c0       	rjmp	.+362    	;  0x38bc
    3752:	80 39       	cpi	r24, 0x90	; 144
    3754:	09 f4       	brne	.+2      	;  0x3758
    3756:	5f c0       	rjmp	.+190    	;  0x3816
    3758:	80 38       	cpi	r24, 0x80	; 128
    375a:	09 f0       	breq	.+2      	;  0x375e
    375c:	bd c0       	rjmp	.+378    	;  0x38d8
    375e:	5b c0       	rjmp	.+182    	;  0x3816
    3760:	80 3b       	cpi	r24, 0xB0	; 176
    3762:	09 f4       	brne	.+2      	;  0x3766
    3764:	83 c0       	rjmp	.+262    	;  0x386c
    3766:	38 f4       	brcc	.+14     	;  0x3776
    3768:	80 3a       	cpi	r24, 0xA0	; 160
    376a:	09 f4       	brne	.+2      	;  0x376e
    376c:	66 c0       	rjmp	.+204    	;  0x383a
    376e:	88 3a       	cpi	r24, 0xA8	; 168
    3770:	09 f4       	brne	.+2      	;  0x3774
    3772:	7c c0       	rjmp	.+248    	;  0x386c
    3774:	b1 c0       	rjmp	.+354    	;  0x38d8
    3776:	80 3c       	cpi	r24, 0xC0	; 192
    3778:	09 f4       	brne	.+2      	;  0x377c
    377a:	a4 c0       	rjmp	.+328    	;  0x38c4
    377c:	88 3c       	cpi	r24, 0xC8	; 200
    377e:	09 f4       	brne	.+2      	;  0x3782
    3780:	a1 c0       	rjmp	.+322    	;  0x38c4
    3782:	88 3b       	cpi	r24, 0xB8	; 184
    3784:	09 f4       	brne	.+2      	;  0x3788
    3786:	87 c0       	rjmp	.+270    	;  0x3896
    3788:	a7 c0       	rjmp	.+334    	;  0x38d8
    378a:	80 91 f4 03 	lds	r24, 0x03F4
    378e:	10 c0       	rjmp	.+32     	;  0x37b0
    3790:	90 91 cd 03 	lds	r25, 0x03CD
    3794:	80 91 cc 03 	lds	r24, 0x03CC
    3798:	98 17       	cp	r25, r24
    379a:	70 f5       	brcc	.+92     	;  0x37f8
    379c:	e0 91 cd 03 	lds	r30, 0x03CD
    37a0:	81 e0       	ldi	r24, 0x01	; 1
    37a2:	8e 0f       	add	r24, r30
    37a4:	80 93 cd 03 	sts	0x03CD, r24
    37a8:	f0 e0       	ldi	r31, 0x00	; 0
    37aa:	e2 53       	subi	r30, 0x32	; 50
    37ac:	fc 4f       	sbci	r31, 0xFC	; 252
    37ae:	80 81       	ld	r24, Z
    37b0:	80 93 bb 00 	sts	0x00BB, r24
    37b4:	85 ec       	ldi	r24, 0xC5	; 197
    37b6:	83 c0       	rjmp	.+262    	;  0x38be
    37b8:	80 93 88 03 	sts	0x0388, r24
    37bc:	8b c0       	rjmp	.+278    	;  0x38d4
    37be:	e0 91 cd 03 	lds	r30, 0x03CD
    37c2:	81 e0       	ldi	r24, 0x01	; 1
    37c4:	8e 0f       	add	r24, r30
    37c6:	80 93 cd 03 	sts	0x03CD, r24
    37ca:	80 91 bb 00 	lds	r24, 0x00BB
    37ce:	f0 e0       	ldi	r31, 0x00	; 0
    37d0:	e2 53       	subi	r30, 0x32	; 50
    37d2:	fc 4f       	sbci	r31, 0xFC	; 252
    37d4:	80 83       	st	Z, r24
    37d6:	90 91 cd 03 	lds	r25, 0x03CD
    37da:	80 91 cc 03 	lds	r24, 0x03CC
    37de:	6b c0       	rjmp	.+214    	;  0x38b6
    37e0:	e0 91 cd 03 	lds	r30, 0x03CD
    37e4:	81 e0       	ldi	r24, 0x01	; 1
    37e6:	8e 0f       	add	r24, r30
    37e8:	80 93 cd 03 	sts	0x03CD, r24
    37ec:	80 91 bb 00 	lds	r24, 0x00BB
    37f0:	f0 e0       	ldi	r31, 0x00	; 0
    37f2:	e2 53       	subi	r30, 0x32	; 50
    37f4:	fc 4f       	sbci	r31, 0xFC	; 252
    37f6:	80 83       	st	Z, r24
    37f8:	80 91 f3 03 	lds	r24, 0x03F3
    37fc:	81 11       	cpse	r24, r1
    37fe:	6a c0       	rjmp	.+212    	;  0x38d4
    3800:	81 e0       	ldi	r24, 0x01	; 1
    3802:	80 93 f2 03 	sts	0x03F2, r24
    3806:	84 ea       	ldi	r24, 0xA4	; 164
    3808:	5e c0       	rjmp	.+188    	;  0x38c6
    380a:	83 e0       	ldi	r24, 0x03	; 3
    380c:	80 93 f5 03 	sts	0x03F5, r24
    3810:	10 92 89 03 	sts	0x0389, r1
    3814:	cf cf       	rjmp	.-98     	;  0x37b4
    3816:	80 91 89 03 	lds	r24, 0x0389
    381a:	80 32       	cpi	r24, 0x20	; 32
    381c:	08 f0       	brcs	.+2      	;  0x3820
    381e:	4e c0       	rjmp	.+156    	;  0x38bc
    3820:	e0 91 89 03 	lds	r30, 0x0389
    3824:	81 e0       	ldi	r24, 0x01	; 1
    3826:	8e 0f       	add	r24, r30
    3828:	80 93 89 03 	sts	0x0389, r24
    382c:	80 91 bb 00 	lds	r24, 0x00BB
    3830:	f0 e0       	ldi	r31, 0x00	; 0
    3832:	e6 57       	subi	r30, 0x76	; 118
    3834:	fc 4f       	sbci	r31, 0xFC	; 252
    3836:	80 83       	st	Z, r24
    3838:	bd cf       	rjmp	.-134    	;  0x37b4
    383a:	0e 94 4a 1b 	call	0x3694	;  0x3694
    383e:	80 91 89 03 	lds	r24, 0x0389
    3842:	80 32       	cpi	r24, 0x20	; 32
    3844:	30 f4       	brcc	.+12     	;  0x3852
    3846:	e0 91 89 03 	lds	r30, 0x0389
    384a:	f0 e0       	ldi	r31, 0x00	; 0
    384c:	e6 57       	subi	r30, 0x76	; 118
    384e:	fc 4f       	sbci	r31, 0xFC	; 252
    3850:	10 82       	st	Z, r1
    3852:	60 91 89 03 	lds	r22, 0x0389
    3856:	70 e0       	ldi	r23, 0x00	; 0
    3858:	e0 91 ee 03 	lds	r30, 0x03EE
    385c:	f0 91 ef 03 	lds	r31, 0x03EF
    3860:	8a e8       	ldi	r24, 0x8A	; 138
    3862:	93 e0       	ldi	r25, 0x03	; 3
    3864:	09 95       	icall
    3866:	10 92 89 03 	sts	0x0389, r1
    386a:	36 c0       	rjmp	.+108    	;  0x38d8
    386c:	84 e0       	ldi	r24, 0x04	; 4
    386e:	80 93 f5 03 	sts	0x03F5, r24
    3872:	10 92 ab 03 	sts	0x03AB, r1
    3876:	10 92 aa 03 	sts	0x03AA, r1
    387a:	e0 91 f0 03 	lds	r30, 0x03F0
    387e:	f0 91 f1 03 	lds	r31, 0x03F1
    3882:	09 95       	icall
    3884:	80 91 aa 03 	lds	r24, 0x03AA
    3888:	81 11       	cpse	r24, r1
    388a:	05 c0       	rjmp	.+10     	;  0x3896
    388c:	81 e0       	ldi	r24, 0x01	; 1
    388e:	80 93 aa 03 	sts	0x03AA, r24
    3892:	10 92 ac 03 	sts	0x03AC, r1
    3896:	e0 91 ab 03 	lds	r30, 0x03AB
    389a:	81 e0       	ldi	r24, 0x01	; 1
    389c:	8e 0f       	add	r24, r30
    389e:	80 93 ab 03 	sts	0x03AB, r24
    38a2:	f0 e0       	ldi	r31, 0x00	; 0
    38a4:	e4 55       	subi	r30, 0x54	; 84
    38a6:	fc 4f       	sbci	r31, 0xFC	; 252
    38a8:	80 81       	ld	r24, Z
    38aa:	80 93 bb 00 	sts	0x00BB, r24
    38ae:	90 91 ab 03 	lds	r25, 0x03AB
    38b2:	80 91 aa 03 	lds	r24, 0x03AA
    38b6:	98 17       	cp	r25, r24
    38b8:	08 f4       	brcc	.+2      	;  0x38bc
    38ba:	7c cf       	rjmp	.-264    	;  0x37b4
    38bc:	85 e8       	ldi	r24, 0x85	; 133
    38be:	80 93 bc 00 	sts	0x00BC, r24
    38c2:	0a c0       	rjmp	.+20     	;  0x38d8
    38c4:	85 ec       	ldi	r24, 0xC5	; 197
    38c6:	80 93 bc 00 	sts	0x00BC, r24
    38ca:	10 92 f5 03 	sts	0x03F5, r1
    38ce:	04 c0       	rjmp	.+8      	;  0x38d8
    38d0:	10 92 88 03 	sts	0x0388, r1
    38d4:	0e 94 40 1b 	call	0x3680	;  0x3680
    38d8:	ff 91       	pop	r31
    38da:	ef 91       	pop	r30
    38dc:	bf 91       	pop	r27
    38de:	af 91       	pop	r26
    38e0:	9f 91       	pop	r25
    38e2:	8f 91       	pop	r24
    38e4:	7f 91       	pop	r23
    38e6:	6f 91       	pop	r22
    38e8:	5f 91       	pop	r21
    38ea:	4f 91       	pop	r20
    38ec:	3f 91       	pop	r19
    38ee:	2f 91       	pop	r18
    38f0:	0f 90       	pop	r0
    38f2:	0f be       	out	0x3f, r0	; 63
    38f4:	0f 90       	pop	r0
    38f6:	1f 90       	pop	r1
    38f8:	18 95       	reti
    38fa:	86 ef       	ldi	r24, 0xF6	; 246
    38fc:	93 e0       	ldi	r25, 0x03	; 3
    38fe:	0c 94 1a 1a 	jmp	0x3434	;  0x3434
    3902:	80 91 d8 04 	lds	r24, 0x04D8
    3906:	90 91 d9 04 	lds	r25, 0x04D9
    390a:	89 2b       	or	r24, r25
    390c:	49 f4       	brne	.+18     	;  0x3920
    390e:	81 e0       	ldi	r24, 0x01	; 1
    3910:	90 e0       	ldi	r25, 0x00	; 0
    3912:	90 93 d9 04 	sts	0x04D9, r25
    3916:	80 93 d8 04 	sts	0x04D8, r24
    391a:	40 e0       	ldi	r20, 0x00	; 0
    391c:	64 e6       	ldi	r22, 0x64	; 100
    391e:	06 c0       	rjmp	.+12     	;  0x392c
    3920:	10 92 d9 04 	sts	0x04D9, r1
    3924:	10 92 d8 04 	sts	0x04D8, r1
    3928:	40 e0       	ldi	r20, 0x00	; 0
    392a:	60 e0       	ldi	r22, 0x00	; 0
    392c:	81 e1       	ldi	r24, 0x11	; 17
    392e:	0c 94 d8 07 	jmp	0xfb0	;  0xfb0
    3932:	0f 93       	push	r16
    3934:	1f 93       	push	r17
    3936:	cf 93       	push	r28
    3938:	df 93       	push	r29
    393a:	1f 92       	push	r1
    393c:	cd b7       	in	r28, 0x3d	; 61
    393e:	de b7       	in	r29, 0x3e	; 62
    3940:	8c 01       	movw	r16, r24
    3942:	69 83       	std	Y+1, r22	; 0x01
    3944:	0e 94 93 27 	call	0x4f26	;  0x4f26
    3948:	69 81       	ldd	r22, Y+1	; 0x01
    394a:	68 17       	cp	r22, r24
    394c:	41 f0       	breq	.+16     	;  0x395e
    394e:	c8 01       	movw	r24, r16
    3950:	0f 90       	pop	r0
    3952:	df 91       	pop	r29
    3954:	cf 91       	pop	r28
    3956:	1f 91       	pop	r17
    3958:	0f 91       	pop	r16
    395a:	0c 94 9b 27 	jmp	0x4f36	;  0x4f36
    395e:	0f 90       	pop	r0
    3960:	df 91       	pop	r29
    3962:	cf 91       	pop	r28
    3964:	1f 91       	pop	r17
    3966:	0f 91       	pop	r16
    3968:	08 95       	ret
    396a:	80 38       	cpi	r24, 0x80	; 128
    396c:	39 f4       	brne	.+14     	;  0x397c
    396e:	21 e0       	ldi	r18, 0x01	; 1
    3970:	30 e0       	ldi	r19, 0x00	; 0
    3972:	30 93 d7 04 	sts	0x04D7, r19
    3976:	20 93 d6 04 	sts	0x04D6, r18
    397a:	11 c0       	rjmp	.+34     	;  0x399e
    397c:	82 38       	cpi	r24, 0x82	; 130
    397e:	39 f4       	brne	.+14     	;  0x398e
    3980:	21 e0       	ldi	r18, 0x01	; 1
    3982:	30 e0       	ldi	r19, 0x00	; 0
    3984:	30 93 d5 04 	sts	0x04D5, r19
    3988:	20 93 d4 04 	sts	0x04D4, r18
    398c:	08 c0       	rjmp	.+16     	;  0x399e
    398e:	82 33       	cpi	r24, 0x32	; 50
    3990:	31 f4       	brne	.+12     	;  0x399e
    3992:	21 e0       	ldi	r18, 0x01	; 1
    3994:	30 e0       	ldi	r19, 0x00	; 0
    3996:	30 93 d3 04 	sts	0x04D3, r19
    399a:	20 93 d2 04 	sts	0x04D2, r18
    399e:	20 91 d6 04 	lds	r18, 0x04D6
    39a2:	30 91 d7 04 	lds	r19, 0x04D7
    39a6:	21 30       	cpi	r18, 0x01	; 1
    39a8:	31 05       	cpc	r19, r1
    39aa:	a1 f5       	brne	.+104    	;  0x3a14
    39ac:	40 91 d4 04 	lds	r20, 0x04D4
    39b0:	50 91 d5 04 	lds	r21, 0x04D5
    39b4:	41 30       	cpi	r20, 0x01	; 1
    39b6:	51 05       	cpc	r21, r1
    39b8:	09 f0       	breq	.+2      	;  0x39bc
    39ba:	57 c0       	rjmp	.+174    	;  0x3a6a
    39bc:	40 91 d2 04 	lds	r20, 0x04D2
    39c0:	50 91 d3 04 	lds	r21, 0x04D3
    39c4:	41 30       	cpi	r20, 0x01	; 1
    39c6:	51 05       	cpc	r21, r1
    39c8:	09 f0       	breq	.+2      	;  0x39cc
    39ca:	cc c0       	rjmp	.+408    	;  0x3b64
    39cc:	30 93 c7 04 	sts	0x04C7, r19
    39d0:	20 93 c6 04 	sts	0x04C6, r18
    39d4:	84 33       	cpi	r24, 0x34	; 52
    39d6:	49 f4       	brne	.+18     	;  0x39ea
    39d8:	41 e0       	ldi	r20, 0x01	; 1
    39da:	50 e0       	ldi	r21, 0x00	; 0
    39dc:	50 93 d1 04 	sts	0x04D1, r21
    39e0:	40 93 d0 04 	sts	0x04D0, r20
    39e4:	21 30       	cpi	r18, 0x01	; 1
    39e6:	31 05       	cpc	r19, r1
    39e8:	19 f5       	brne	.+70     	;  0x3a30
    39ea:	40 91 d4 04 	lds	r20, 0x04D4
    39ee:	50 91 d5 04 	lds	r21, 0x04D5
    39f2:	41 30       	cpi	r20, 0x01	; 1
    39f4:	51 05       	cpc	r21, r1
    39f6:	09 f0       	breq	.+2      	;  0x39fa
    39f8:	51 c0       	rjmp	.+162    	;  0x3a9c
    39fa:	40 91 d0 04 	lds	r20, 0x04D0
    39fe:	50 91 d1 04 	lds	r21, 0x04D1
    3a02:	41 30       	cpi	r20, 0x01	; 1
    3a04:	51 05       	cpc	r21, r1
    3a06:	09 f0       	breq	.+2      	;  0x3a0a
    3a08:	b1 c0       	rjmp	.+354    	;  0x3b6c
    3a0a:	50 93 c3 04 	sts	0x04C3, r21
    3a0e:	40 93 c2 04 	sts	0x04C2, r20
    3a12:	2e c0       	rjmp	.+92     	;  0x3a70
    3a14:	84 33       	cpi	r24, 0x34	; 52
    3a16:	01 f3       	breq	.-64     	;  0x39d8
    3a18:	85 33       	cpi	r24, 0x35	; 53
    3a1a:	09 f0       	breq	.+2      	;  0x3a1e
    3a1c:	96 c0       	rjmp	.+300    	;  0x3b4a
    3a1e:	41 e0       	ldi	r20, 0x01	; 1
    3a20:	50 e0       	ldi	r21, 0x00	; 0
    3a22:	50 93 cf 04 	sts	0x04CF, r21
    3a26:	40 93 ce 04 	sts	0x04CE, r20
    3a2a:	21 30       	cpi	r18, 0x01	; 1
    3a2c:	31 05       	cpc	r19, r1
    3a2e:	11 f1       	breq	.+68     	;  0x3a74
    3a30:	21 30       	cpi	r18, 0x01	; 1
    3a32:	31 05       	cpc	r19, r1
    3a34:	09 f0       	breq	.+2      	;  0x3a38
    3a36:	a2 c0       	rjmp	.+324    	;  0x3b7c
    3a38:	40 91 d4 04 	lds	r20, 0x04D4
    3a3c:	50 91 d5 04 	lds	r21, 0x04D5
    3a40:	41 30       	cpi	r20, 0x01	; 1
    3a42:	51 05       	cpc	r21, r1
    3a44:	09 f0       	breq	.+2      	;  0x3a48
    3a46:	9a c0       	rjmp	.+308    	;  0x3b7c
    3a48:	03 c0       	rjmp	.+6      	;  0x3a50
    3a4a:	88 33       	cpi	r24, 0x38	; 56
    3a4c:	09 f4       	brne	.+2      	;  0x3a50
    3a4e:	4e c0       	rjmp	.+156    	;  0x3aec
    3a50:	40 91 ca 04 	lds	r20, 0x04CA
    3a54:	50 91 cb 04 	lds	r21, 0x04CB
    3a58:	41 30       	cpi	r20, 0x01	; 1
    3a5a:	51 05       	cpc	r21, r1
    3a5c:	09 f0       	breq	.+2      	;  0x3a60
    3a5e:	91 c0       	rjmp	.+290    	;  0x3b82
    3a60:	50 93 bb 04 	sts	0x04BB, r21
    3a64:	40 93 ba 04 	sts	0x04BA, r20
    3a68:	4a c0       	rjmp	.+148    	;  0x3afe
    3a6a:	84 33       	cpi	r24, 0x34	; 52
    3a6c:	09 f4       	brne	.+2      	;  0x3a70
    3a6e:	b4 cf       	rjmp	.-152    	;  0x39d8
    3a70:	85 33       	cpi	r24, 0x35	; 53
    3a72:	a9 f2       	breq	.-86     	;  0x3a1e
    3a74:	40 91 d4 04 	lds	r20, 0x04D4
    3a78:	50 91 d5 04 	lds	r21, 0x04D5
    3a7c:	41 30       	cpi	r20, 0x01	; 1
    3a7e:	51 05       	cpc	r21, r1
    3a80:	81 f5       	brne	.+96     	;  0x3ae2
    3a82:	40 91 ce 04 	lds	r20, 0x04CE
    3a86:	50 91 cf 04 	lds	r21, 0x04CF
    3a8a:	41 30       	cpi	r20, 0x01	; 1
    3a8c:	51 05       	cpc	r21, r1
    3a8e:	09 f0       	breq	.+2      	;  0x3a92
    3a90:	71 c0       	rjmp	.+226    	;  0x3b74
    3a92:	50 93 c5 04 	sts	0x04C5, r21
    3a96:	40 93 c4 04 	sts	0x04C4, r20
    3a9a:	03 c0       	rjmp	.+6      	;  0x3aa2
    3a9c:	85 33       	cpi	r24, 0x35	; 53
    3a9e:	09 f4       	brne	.+2      	;  0x3aa2
    3aa0:	be cf       	rjmp	.-132    	;  0x3a1e
    3aa2:	87 33       	cpi	r24, 0x37	; 55
    3aa4:	51 f4       	brne	.+20     	;  0x3aba
    3aa6:	41 e0       	ldi	r20, 0x01	; 1
    3aa8:	50 e0       	ldi	r21, 0x00	; 0
    3aaa:	50 93 cd 04 	sts	0x04CD, r21
    3aae:	40 93 cc 04 	sts	0x04CC, r20
    3ab2:	21 30       	cpi	r18, 0x01	; 1
    3ab4:	31 05       	cpc	r19, r1
    3ab6:	09 f0       	breq	.+2      	;  0x3aba
    3ab8:	67 c0       	rjmp	.+206    	;  0x3b88
    3aba:	40 91 d4 04 	lds	r20, 0x04D4
    3abe:	50 91 d5 04 	lds	r21, 0x04D5
    3ac2:	41 30       	cpi	r20, 0x01	; 1
    3ac4:	51 05       	cpc	r21, r1
    3ac6:	c9 f4       	brne	.+50     	;  0x3afa
    3ac8:	40 91 cc 04 	lds	r20, 0x04CC
    3acc:	50 91 cd 04 	lds	r21, 0x04CD
    3ad0:	41 30       	cpi	r20, 0x01	; 1
    3ad2:	51 05       	cpc	r21, r1
    3ad4:	09 f0       	breq	.+2      	;  0x3ad8
    3ad6:	b9 cf       	rjmp	.-142    	;  0x3a4a
    3ad8:	50 93 bd 04 	sts	0x04BD, r21
    3adc:	40 93 bc 04 	sts	0x04BC, r20
    3ae0:	02 c0       	rjmp	.+4      	;  0x3ae6
    3ae2:	87 33       	cpi	r24, 0x37	; 55
    3ae4:	01 f3       	breq	.-64     	;  0x3aa6
    3ae6:	88 33       	cpi	r24, 0x38	; 56
    3ae8:	09 f0       	breq	.+2      	;  0x3aec
    3aea:	a6 cf       	rjmp	.-180    	;  0x3a38
    3aec:	41 e0       	ldi	r20, 0x01	; 1
    3aee:	50 e0       	ldi	r21, 0x00	; 0
    3af0:	50 93 cb 04 	sts	0x04CB, r21
    3af4:	40 93 ca 04 	sts	0x04CA, r20
    3af8:	9f cf       	rjmp	.-194    	;  0x3a38
    3afa:	88 33       	cpi	r24, 0x38	; 56
    3afc:	b9 f3       	breq	.-18     	;  0x3aec
    3afe:	89 33       	cpi	r24, 0x39	; 57
    3b00:	49 f4       	brne	.+18     	;  0x3b14
    3b02:	41 e0       	ldi	r20, 0x01	; 1
    3b04:	50 e0       	ldi	r21, 0x00	; 0
    3b06:	50 93 c9 04 	sts	0x04C9, r21
    3b0a:	40 93 c8 04 	sts	0x04C8, r20
    3b0e:	21 30       	cpi	r18, 0x01	; 1
    3b10:	31 05       	cpc	r19, r1
    3b12:	d1 f5       	brne	.+116    	;  0x3b88
    3b14:	20 91 d4 04 	lds	r18, 0x04D4
    3b18:	30 91 d5 04 	lds	r19, 0x04D5
    3b1c:	21 30       	cpi	r18, 0x01	; 1
    3b1e:	31 05       	cpc	r19, r1
    3b20:	59 f4       	brne	.+22     	;  0x3b38
    3b22:	20 91 c8 04 	lds	r18, 0x04C8
    3b26:	30 91 c9 04 	lds	r19, 0x04C9
    3b2a:	21 30       	cpi	r18, 0x01	; 1
    3b2c:	31 05       	cpc	r19, r1
    3b2e:	21 f4       	brne	.+8      	;  0x3b38
    3b30:	30 93 b9 04 	sts	0x04B9, r19
    3b34:	20 93 b8 04 	sts	0x04B8, r18
    3b38:	85 38       	cpi	r24, 0x85	; 133
    3b3a:	31 f5       	brne	.+76     	;  0x3b88
    3b3c:	81 e0       	ldi	r24, 0x01	; 1
    3b3e:	90 e0       	ldi	r25, 0x00	; 0
    3b40:	90 93 b3 04 	sts	0x04B3, r25
    3b44:	80 93 b2 04 	sts	0x04B2, r24
    3b48:	08 95       	ret
    3b4a:	87 33       	cpi	r24, 0x37	; 55
    3b4c:	09 f4       	brne	.+2      	;  0x3b50
    3b4e:	ab cf       	rjmp	.-170    	;  0x3aa6
    3b50:	88 33       	cpi	r24, 0x38	; 56
    3b52:	09 f0       	breq	.+2      	;  0x3b56
    3b54:	6d cf       	rjmp	.-294    	;  0x3a30
    3b56:	81 e0       	ldi	r24, 0x01	; 1
    3b58:	90 e0       	ldi	r25, 0x00	; 0
    3b5a:	90 93 cb 04 	sts	0x04CB, r25
    3b5e:	80 93 ca 04 	sts	0x04CA, r24
    3b62:	08 95       	ret
    3b64:	84 33       	cpi	r24, 0x34	; 52
    3b66:	09 f0       	breq	.+2      	;  0x3b6a
    3b68:	48 cf       	rjmp	.-368    	;  0x39fa
    3b6a:	36 cf       	rjmp	.-404    	;  0x39d8
    3b6c:	85 33       	cpi	r24, 0x35	; 53
    3b6e:	09 f0       	breq	.+2      	;  0x3b72
    3b70:	88 cf       	rjmp	.-240    	;  0x3a82
    3b72:	55 cf       	rjmp	.-342    	;  0x3a1e
    3b74:	87 33       	cpi	r24, 0x37	; 55
    3b76:	09 f0       	breq	.+2      	;  0x3b7a
    3b78:	a7 cf       	rjmp	.-178    	;  0x3ac8
    3b7a:	95 cf       	rjmp	.-214    	;  0x3aa6
    3b7c:	89 33       	cpi	r24, 0x39	; 57
    3b7e:	e1 f6       	brne	.-72     	;  0x3b38
    3b80:	c0 cf       	rjmp	.-128    	;  0x3b02
    3b82:	89 33       	cpi	r24, 0x39	; 57
    3b84:	71 f6       	brne	.-100    	;  0x3b22
    3b86:	bd cf       	rjmp	.-134    	;  0x3b02
    3b88:	08 95       	ret
    3b8a:	cf 93       	push	r28
    3b8c:	c8 2f       	mov	r28, r24
    3b8e:	80 38       	cpi	r24, 0x80	; 128
    3b90:	29 f4       	brne	.+10     	;  0x3b9c
    3b92:	10 92 d7 04 	sts	0x04D7, r1
    3b96:	10 92 d6 04 	sts	0x04D6, r1
    3b9a:	0d c0       	rjmp	.+26     	;  0x3bb6
    3b9c:	82 38       	cpi	r24, 0x82	; 130
    3b9e:	29 f4       	brne	.+10     	;  0x3baa
    3ba0:	10 92 d5 04 	sts	0x04D5, r1
    3ba4:	10 92 d4 04 	sts	0x04D4, r1
    3ba8:	06 c0       	rjmp	.+12     	;  0x3bb6
    3baa:	82 33       	cpi	r24, 0x32	; 50
    3bac:	21 f4       	brne	.+8      	;  0x3bb6
    3bae:	10 92 d3 04 	sts	0x04D3, r1
    3bb2:	10 92 d2 04 	sts	0x04D2, r1
    3bb6:	80 91 d6 04 	lds	r24, 0x04D6
    3bba:	90 91 d7 04 	lds	r25, 0x04D7
    3bbe:	89 2b       	or	r24, r25
    3bc0:	09 f0       	breq	.+2      	;  0x3bc4
    3bc2:	a9 c2       	rjmp	.+1362   	;  0x4116
    3bc4:	80 91 d4 04 	lds	r24, 0x04D4
    3bc8:	90 91 d5 04 	lds	r25, 0x04D5
    3bcc:	89 2b       	or	r24, r25
    3bce:	09 f0       	breq	.+2      	;  0x3bd2
    3bd0:	ae c2       	rjmp	.+1372   	;  0x412e
    3bd2:	80 91 d2 04 	lds	r24, 0x04D2
    3bd6:	90 91 d3 04 	lds	r25, 0x04D3
    3bda:	89 2b       	or	r24, r25
    3bdc:	09 f0       	breq	.+2      	;  0x3be0
    3bde:	a3 c2       	rjmp	.+1350   	;  0x4126
    3be0:	80 91 c6 04 	lds	r24, 0x04C6
    3be4:	90 91 c7 04 	lds	r25, 0x04C7
    3be8:	01 97       	sbiw	r24, 0x01	; 1
    3bea:	09 f0       	breq	.+2      	;  0x3bee
    3bec:	9c c2       	rjmp	.+1336   	;  0x4126
    3bee:	10 92 c7 04 	sts	0x04C7, r1
    3bf2:	10 92 c6 04 	sts	0x04C6, r1
    3bf6:	60 ee       	ldi	r22, 0xE0	; 224
    3bf8:	82 ea       	ldi	r24, 0xA2	; 162
    3bfa:	91 e0       	ldi	r25, 0x01	; 1
    3bfc:	0e 94 84 03 	call	0x708	;  0x708
    3c00:	82 ea       	ldi	r24, 0xA2	; 162
    3c02:	91 e0       	ldi	r25, 0x01	; 1
    3c04:	0e 94 7a 03 	call	0x6f4	;  0x6f4
    3c08:	64 e6       	ldi	r22, 0x64	; 100
    3c0a:	70 e0       	ldi	r23, 0x00	; 0
    3c0c:	80 e0       	ldi	r24, 0x00	; 0
    3c0e:	90 e0       	ldi	r25, 0x00	; 0
    3c10:	0e 94 c8 12 	call	0x2590	;  0x2590
    3c14:	62 ee       	ldi	r22, 0xE2	; 226
    3c16:	82 ea       	ldi	r24, 0xA2	; 162
    3c18:	91 e0       	ldi	r25, 0x01	; 1
    3c1a:	0e 94 84 03 	call	0x708	;  0x708
    3c1e:	82 ea       	ldi	r24, 0xA2	; 162
    3c20:	91 e0       	ldi	r25, 0x01	; 1
    3c22:	0e 94 7a 03 	call	0x6f4	;  0x6f4
    3c26:	64 e6       	ldi	r22, 0x64	; 100
    3c28:	70 e0       	ldi	r23, 0x00	; 0
    3c2a:	80 e0       	ldi	r24, 0x00	; 0
    3c2c:	90 e0       	ldi	r25, 0x00	; 0
    3c2e:	0e 94 c8 12 	call	0x2590	;  0x2590
    3c32:	6a e2       	ldi	r22, 0x2A	; 42
    3c34:	82 ea       	ldi	r24, 0xA2	; 162
    3c36:	91 e0       	ldi	r25, 0x01	; 1
    3c38:	0e 94 84 03 	call	0x708	;  0x708
    3c3c:	82 ea       	ldi	r24, 0xA2	; 162
    3c3e:	91 e0       	ldi	r25, 0x01	; 1
    3c40:	0e 94 7a 03 	call	0x6f4	;  0x6f4
    3c44:	64 e6       	ldi	r22, 0x64	; 100
    3c46:	70 e0       	ldi	r23, 0x00	; 0
    3c48:	80 e0       	ldi	r24, 0x00	; 0
    3c4a:	90 e0       	ldi	r25, 0x00	; 0
    3c4c:	0e 94 c8 12 	call	0x2590	;  0x2590
    3c50:	82 ea       	ldi	r24, 0xA2	; 162
    3c52:	91 e0       	ldi	r25, 0x01	; 1
    3c54:	0e 94 fa 03 	call	0x7f4	;  0x7f4
    3c58:	82 ea       	ldi	r24, 0xA2	; 162
    3c5a:	91 e0       	ldi	r25, 0x01	; 1
    3c5c:	0e 94 7a 03 	call	0x6f4	;  0x6f4
    3c60:	88 ee       	ldi	r24, 0xE8	; 232
    3c62:	94 e0       	ldi	r25, 0x04	; 4
    3c64:	0e 94 93 04 	call	0x926	;  0x926
    3c68:	60 e8       	ldi	r22, 0x80	; 128
    3c6a:	73 e0       	ldi	r23, 0x03	; 3
    3c6c:	88 ee       	ldi	r24, 0xE8	; 232
    3c6e:	94 e0       	ldi	r25, 0x04	; 4
    3c70:	0e 94 8a 0b 	call	0x1714	;  0x1714
    3c74:	41 e0       	ldi	r20, 0x01	; 1
    3c76:	60 e0       	ldi	r22, 0x00	; 0
    3c78:	88 ee       	ldi	r24, 0xE8	; 232
    3c7a:	94 e0       	ldi	r25, 0x04	; 4
    3c7c:	0e 94 9a 04 	call	0x934	;  0x934
    3c80:	60 e7       	ldi	r22, 0x70	; 112
    3c82:	73 e0       	ldi	r23, 0x03	; 3
    3c84:	88 ee       	ldi	r24, 0xE8	; 232
    3c86:	94 e0       	ldi	r25, 0x04	; 4
    3c88:	0e 94 8a 0b 	call	0x1714	;  0x1714
    3c8c:	10 92 6f 00 	sts	0x006F, r1
    3c90:	40 e0       	ldi	r20, 0x00	; 0
    3c92:	60 e0       	ldi	r22, 0x00	; 0
    3c94:	81 e1       	ldi	r24, 0x11	; 17
    3c96:	0e 94 73 07 	call	0xee6	;  0xee6
    3c9a:	28 9a       	sbi	0x05, 0	; 5
    3c9c:	61 e0       	ldi	r22, 0x01	; 1
    3c9e:	85 e0       	ldi	r24, 0x05	; 5
    3ca0:	0e 94 de 13 	call	0x27bc	;  0x27bc
    3ca4:	60 e9       	ldi	r22, 0x90	; 144
    3ca6:	71 e0       	ldi	r23, 0x01	; 1
    3ca8:	80 e0       	ldi	r24, 0x00	; 0
    3caa:	90 e0       	ldi	r25, 0x00	; 0
    3cac:	0e 94 c8 12 	call	0x2590	;  0x2590
    3cb0:	60 e0       	ldi	r22, 0x00	; 0
    3cb2:	85 e0       	ldi	r24, 0x05	; 5
    3cb4:	0e 94 de 13 	call	0x27bc	;  0x27bc
    3cb8:	60 e9       	ldi	r22, 0x90	; 144
    3cba:	71 e0       	ldi	r23, 0x01	; 1
    3cbc:	80 e0       	ldi	r24, 0x00	; 0
    3cbe:	90 e0       	ldi	r25, 0x00	; 0
    3cc0:	0e 94 c8 12 	call	0x2590	;  0x2590
    3cc4:	61 e0       	ldi	r22, 0x01	; 1
    3cc6:	85 e0       	ldi	r24, 0x05	; 5
    3cc8:	0e 94 de 13 	call	0x27bc	;  0x27bc
    3ccc:	60 e9       	ldi	r22, 0x90	; 144
    3cce:	71 e0       	ldi	r23, 0x01	; 1
    3cd0:	80 e0       	ldi	r24, 0x00	; 0
    3cd2:	90 e0       	ldi	r25, 0x00	; 0
    3cd4:	0e 94 c8 12 	call	0x2590	;  0x2590
    3cd8:	60 e0       	ldi	r22, 0x00	; 0
    3cda:	85 e0       	ldi	r24, 0x05	; 5
    3cdc:	0e 94 de 13 	call	0x27bc	;  0x27bc
    3ce0:	60 e9       	ldi	r22, 0x90	; 144
    3ce2:	71 e0       	ldi	r23, 0x01	; 1
    3ce4:	80 e0       	ldi	r24, 0x00	; 0
    3ce6:	90 e0       	ldi	r25, 0x00	; 0
    3ce8:	0e 94 c8 12 	call	0x2590	;  0x2590
    3cec:	61 e0       	ldi	r22, 0x01	; 1
    3cee:	85 e0       	ldi	r24, 0x05	; 5
    3cf0:	0e 94 de 13 	call	0x27bc	;  0x27bc
    3cf4:	60 e9       	ldi	r22, 0x90	; 144
    3cf6:	71 e0       	ldi	r23, 0x01	; 1
    3cf8:	80 e0       	ldi	r24, 0x00	; 0
    3cfa:	90 e0       	ldi	r25, 0x00	; 0
    3cfc:	0e 94 c8 12 	call	0x2590	;  0x2590
    3d00:	60 e0       	ldi	r22, 0x00	; 0
    3d02:	85 e0       	ldi	r24, 0x05	; 5
    3d04:	0e 94 de 13 	call	0x27bc	;  0x27bc
    3d08:	60 e9       	ldi	r22, 0x90	; 144
    3d0a:	71 e0       	ldi	r23, 0x01	; 1
    3d0c:	80 e0       	ldi	r24, 0x00	; 0
    3d0e:	90 e0       	ldi	r25, 0x00	; 0
    3d10:	0e 94 c8 12 	call	0x2590	;  0x2590
    3d14:	61 e0       	ldi	r22, 0x01	; 1
    3d16:	85 e0       	ldi	r24, 0x05	; 5
    3d18:	0e 94 de 13 	call	0x27bc	;  0x27bc
    3d1c:	60 e9       	ldi	r22, 0x90	; 144
    3d1e:	71 e0       	ldi	r23, 0x01	; 1
    3d20:	80 e0       	ldi	r24, 0x00	; 0
    3d22:	90 e0       	ldi	r25, 0x00	; 0
    3d24:	0e 94 c8 12 	call	0x2590	;  0x2590
    3d28:	60 e0       	ldi	r22, 0x00	; 0
    3d2a:	85 e0       	ldi	r24, 0x05	; 5
    3d2c:	0e 94 de 13 	call	0x27bc	;  0x27bc
    3d30:	60 e9       	ldi	r22, 0x90	; 144
    3d32:	71 e0       	ldi	r23, 0x01	; 1
    3d34:	80 e0       	ldi	r24, 0x00	; 0
    3d36:	90 e0       	ldi	r25, 0x00	; 0
    3d38:	0e 94 c8 12 	call	0x2590	;  0x2590
    3d3c:	c4 33       	cpi	r28, 0x34	; 52
    3d3e:	21 f4       	brne	.+8      	;  0x3d48
    3d40:	10 92 d1 04 	sts	0x04D1, r1
    3d44:	10 92 d0 04 	sts	0x04D0, r1
    3d48:	80 91 d6 04 	lds	r24, 0x04D6
    3d4c:	90 91 d7 04 	lds	r25, 0x04D7
    3d50:	89 2b       	or	r24, r25
    3d52:	09 f0       	breq	.+2      	;  0x3d56
    3d54:	50 c0       	rjmp	.+160    	;  0x3df6
    3d56:	80 91 d4 04 	lds	r24, 0x04D4
    3d5a:	90 91 d5 04 	lds	r25, 0x04D5
    3d5e:	89 2b       	or	r24, r25
    3d60:	09 f0       	breq	.+2      	;  0x3d64
    3d62:	f0 c1       	rjmp	.+992    	;  0x4144
    3d64:	80 91 d0 04 	lds	r24, 0x04D0
    3d68:	90 91 d1 04 	lds	r25, 0x04D1
    3d6c:	89 2b       	or	r24, r25
    3d6e:	09 f0       	breq	.+2      	;  0x3d72
    3d70:	e5 c1       	rjmp	.+970    	;  0x413c
    3d72:	80 91 c2 04 	lds	r24, 0x04C2
    3d76:	90 91 c3 04 	lds	r25, 0x04C3
    3d7a:	81 30       	cpi	r24, 0x01	; 1
    3d7c:	91 05       	cpc	r25, r1
    3d7e:	09 f0       	breq	.+2      	;  0x3d82
    3d80:	dd c1       	rjmp	.+954    	;  0x413c
    3d82:	10 92 c3 04 	sts	0x04C3, r1
    3d86:	10 92 c2 04 	sts	0x04C2, r1
    3d8a:	10 92 bf 04 	sts	0x04BF, r1
    3d8e:	10 92 be 04 	sts	0x04BE, r1
    3d92:	90 93 c1 04 	sts	0x04C1, r25
    3d96:	80 93 c0 04 	sts	0x04C0, r24
    3d9a:	88 ee       	ldi	r24, 0xE8	; 232
    3d9c:	94 e0       	ldi	r25, 0x04	; 4
    3d9e:	0e 94 93 04 	call	0x926	;  0x926
    3da2:	6e e5       	ldi	r22, 0x5E	; 94
    3da4:	73 e0       	ldi	r23, 0x03	; 3
    3da6:	88 ee       	ldi	r24, 0xE8	; 232
    3da8:	94 e0       	ldi	r25, 0x04	; 4
    3daa:	0e 94 8a 0b 	call	0x1714	;  0x1714
    3dae:	41 e0       	ldi	r20, 0x01	; 1
    3db0:	60 e0       	ldi	r22, 0x00	; 0
    3db2:	88 ee       	ldi	r24, 0xE8	; 232
    3db4:	94 e0       	ldi	r25, 0x04	; 4
    3db6:	0e 94 9a 04 	call	0x934	;  0x934
    3dba:	69 e4       	ldi	r22, 0x49	; 73
    3dbc:	73 e0       	ldi	r23, 0x03	; 3
    3dbe:	88 ee       	ldi	r24, 0xE8	; 232
    3dc0:	94 e0       	ldi	r25, 0x04	; 4
    3dc2:	0e 94 8a 0b 	call	0x1714	;  0x1714
    3dc6:	42 e0       	ldi	r20, 0x02	; 2
    3dc8:	60 e0       	ldi	r22, 0x00	; 0
    3dca:	88 ee       	ldi	r24, 0xE8	; 232
    3dcc:	94 e0       	ldi	r25, 0x04	; 4
    3dce:	0e 94 9a 04 	call	0x934	;  0x934
    3dd2:	68 e3       	ldi	r22, 0x38	; 56
    3dd4:	73 e0       	ldi	r23, 0x03	; 3
    3dd6:	88 ee       	ldi	r24, 0xE8	; 232
    3dd8:	94 e0       	ldi	r25, 0x04	; 4
    3dda:	0e 94 8a 0b 	call	0x1714	;  0x1714
    3dde:	43 e0       	ldi	r20, 0x03	; 3
    3de0:	60 e0       	ldi	r22, 0x00	; 0
    3de2:	88 ee       	ldi	r24, 0xE8	; 232
    3de4:	94 e0       	ldi	r25, 0x04	; 4
    3de6:	0e 94 9a 04 	call	0x934	;  0x934
    3dea:	67 e2       	ldi	r22, 0x27	; 39
    3dec:	73 e0       	ldi	r23, 0x03	; 3
    3dee:	88 ee       	ldi	r24, 0xE8	; 232
    3df0:	94 e0       	ldi	r25, 0x04	; 4
    3df2:	0e 94 8a 0b 	call	0x1714	;  0x1714
    3df6:	c5 33       	cpi	r28, 0x35	; 53
    3df8:	21 f4       	brne	.+8      	;  0x3e02
    3dfa:	10 92 cf 04 	sts	0x04CF, r1
    3dfe:	10 92 ce 04 	sts	0x04CE, r1
    3e02:	80 91 d6 04 	lds	r24, 0x04D6
    3e06:	90 91 d7 04 	lds	r25, 0x04D7
    3e0a:	89 2b       	or	r24, r25
    3e0c:	09 f0       	breq	.+2      	;  0x3e10
    3e0e:	87 c1       	rjmp	.+782    	;  0x411e
    3e10:	80 91 d4 04 	lds	r24, 0x04D4
    3e14:	90 91 d5 04 	lds	r25, 0x04D5
    3e18:	89 2b       	or	r24, r25
    3e1a:	09 f0       	breq	.+2      	;  0x3e1e
    3e1c:	9a c1       	rjmp	.+820    	;  0x4152
    3e1e:	80 91 ce 04 	lds	r24, 0x04CE
    3e22:	90 91 cf 04 	lds	r25, 0x04CF
    3e26:	89 2b       	or	r24, r25
    3e28:	09 f0       	breq	.+2      	;  0x3e2c
    3e2a:	9a c1       	rjmp	.+820    	;  0x4160
    3e2c:	80 91 c4 04 	lds	r24, 0x04C4
    3e30:	90 91 c5 04 	lds	r25, 0x04C5
    3e34:	01 97       	sbiw	r24, 0x01	; 1
    3e36:	09 f0       	breq	.+2      	;  0x3e3a
    3e38:	93 c1       	rjmp	.+806    	;  0x4160
    3e3a:	10 92 c5 04 	sts	0x04C5, r1
    3e3e:	10 92 c4 04 	sts	0x04C4, r1
    3e42:	10 92 bf 04 	sts	0x04BF, r1
    3e46:	10 92 be 04 	sts	0x04BE, r1
    3e4a:	10 92 c1 04 	sts	0x04C1, r1
    3e4e:	10 92 c0 04 	sts	0x04C0, r1
    3e52:	88 ee       	ldi	r24, 0xE8	; 232
    3e54:	94 e0       	ldi	r25, 0x04	; 4
    3e56:	0e 94 93 04 	call	0x926	;  0x926
    3e5a:	65 e1       	ldi	r22, 0x15	; 21
    3e5c:	73 e0       	ldi	r23, 0x03	; 3
    3e5e:	88 ee       	ldi	r24, 0xE8	; 232
    3e60:	94 e0       	ldi	r25, 0x04	; 4
    3e62:	0e 94 8a 0b 	call	0x1714	;  0x1714
    3e66:	41 e0       	ldi	r20, 0x01	; 1
    3e68:	60 e0       	ldi	r22, 0x00	; 0
    3e6a:	88 ee       	ldi	r24, 0xE8	; 232
    3e6c:	94 e0       	ldi	r25, 0x04	; 4
    3e6e:	0e 94 9a 04 	call	0x934	;  0x934
    3e72:	6b e0       	ldi	r22, 0x0B	; 11
    3e74:	73 e0       	ldi	r23, 0x03	; 3
    3e76:	88 ee       	ldi	r24, 0xE8	; 232
    3e78:	94 e0       	ldi	r25, 0x04	; 4
    3e7a:	0e 94 8a 0b 	call	0x1714	;  0x1714
    3e7e:	60 e0       	ldi	r22, 0x00	; 0
    3e80:	70 e0       	ldi	r23, 0x00	; 0
    3e82:	8f ed       	ldi	r24, 0xDF	; 223
    3e84:	94 e0       	ldi	r25, 0x04	; 4
    3e86:	0e 94 d9 17 	call	0x2fb2	;  0x2fb2
    3e8a:	60 e0       	ldi	r22, 0x00	; 0
    3e8c:	70 e0       	ldi	r23, 0x00	; 0
    3e8e:	8c ed       	ldi	r24, 0xDC	; 220
    3e90:	94 e0       	ldi	r25, 0x04	; 4
    3e92:	0e 94 d9 17 	call	0x2fb2	;  0x2fb2
    3e96:	68 ee       	ldi	r22, 0xE8	; 232
    3e98:	73 e0       	ldi	r23, 0x03	; 3
    3e9a:	80 e0       	ldi	r24, 0x00	; 0
    3e9c:	90 e0       	ldi	r25, 0x00	; 0
    3e9e:	0e 94 c8 12 	call	0x2590	;  0x2590
    3ea2:	8f ed       	ldi	r24, 0xDF	; 223
    3ea4:	94 e0       	ldi	r25, 0x04	; 4
    3ea6:	0e 94 96 17 	call	0x2f2c	;  0x2f2c
    3eaa:	8c ed       	ldi	r24, 0xDC	; 220
    3eac:	94 e0       	ldi	r25, 0x04	; 4
    3eae:	0e 94 96 17 	call	0x2f2c	;  0x2f2c
    3eb2:	c7 33       	cpi	r28, 0x37	; 55
    3eb4:	21 f4       	brne	.+8      	;  0x3ebe
    3eb6:	10 92 cd 04 	sts	0x04CD, r1
    3eba:	10 92 cc 04 	sts	0x04CC, r1
    3ebe:	80 91 d6 04 	lds	r24, 0x04D6
    3ec2:	90 91 d7 04 	lds	r25, 0x04D7
    3ec6:	89 2b       	or	r24, r25
    3ec8:	09 f0       	breq	.+2      	;  0x3ecc
    3eca:	55 c0       	rjmp	.+170    	;  0x3f76
    3ecc:	80 91 d4 04 	lds	r24, 0x04D4
    3ed0:	90 91 d5 04 	lds	r25, 0x04D5
    3ed4:	89 2b       	or	r24, r25
    3ed6:	09 f0       	breq	.+2      	;  0x3eda
    3ed8:	47 c1       	rjmp	.+654    	;  0x4168
    3eda:	80 91 cc 04 	lds	r24, 0x04CC
    3ede:	90 91 cd 04 	lds	r25, 0x04CD
    3ee2:	89 2b       	or	r24, r25
    3ee4:	09 f0       	breq	.+2      	;  0x3ee8
    3ee6:	47 c1       	rjmp	.+654    	;  0x4176
    3ee8:	80 91 bc 04 	lds	r24, 0x04BC
    3eec:	90 91 bd 04 	lds	r25, 0x04BD
    3ef0:	01 97       	sbiw	r24, 0x01	; 1
    3ef2:	09 f0       	breq	.+2      	;  0x3ef6
    3ef4:	40 c1       	rjmp	.+640    	;  0x4176
    3ef6:	10 92 bd 04 	sts	0x04BD, r1
    3efa:	10 92 bc 04 	sts	0x04BC, r1
    3efe:	88 ee       	ldi	r24, 0xE8	; 232
    3f00:	94 e0       	ldi	r25, 0x04	; 4
    3f02:	0e 94 93 04 	call	0x926	;  0x926
    3f06:	6d ef       	ldi	r22, 0xFD	; 253
    3f08:	72 e0       	ldi	r23, 0x02	; 2
    3f0a:	88 ee       	ldi	r24, 0xE8	; 232
    3f0c:	94 e0       	ldi	r25, 0x04	; 4
    3f0e:	0e 94 8a 0b 	call	0x1714	;  0x1714
    3f12:	41 e0       	ldi	r20, 0x01	; 1
    3f14:	60 e0       	ldi	r22, 0x00	; 0
    3f16:	88 ee       	ldi	r24, 0xE8	; 232
    3f18:	94 e0       	ldi	r25, 0x04	; 4
    3f1a:	0e 94 9a 04 	call	0x934	;  0x934
    3f1e:	6e ee       	ldi	r22, 0xEE	; 238
    3f20:	72 e0       	ldi	r23, 0x02	; 2
    3f22:	88 ee       	ldi	r24, 0xE8	; 232
    3f24:	94 e0       	ldi	r25, 0x04	; 4
    3f26:	0e 94 8a 0b 	call	0x1714	;  0x1714
    3f2a:	67 e0       	ldi	r22, 0x07	; 7
    3f2c:	70 e0       	ldi	r23, 0x00	; 0
    3f2e:	8f ed       	ldi	r24, 0xDF	; 223
    3f30:	94 e0       	ldi	r25, 0x04	; 4
    3f32:	0e 94 90 17 	call	0x2f20	;  0x2f20
    3f36:	80 e0       	ldi	r24, 0x00	; 0
    3f38:	90 e0       	ldi	r25, 0x00	; 0
    3f3a:	0e 94 93 27 	call	0x4f26	;  0x4f26
    3f3e:	68 2f       	mov	r22, r24
    3f40:	70 e0       	ldi	r23, 0x00	; 0
    3f42:	8f ed       	ldi	r24, 0xDF	; 223
    3f44:	94 e0       	ldi	r25, 0x04	; 4
    3f46:	0e 94 d9 17 	call	0x2fb2	;  0x2fb2
    3f4a:	6c ed       	ldi	r22, 0xDC	; 220
    3f4c:	75 e0       	ldi	r23, 0x05	; 5
    3f4e:	80 e0       	ldi	r24, 0x00	; 0
    3f50:	90 e0       	ldi	r25, 0x00	; 0
    3f52:	0e 94 c8 12 	call	0x2590	;  0x2590
    3f56:	60 e0       	ldi	r22, 0x00	; 0
    3f58:	70 e0       	ldi	r23, 0x00	; 0
    3f5a:	8f ed       	ldi	r24, 0xDF	; 223
    3f5c:	94 e0       	ldi	r25, 0x04	; 4
    3f5e:	0e 94 d9 17 	call	0x2fb2	;  0x2fb2
    3f62:	68 ee       	ldi	r22, 0xE8	; 232
    3f64:	73 e0       	ldi	r23, 0x03	; 3
    3f66:	80 e0       	ldi	r24, 0x00	; 0
    3f68:	90 e0       	ldi	r25, 0x00	; 0
    3f6a:	0e 94 c8 12 	call	0x2590	;  0x2590
    3f6e:	8f ed       	ldi	r24, 0xDF	; 223
    3f70:	94 e0       	ldi	r25, 0x04	; 4
    3f72:	0e 94 96 17 	call	0x2f2c	;  0x2f2c
    3f76:	c8 33       	cpi	r28, 0x38	; 56
    3f78:	21 f4       	brne	.+8      	;  0x3f82
    3f7a:	10 92 cb 04 	sts	0x04CB, r1
    3f7e:	10 92 ca 04 	sts	0x04CA, r1
    3f82:	80 91 d6 04 	lds	r24, 0x04D6
    3f86:	90 91 d7 04 	lds	r25, 0x04D7
    3f8a:	89 2b       	or	r24, r25
    3f8c:	09 f0       	breq	.+2      	;  0x3f90
    3f8e:	f7 c0       	rjmp	.+494    	;  0x417e
    3f90:	80 91 d4 04 	lds	r24, 0x04D4
    3f94:	90 91 d5 04 	lds	r25, 0x04D5
    3f98:	89 2b       	or	r24, r25
    3f9a:	09 f0       	breq	.+2      	;  0x3f9e
    3f9c:	f0 c0       	rjmp	.+480    	;  0x417e
    3f9e:	80 91 ca 04 	lds	r24, 0x04CA
    3fa2:	90 91 cb 04 	lds	r25, 0x04CB
    3fa6:	89 2b       	or	r24, r25
    3fa8:	09 f0       	breq	.+2      	;  0x3fac
    3faa:	ec c0       	rjmp	.+472    	;  0x4184
    3fac:	80 91 ba 04 	lds	r24, 0x04BA
    3fb0:	90 91 bb 04 	lds	r25, 0x04BB
    3fb4:	01 97       	sbiw	r24, 0x01	; 1
    3fb6:	09 f0       	breq	.+2      	;  0x3fba
    3fb8:	e5 c0       	rjmp	.+458    	;  0x4184
    3fba:	10 92 bb 04 	sts	0x04BB, r1
    3fbe:	10 92 ba 04 	sts	0x04BA, r1
    3fc2:	88 ee       	ldi	r24, 0xE8	; 232
    3fc4:	94 e0       	ldi	r25, 0x04	; 4
    3fc6:	0e 94 93 04 	call	0x926	;  0x926
    3fca:	6d ed       	ldi	r22, 0xDD	; 221
    3fcc:	72 e0       	ldi	r23, 0x02	; 2
    3fce:	88 ee       	ldi	r24, 0xE8	; 232
    3fd0:	94 e0       	ldi	r25, 0x04	; 4
    3fd2:	0e 94 8a 0b 	call	0x1714	;  0x1714
    3fd6:	41 e0       	ldi	r20, 0x01	; 1
    3fd8:	60 e0       	ldi	r22, 0x00	; 0
    3fda:	88 ee       	ldi	r24, 0xE8	; 232
    3fdc:	94 e0       	ldi	r25, 0x04	; 4
    3fde:	0e 94 9a 04 	call	0x934	;  0x934
    3fe2:	6e ec       	ldi	r22, 0xCE	; 206
    3fe4:	72 e0       	ldi	r23, 0x02	; 2
    3fe6:	88 ee       	ldi	r24, 0xE8	; 232
    3fe8:	94 e0       	ldi	r25, 0x04	; 4
    3fea:	0e 94 8a 0b 	call	0x1714	;  0x1714
    3fee:	6e e0       	ldi	r22, 0x0E	; 14
    3ff0:	70 e0       	ldi	r23, 0x00	; 0
    3ff2:	8c ed       	ldi	r24, 0xDC	; 220
    3ff4:	94 e0       	ldi	r25, 0x04	; 4
    3ff6:	0e 94 90 17 	call	0x2f20	;  0x2f20
    3ffa:	81 e0       	ldi	r24, 0x01	; 1
    3ffc:	90 e0       	ldi	r25, 0x00	; 0
    3ffe:	0e 94 93 27 	call	0x4f26	;  0x4f26
    4002:	68 2f       	mov	r22, r24
    4004:	70 e0       	ldi	r23, 0x00	; 0
    4006:	8c ed       	ldi	r24, 0xDC	; 220
    4008:	94 e0       	ldi	r25, 0x04	; 4
    400a:	0e 94 d9 17 	call	0x2fb2	;  0x2fb2
    400e:	60 91 28 01 	lds	r22, 0x0128
    4012:	70 91 29 01 	lds	r23, 0x0129
    4016:	88 27       	eor	r24, r24
    4018:	77 fd       	sbrc	r23, 7
    401a:	80 95       	com	r24
    401c:	98 2f       	mov	r25, r24
    401e:	0e 94 c8 12 	call	0x2590	;  0x2590
    4022:	60 e0       	ldi	r22, 0x00	; 0
    4024:	70 e0       	ldi	r23, 0x00	; 0
    4026:	8c ed       	ldi	r24, 0xDC	; 220
    4028:	94 e0       	ldi	r25, 0x04	; 4
    402a:	0e 94 d9 17 	call	0x2fb2	;  0x2fb2
    402e:	68 ee       	ldi	r22, 0xE8	; 232
    4030:	73 e0       	ldi	r23, 0x03	; 3
    4032:	80 e0       	ldi	r24, 0x00	; 0
    4034:	90 e0       	ldi	r25, 0x00	; 0
    4036:	0e 94 c8 12 	call	0x2590	;  0x2590
    403a:	8c ed       	ldi	r24, 0xDC	; 220
    403c:	94 e0       	ldi	r25, 0x04	; 4
    403e:	0e 94 96 17 	call	0x2f2c	;  0x2f2c
    4042:	c9 33       	cpi	r28, 0x39	; 57
    4044:	21 f4       	brne	.+8      	;  0x404e
    4046:	10 92 c9 04 	sts	0x04C9, r1
    404a:	10 92 c8 04 	sts	0x04C8, r1
    404e:	80 91 d6 04 	lds	r24, 0x04D6
    4052:	90 91 d7 04 	lds	r25, 0x04D7
    4056:	89 2b       	or	r24, r25
    4058:	09 f0       	breq	.+2      	;  0x405c
    405a:	55 c0       	rjmp	.+170    	;  0x4106
    405c:	80 91 d4 04 	lds	r24, 0x04D4
    4060:	90 91 d5 04 	lds	r25, 0x04D5
    4064:	89 2b       	or	r24, r25
    4066:	09 f0       	breq	.+2      	;  0x406a
    4068:	4e c0       	rjmp	.+156    	;  0x4106
    406a:	80 91 c8 04 	lds	r24, 0x04C8
    406e:	90 91 c9 04 	lds	r25, 0x04C9
    4072:	89 2b       	or	r24, r25
    4074:	09 f0       	breq	.+2      	;  0x4078
    4076:	47 c0       	rjmp	.+142    	;  0x4106
    4078:	80 91 b8 04 	lds	r24, 0x04B8
    407c:	90 91 b9 04 	lds	r25, 0x04B9
    4080:	01 97       	sbiw	r24, 0x01	; 1
    4082:	09 f0       	breq	.+2      	;  0x4086
    4084:	40 c0       	rjmp	.+128    	;  0x4106
    4086:	10 92 b9 04 	sts	0x04B9, r1
    408a:	10 92 b8 04 	sts	0x04B8, r1
    408e:	88 ee       	ldi	r24, 0xE8	; 232
    4090:	94 e0       	ldi	r25, 0x04	; 4
    4092:	0e 94 93 04 	call	0x926	;  0x926
    4096:	6e eb       	ldi	r22, 0xBE	; 190
    4098:	72 e0       	ldi	r23, 0x02	; 2
    409a:	88 ee       	ldi	r24, 0xE8	; 232
    409c:	94 e0       	ldi	r25, 0x04	; 4
    409e:	0e 94 8a 0b 	call	0x1714	;  0x1714
    40a2:	41 e0       	ldi	r20, 0x01	; 1
    40a4:	60 e0       	ldi	r22, 0x00	; 0
    40a6:	88 ee       	ldi	r24, 0xE8	; 232
    40a8:	94 e0       	ldi	r25, 0x04	; 4
    40aa:	0e 94 9a 04 	call	0x934	;  0x934
    40ae:	60 eb       	ldi	r22, 0xB0	; 176
    40b0:	72 e0       	ldi	r23, 0x02	; 2
    40b2:	88 ee       	ldi	r24, 0xE8	; 232
    40b4:	94 e0       	ldi	r25, 0x04	; 4
    40b6:	0e 94 8a 0b 	call	0x1714	;  0x1714
    40ba:	6e e0       	ldi	r22, 0x0E	; 14
    40bc:	70 e0       	ldi	r23, 0x00	; 0
    40be:	8c ed       	ldi	r24, 0xDC	; 220
    40c0:	94 e0       	ldi	r25, 0x04	; 4
    40c2:	0e 94 90 17 	call	0x2f20	;  0x2f20
    40c6:	81 e0       	ldi	r24, 0x01	; 1
    40c8:	90 e0       	ldi	r25, 0x00	; 0
    40ca:	0e 94 93 27 	call	0x4f26	;  0x4f26
    40ce:	68 2f       	mov	r22, r24
    40d0:	70 e0       	ldi	r23, 0x00	; 0
    40d2:	8c ed       	ldi	r24, 0xDC	; 220
    40d4:	94 e0       	ldi	r25, 0x04	; 4
    40d6:	0e 94 d9 17 	call	0x2fb2	;  0x2fb2
    40da:	60 ed       	ldi	r22, 0xD0	; 208
    40dc:	77 e0       	ldi	r23, 0x07	; 7
    40de:	80 e0       	ldi	r24, 0x00	; 0
    40e0:	90 e0       	ldi	r25, 0x00	; 0
    40e2:	0e 94 c8 12 	call	0x2590	;  0x2590
    40e6:	60 e0       	ldi	r22, 0x00	; 0
    40e8:	70 e0       	ldi	r23, 0x00	; 0
    40ea:	8c ed       	ldi	r24, 0xDC	; 220
    40ec:	94 e0       	ldi	r25, 0x04	; 4
    40ee:	0e 94 d9 17 	call	0x2fb2	;  0x2fb2
    40f2:	68 ee       	ldi	r22, 0xE8	; 232
    40f4:	73 e0       	ldi	r23, 0x03	; 3
    40f6:	80 e0       	ldi	r24, 0x00	; 0
    40f8:	90 e0       	ldi	r25, 0x00	; 0
    40fa:	0e 94 c8 12 	call	0x2590	;  0x2590
    40fe:	8c ed       	ldi	r24, 0xDC	; 220
    4100:	94 e0       	ldi	r25, 0x04	; 4
    4102:	0e 94 96 17 	call	0x2f2c	;  0x2f2c
    4106:	c5 38       	cpi	r28, 0x85	; 133
    4108:	09 f0       	breq	.+2      	;  0x410c
    410a:	40 c0       	rjmp	.+128    	;  0x418c
    410c:	10 92 b3 04 	sts	0x04B3, r1
    4110:	10 92 b2 04 	sts	0x04B2, r1
    4114:	3b c0       	rjmp	.+118    	;  0x418c
    4116:	c4 33       	cpi	r28, 0x34	; 52
    4118:	09 f0       	breq	.+2      	;  0x411c
    411a:	6d ce       	rjmp	.-806    	;  0x3df6
    411c:	11 ce       	rjmp	.-990    	;  0x3d40
    411e:	c7 33       	cpi	r28, 0x37	; 55
    4120:	09 f0       	breq	.+2      	;  0x4124
    4122:	29 cf       	rjmp	.-430    	;  0x3f76
    4124:	c8 ce       	rjmp	.-624    	;  0x3eb6
    4126:	c4 33       	cpi	r28, 0x34	; 52
    4128:	09 f0       	breq	.+2      	;  0x412c
    412a:	1c ce       	rjmp	.-968    	;  0x3d64
    412c:	09 ce       	rjmp	.-1006   	;  0x3d40
    412e:	c4 33       	cpi	r28, 0x34	; 52
    4130:	09 f4       	brne	.+2      	;  0x4134
    4132:	06 ce       	rjmp	.-1012   	;  0x3d40
    4134:	c5 33       	cpi	r28, 0x35	; 53
    4136:	09 f0       	breq	.+2      	;  0x413a
    4138:	6b ce       	rjmp	.-810    	;  0x3e10
    413a:	5f ce       	rjmp	.-834    	;  0x3dfa
    413c:	c5 33       	cpi	r28, 0x35	; 53
    413e:	09 f0       	breq	.+2      	;  0x4142
    4140:	6e ce       	rjmp	.-804    	;  0x3e1e
    4142:	5b ce       	rjmp	.-842    	;  0x3dfa
    4144:	c5 33       	cpi	r28, 0x35	; 53
    4146:	09 f4       	brne	.+2      	;  0x414a
    4148:	58 ce       	rjmp	.-848    	;  0x3dfa
    414a:	c7 33       	cpi	r28, 0x37	; 55
    414c:	09 f0       	breq	.+2      	;  0x4150
    414e:	be ce       	rjmp	.-644    	;  0x3ecc
    4150:	b2 ce       	rjmp	.-668    	;  0x3eb6
    4152:	c7 33       	cpi	r28, 0x37	; 55
    4154:	09 f4       	brne	.+2      	;  0x4158
    4156:	af ce       	rjmp	.-674    	;  0x3eb6
    4158:	c8 33       	cpi	r28, 0x38	; 56
    415a:	09 f0       	breq	.+2      	;  0x415e
    415c:	19 cf       	rjmp	.-462    	;  0x3f90
    415e:	0d cf       	rjmp	.-486    	;  0x3f7a
    4160:	c7 33       	cpi	r28, 0x37	; 55
    4162:	09 f0       	breq	.+2      	;  0x4166
    4164:	ba ce       	rjmp	.-652    	;  0x3eda
    4166:	a7 ce       	rjmp	.-690    	;  0x3eb6
    4168:	c8 33       	cpi	r28, 0x38	; 56
    416a:	09 f4       	brne	.+2      	;  0x416e
    416c:	06 cf       	rjmp	.-500    	;  0x3f7a
    416e:	c9 33       	cpi	r28, 0x39	; 57
    4170:	09 f0       	breq	.+2      	;  0x4174
    4172:	74 cf       	rjmp	.-280    	;  0x405c
    4174:	68 cf       	rjmp	.-304    	;  0x4046
    4176:	c8 33       	cpi	r28, 0x38	; 56
    4178:	09 f0       	breq	.+2      	;  0x417c
    417a:	11 cf       	rjmp	.-478    	;  0x3f9e
    417c:	fe ce       	rjmp	.-516    	;  0x3f7a
    417e:	c9 33       	cpi	r28, 0x39	; 57
    4180:	11 f6       	brne	.-124    	;  0x4106
    4182:	61 cf       	rjmp	.-318    	;  0x4046
    4184:	c9 33       	cpi	r28, 0x39	; 57
    4186:	09 f0       	breq	.+2      	;  0x418a
    4188:	70 cf       	rjmp	.-288    	;  0x406a
    418a:	5d cf       	rjmp	.-326    	;  0x4046
    418c:	cf 91       	pop	r28
    418e:	08 95       	ret
    4190:	88 ee       	ldi	r24, 0xE8	; 232
    4192:	94 e0       	ldi	r25, 0x04	; 4
    4194:	0e 94 93 04 	call	0x926	;  0x926
    4198:	6a ea       	ldi	r22, 0xAA	; 170
    419a:	72 e0       	ldi	r23, 0x02	; 2
    419c:	88 ee       	ldi	r24, 0xE8	; 232
    419e:	94 e0       	ldi	r25, 0x04	; 4
    41a0:	0c 94 8a 0b 	jmp	0x1714	;  0x1714
    41a4:	8f 92       	push	r8
    41a6:	af 92       	push	r10
    41a8:	cf 92       	push	r12
    41aa:	ef 92       	push	r14
    41ac:	0f 93       	push	r16
    41ae:	20 e0       	ldi	r18, 0x00	; 0
    41b0:	4a e0       	ldi	r20, 0x0A	; 10
    41b2:	69 e0       	ldi	r22, 0x09	; 9
    41b4:	81 e0       	ldi	r24, 0x01	; 1
    41b6:	95 e0       	ldi	r25, 0x05	; 5
    41b8:	0e 94 47 19 	call	0x328e	;  0x328e
    41bc:	1f 92       	push	r1
    41be:	1f 92       	push	r1
    41c0:	83 e0       	ldi	r24, 0x03	; 3
    41c2:	8f 93       	push	r24
    41c4:	87 e0       	ldi	r24, 0x07	; 7
    41c6:	88 2e       	mov	r8, r24
    41c8:	96 e0       	ldi	r25, 0x06	; 6
    41ca:	a9 2e       	mov	r10, r25
    41cc:	25 e0       	ldi	r18, 0x05	; 5
    41ce:	c2 2e       	mov	r12, r18
    41d0:	34 e0       	ldi	r19, 0x04	; 4
    41d2:	e3 2e       	mov	r14, r19
    41d4:	00 e0       	ldi	r16, 0x00	; 0
    41d6:	21 e0       	ldi	r18, 0x01	; 1
    41d8:	42 e0       	ldi	r20, 0x02	; 2
    41da:	67 e2       	ldi	r22, 0x27	; 39
    41dc:	88 ee       	ldi	r24, 0xE8	; 232
    41de:	94 e0       	ldi	r25, 0x04	; 4
    41e0:	0e 94 ec 05 	call	0xbd8	;  0xbd8
    41e4:	8f ed       	ldi	r24, 0xDF	; 223
    41e6:	94 e0       	ldi	r25, 0x04	; 4
    41e8:	0e 94 f5 16 	call	0x2dea	;  0x2dea
    41ec:	0f 90       	pop	r0
    41ee:	0f 90       	pop	r0
    41f0:	0f 90       	pop	r0
    41f2:	8c ed       	ldi	r24, 0xDC	; 220
    41f4:	94 e0       	ldi	r25, 0x04	; 4
    41f6:	0f 91       	pop	r16
    41f8:	ef 90       	pop	r14
    41fa:	cf 90       	pop	r12
    41fc:	af 90       	pop	r10
    41fe:	8f 90       	pop	r8
    4200:	0c 94 f5 16 	jmp	0x2dea	;  0x2dea
    4204:	81 e0       	ldi	r24, 0x01	; 1
    4206:	95 e0       	ldi	r25, 0x05	; 5
    4208:	0c 94 ee 18 	jmp	0x31dc	;  0x31dc
    420c:	cf 93       	push	r28
    420e:	df 93       	push	r29
    4210:	5d 9a       	sbi	0x0b, 5	; 11
    4212:	28 9a       	sbi	0x05, 0	; 5
    4214:	61 e0       	ldi	r22, 0x01	; 1
    4216:	85 e0       	ldi	r24, 0x05	; 5
    4218:	0e 94 a2 13 	call	0x2744	;  0x2744
    421c:	60 e0       	ldi	r22, 0x00	; 0
    421e:	85 e0       	ldi	r24, 0x05	; 5
    4220:	0e 94 de 13 	call	0x27bc	;  0x27bc
    4224:	68 ec       	ldi	r22, 0xC8	; 200
    4226:	70 e0       	ldi	r23, 0x00	; 0
    4228:	80 e0       	ldi	r24, 0x00	; 0
    422a:	90 e0       	ldi	r25, 0x00	; 0
    422c:	0e 94 c8 12 	call	0x2590	;  0x2590
    4230:	61 e0       	ldi	r22, 0x01	; 1
    4232:	85 e0       	ldi	r24, 0x05	; 5
    4234:	0e 94 de 13 	call	0x27bc	;  0x27bc
    4238:	68 ec       	ldi	r22, 0xC8	; 200
    423a:	70 e0       	ldi	r23, 0x00	; 0
    423c:	80 e0       	ldi	r24, 0x00	; 0
    423e:	90 e0       	ldi	r25, 0x00	; 0
    4240:	0e 94 c8 12 	call	0x2590	;  0x2590
    4244:	60 e0       	ldi	r22, 0x00	; 0
    4246:	85 e0       	ldi	r24, 0x05	; 5
    4248:	0e 94 de 13 	call	0x27bc	;  0x27bc
    424c:	68 ec       	ldi	r22, 0xC8	; 200
    424e:	70 e0       	ldi	r23, 0x00	; 0
    4250:	80 e0       	ldi	r24, 0x00	; 0
    4252:	90 e0       	ldi	r25, 0x00	; 0
    4254:	0e 94 c8 12 	call	0x2590	;  0x2590
    4258:	61 e0       	ldi	r22, 0x01	; 1
    425a:	85 e0       	ldi	r24, 0x05	; 5
    425c:	0e 94 de 13 	call	0x27bc	;  0x27bc
    4260:	68 ec       	ldi	r22, 0xC8	; 200
    4262:	70 e0       	ldi	r23, 0x00	; 0
    4264:	80 e0       	ldi	r24, 0x00	; 0
    4266:	90 e0       	ldi	r25, 0x00	; 0
    4268:	0e 94 c8 12 	call	0x2590	;  0x2590
    426c:	60 e0       	ldi	r22, 0x00	; 0
    426e:	85 e0       	ldi	r24, 0x05	; 5
    4270:	0e 94 de 13 	call	0x27bc	;  0x27bc
    4274:	20 e0       	ldi	r18, 0x00	; 0
    4276:	44 e0       	ldi	r20, 0x04	; 4
    4278:	64 e1       	ldi	r22, 0x14	; 20
    427a:	88 ee       	ldi	r24, 0xE8	; 232
    427c:	94 e0       	ldi	r25, 0x04	; 4
    427e:	0e 94 7c 06 	call	0xcf8	;  0xcf8
    4282:	40 e8       	ldi	r20, 0x80	; 128
    4284:	55 e2       	ldi	r21, 0x25	; 37
    4286:	60 e0       	ldi	r22, 0x00	; 0
    4288:	70 e0       	ldi	r23, 0x00	; 0
    428a:	81 e0       	ldi	r24, 0x01	; 1
    428c:	95 e0       	ldi	r25, 0x05	; 5
    428e:	0e 94 72 19 	call	0x32e4	;  0x32e4
    4292:	88 ee       	ldi	r24, 0xE8	; 232
    4294:	94 e0       	ldi	r25, 0x04	; 4
    4296:	0e 94 93 04 	call	0x926	;  0x926
    429a:	6a ea       	ldi	r22, 0xAA	; 170
    429c:	73 e0       	ldi	r23, 0x03	; 3
    429e:	88 ee       	ldi	r24, 0xE8	; 232
    42a0:	94 e0       	ldi	r25, 0x04	; 4
    42a2:	0e 94 8a 0b 	call	0x1714	;  0x1714
    42a6:	41 e0       	ldi	r20, 0x01	; 1
    42a8:	60 e0       	ldi	r22, 0x00	; 0
    42aa:	88 ee       	ldi	r24, 0xE8	; 232
    42ac:	94 e0       	ldi	r25, 0x04	; 4
    42ae:	0e 94 9a 04 	call	0x934	;  0x934
    42b2:	66 e9       	ldi	r22, 0x96	; 150
    42b4:	73 e0       	ldi	r23, 0x03	; 3
    42b6:	88 ee       	ldi	r24, 0xE8	; 232
    42b8:	94 e0       	ldi	r25, 0x04	; 4
    42ba:	0e 94 8a 0b 	call	0x1714	;  0x1714
    42be:	42 e0       	ldi	r20, 0x02	; 2
    42c0:	60 e0       	ldi	r22, 0x00	; 0
    42c2:	88 ee       	ldi	r24, 0xE8	; 232
    42c4:	94 e0       	ldi	r25, 0x04	; 4
    42c6:	0e 94 9a 04 	call	0x934	;  0x934
    42ca:	ca e0       	ldi	r28, 0x0A	; 10
    42cc:	d0 e0       	ldi	r29, 0x00	; 0
    42ce:	81 e0       	ldi	r24, 0x01	; 1
    42d0:	95 e0       	ldi	r25, 0x05	; 5
    42d2:	0e 94 1c 16 	call	0x2c38	;  0x2c38
    42d6:	18 16       	cp	r1, r24
    42d8:	19 06       	cpc	r1, r25
    42da:	44 f0       	brlt	.+16     	;  0x42ec
    42dc:	80 91 da 04 	lds	r24, 0x04DA
    42e0:	90 91 db 04 	lds	r25, 0x04DB
    42e4:	84 36       	cpi	r24, 0x64	; 100
    42e6:	91 05       	cpc	r25, r1
    42e8:	0c f4       	brge	.+2      	;  0x42ec
    42ea:	7a c0       	rjmp	.+244    	;  0x43e0
    42ec:	81 e0       	ldi	r24, 0x01	; 1
    42ee:	95 e0       	ldi	r25, 0x05	; 5
    42f0:	0e 94 1c 16 	call	0x2c38	;  0x2c38
    42f4:	89 2b       	or	r24, r25
    42f6:	59 f0       	breq	.+22     	;  0x430e
    42f8:	81 e0       	ldi	r24, 0x01	; 1
    42fa:	95 e0       	ldi	r25, 0x05	; 5
    42fc:	0e 94 62 15 	call	0x2ac4	;  0x2ac4
    4300:	68 ec       	ldi	r22, 0xC8	; 200
    4302:	70 e0       	ldi	r23, 0x00	; 0
    4304:	80 e0       	ldi	r24, 0x00	; 0
    4306:	90 e0       	ldi	r25, 0x00	; 0
    4308:	0e 94 c8 12 	call	0x2590	;  0x2590
    430c:	ef cf       	rjmp	.-34     	;  0x42ec
    430e:	88 ee       	ldi	r24, 0xE8	; 232
    4310:	94 e0       	ldi	r25, 0x04	; 4
    4312:	0e 94 93 04 	call	0x926	;  0x926
    4316:	65 e8       	ldi	r22, 0x85	; 133
    4318:	73 e0       	ldi	r23, 0x03	; 3
    431a:	88 ee       	ldi	r24, 0xE8	; 232
    431c:	94 e0       	ldi	r25, 0x04	; 4
    431e:	0e 94 8a 0b 	call	0x1714	;  0x1714
    4322:	68 ee       	ldi	r22, 0xE8	; 232
    4324:	73 e0       	ldi	r23, 0x03	; 3
    4326:	80 e0       	ldi	r24, 0x00	; 0
    4328:	90 e0       	ldi	r25, 0x00	; 0
    432a:	0e 94 c8 12 	call	0x2590	;  0x2590
    432e:	80 e1       	ldi	r24, 0x10	; 16
    4330:	80 93 81 00 	sts	0x0081, r24
    4334:	10 92 80 00 	sts	0x0080, r1
    4338:	84 e0       	ldi	r24, 0x04	; 4
    433a:	80 93 71 02 	sts	0x0271, r24
    433e:	8b e1       	ldi	r24, 0x1B	; 27
    4340:	97 eb       	ldi	r25, 0xB7	; 183
    4342:	90 93 73 02 	sts	0x0273, r25
    4346:	80 93 72 02 	sts	0x0272, r24
    434a:	90 93 87 00 	sts	0x0087, r25
    434e:	80 93 86 00 	sts	0x0086, r24
    4352:	84 e1       	ldi	r24, 0x14	; 20
    4354:	80 93 81 00 	sts	0x0081, r24
    4358:	81 e8       	ldi	r24, 0x81	; 129
    435a:	9c e1       	ldi	r25, 0x1C	; 28
    435c:	90 93 08 01 	sts	0x0108, r25
    4360:	80 93 07 01 	sts	0x0107, r24
    4364:	81 e0       	ldi	r24, 0x01	; 1
    4366:	80 93 6f 00 	sts	0x006F, r24
    436a:	82 ea       	ldi	r24, 0xA2	; 162
    436c:	91 e0       	ldi	r25, 0x01	; 1
    436e:	0e 94 01 04 	call	0x802	;  0x802
    4372:	80 e0       	ldi	r24, 0x00	; 0
    4374:	0e 94 44 07 	call	0xe88	;  0xe88
    4378:	40 e0       	ldi	r20, 0x00	; 0
    437a:	60 e0       	ldi	r22, 0x00	; 0
    437c:	81 e1       	ldi	r24, 0x11	; 17
    437e:	0e 94 73 07 	call	0xee6	;  0xee6
    4382:	48 e5       	ldi	r20, 0x58	; 88
    4384:	52 e0       	ldi	r21, 0x02	; 2
    4386:	6c e2       	ldi	r22, 0x2C	; 44
    4388:	71 e0       	ldi	r23, 0x01	; 1
    438a:	81 e1       	ldi	r24, 0x11	; 17
    438c:	0e 94 e4 07 	call	0xfc8	;  0xfc8
    4390:	67 e0       	ldi	r22, 0x07	; 7
    4392:	70 e0       	ldi	r23, 0x00	; 0
    4394:	8f ed       	ldi	r24, 0xDF	; 223
    4396:	94 e0       	ldi	r25, 0x04	; 4
    4398:	0e 94 90 17 	call	0x2f20	;  0x2f20
    439c:	6e e0       	ldi	r22, 0x0E	; 14
    439e:	70 e0       	ldi	r23, 0x00	; 0
    43a0:	8c ed       	ldi	r24, 0xDC	; 220
    43a2:	94 e0       	ldi	r25, 0x04	; 4
    43a4:	0e 94 90 17 	call	0x2f20	;  0x2f20
    43a8:	60 e0       	ldi	r22, 0x00	; 0
    43aa:	70 e0       	ldi	r23, 0x00	; 0
    43ac:	8f ed       	ldi	r24, 0xDF	; 223
    43ae:	94 e0       	ldi	r25, 0x04	; 4
    43b0:	0e 94 d9 17 	call	0x2fb2	;  0x2fb2
    43b4:	60 e0       	ldi	r22, 0x00	; 0
    43b6:	70 e0       	ldi	r23, 0x00	; 0
    43b8:	8c ed       	ldi	r24, 0xDC	; 220
    43ba:	94 e0       	ldi	r25, 0x04	; 4
    43bc:	0e 94 d9 17 	call	0x2fb2	;  0x2fb2
    43c0:	68 ee       	ldi	r22, 0xE8	; 232
    43c2:	73 e0       	ldi	r23, 0x03	; 3
    43c4:	80 e0       	ldi	r24, 0x00	; 0
    43c6:	90 e0       	ldi	r25, 0x00	; 0
    43c8:	0e 94 c8 12 	call	0x2590	;  0x2590
    43cc:	8f ed       	ldi	r24, 0xDF	; 223
    43ce:	94 e0       	ldi	r25, 0x04	; 4
    43d0:	0e 94 96 17 	call	0x2f2c	;  0x2f2c
    43d4:	8c ed       	ldi	r24, 0xDC	; 220
    43d6:	94 e0       	ldi	r25, 0x04	; 4
    43d8:	df 91       	pop	r29
    43da:	cf 91       	pop	r28
    43dc:	0c 94 96 17 	jmp	0x2f2c	;  0x2f2c
    43e0:	64 e6       	ldi	r22, 0x64	; 100
    43e2:	70 e0       	ldi	r23, 0x00	; 0
    43e4:	80 e0       	ldi	r24, 0x00	; 0
    43e6:	90 e0       	ldi	r25, 0x00	; 0
    43e8:	0e 94 c8 12 	call	0x2590	;  0x2590
    43ec:	80 91 da 04 	lds	r24, 0x04DA
    43f0:	90 91 db 04 	lds	r25, 0x04DB
    43f4:	be 01       	movw	r22, r28
    43f6:	0e 94 fe 24 	call	0x49fc	;  0x49fc
    43fa:	89 2b       	or	r24, r25
    43fc:	09 f5       	brne	.+66     	;  0x4440
    43fe:	60 91 26 01 	lds	r22, 0x0126
    4402:	70 91 27 01 	lds	r23, 0x0127
    4406:	4a e0       	ldi	r20, 0x0A	; 10
    4408:	50 e0       	ldi	r21, 0x00	; 0
    440a:	88 ee       	ldi	r24, 0xE8	; 232
    440c:	94 e0       	ldi	r25, 0x04	; 4
    440e:	0e 94 56 0c 	call	0x18ac	;  0x18ac
    4412:	64 e9       	ldi	r22, 0x94	; 148
    4414:	73 e0       	ldi	r23, 0x03	; 3
    4416:	88 ee       	ldi	r24, 0xE8	; 232
    4418:	94 e0       	ldi	r25, 0x04	; 4
    441a:	0e 94 8a 0b 	call	0x1714	;  0x1714
    441e:	80 91 26 01 	lds	r24, 0x0126
    4422:	90 91 27 01 	lds	r25, 0x0127
    4426:	01 97       	sbiw	r24, 0x01	; 1
    4428:	90 93 27 01 	sts	0x0127, r25
    442c:	80 93 26 01 	sts	0x0126, r24
    4430:	01 97       	sbiw	r24, 0x01	; 1
    4432:	31 f4       	brne	.+12     	;  0x4440
    4434:	43 e0       	ldi	r20, 0x03	; 3
    4436:	60 e0       	ldi	r22, 0x00	; 0
    4438:	88 ee       	ldi	r24, 0xE8	; 232
    443a:	94 e0       	ldi	r25, 0x04	; 4
    443c:	0e 94 9a 04 	call	0x934	;  0x934
    4440:	80 91 da 04 	lds	r24, 0x04DA
    4444:	90 91 db 04 	lds	r25, 0x04DB
    4448:	01 96       	adiw	r24, 0x01	; 1
    444a:	90 93 db 04 	sts	0x04DB, r25
    444e:	80 93 da 04 	sts	0x04DA, r24
    4452:	3d cf       	rjmp	.-390    	;  0x42ce
    4454:	ef 92       	push	r14
    4456:	ff 92       	push	r15
    4458:	0f 93       	push	r16
    445a:	1f 93       	push	r17
    445c:	cf 93       	push	r28
    445e:	df 93       	push	r29
    4460:	cd b7       	in	r28, 0x3d	; 61
    4462:	de b7       	in	r29, 0x3e	; 62
    4464:	62 97       	sbiw	r28, 0x12	; 18
    4466:	0f b6       	in	r0, 0x3f	; 63
    4468:	f8 94       	cli
    446a:	de bf       	out	0x3e, r29	; 62
    446c:	0f be       	out	0x3f, r0	; 63
    446e:	cd bf       	out	0x3d, r28	; 61
    4470:	81 e0       	ldi	r24, 0x01	; 1
    4472:	95 e0       	ldi	r25, 0x05	; 5
    4474:	0e 94 1c 16 	call	0x2c38	;  0x2c38
    4478:	89 2b       	or	r24, r25
    447a:	09 f4       	brne	.+2      	;  0x447e
    447c:	77 c2       	rjmp	.+1262   	;  0x496c
    447e:	81 e0       	ldi	r24, 0x01	; 1
    4480:	95 e0       	ldi	r25, 0x05	; 5
    4482:	0e 94 62 15 	call	0x2ac4	;  0x2ac4
    4486:	7c 01       	movw	r14, r24
    4488:	81 11       	cpse	r24, r1
    448a:	03 c0       	rjmp	.+6      	;  0x4492
    448c:	10 92 2e 01 	sts	0x012E, r1
    4490:	6d c2       	rjmp	.+1242   	;  0x496c
    4492:	81 30       	cpi	r24, 0x01	; 1
    4494:	19 f4       	brne	.+6      	;  0x449c
    4496:	e0 92 2e 01 	sts	0x012E, r14
    449a:	68 c2       	rjmp	.+1232   	;  0x496c
    449c:	20 91 2e 01 	lds	r18, 0x012E
    44a0:	80 91 be 04 	lds	r24, 0x04BE
    44a4:	90 91 bf 04 	lds	r25, 0x04BF
    44a8:	22 23       	and	r18, r18
    44aa:	09 f4       	brne	.+2      	;  0x44ae
    44ac:	04 c2       	rjmp	.+1032   	;  0x48b6
    44ae:	20 91 c0 04 	lds	r18, 0x04C0
    44b2:	30 91 c1 04 	lds	r19, 0x04C1
    44b6:	89 2b       	or	r24, r25
    44b8:	09 f0       	breq	.+2      	;  0x44bc
    44ba:	45 c0       	rjmp	.+138    	;  0x4546
    44bc:	21 15       	cp	r18, r1
    44be:	31 05       	cpc	r19, r1
    44c0:	09 f0       	breq	.+2      	;  0x44c4
    44c2:	41 c0       	rjmp	.+130    	;  0x4546
    44c4:	0e 94 c8 20 	call	0x4190	;  0x4190
    44c8:	4a e0       	ldi	r20, 0x0A	; 10
    44ca:	62 ee       	ldi	r22, 0xE2	; 226
    44cc:	74 e0       	ldi	r23, 0x04	; 4
    44ce:	87 01       	movw	r16, r14
    44d0:	11 27       	eor	r17, r17
    44d2:	c8 01       	movw	r24, r16
    44d4:	0e 94 6e 27 	call	0x4edc	;  0x4edc
    44d8:	60 e2       	ldi	r22, 0x20	; 32
    44da:	ce 01       	movw	r24, r28
    44dc:	07 96       	adiw	r24, 0x07	; 7
    44de:	0e 94 09 15 	call	0x2a12	;  0x2a12
    44e2:	62 ee       	ldi	r22, 0xE2	; 226
    44e4:	74 e0       	ldi	r23, 0x04	; 4
    44e6:	ce 01       	movw	r24, r28
    44e8:	0d 96       	adiw	r24, 0x0d	; 13
    44ea:	0e 94 bd 14 	call	0x297a	;  0x297a
    44ee:	be 01       	movw	r22, r28
    44f0:	63 5f       	subi	r22, 0xF3	; 243
    44f2:	7f 4f       	sbci	r23, 0xFF	; 255
    44f4:	ce 01       	movw	r24, r28
    44f6:	01 96       	adiw	r24, 0x01	; 1
    44f8:	0e 94 e9 14 	call	0x29d2	;  0x29d2
    44fc:	be 01       	movw	r22, r28
    44fe:	69 5f       	subi	r22, 0xF9	; 249
    4500:	7f 4f       	sbci	r23, 0xFF	; 255
    4502:	ce 01       	movw	r24, r28
    4504:	01 96       	adiw	r24, 0x01	; 1
    4506:	0e 94 4f 15 	call	0x2a9e	;  0x2a9e
    450a:	bc 01       	movw	r22, r24
    450c:	88 ee       	ldi	r24, 0xE8	; 232
    450e:	94 e0       	ldi	r25, 0x04	; 4
    4510:	0e 94 ae 0b 	call	0x175c	;  0x175c
    4514:	ce 01       	movw	r24, r28
    4516:	01 96       	adiw	r24, 0x01	; 1
    4518:	0e 94 4f 14 	call	0x289e	;  0x289e
    451c:	ce 01       	movw	r24, r28
    451e:	0d 96       	adiw	r24, 0x0d	; 13
    4520:	0e 94 4f 14 	call	0x289e	;  0x289e
    4524:	ce 01       	movw	r24, r28
    4526:	07 96       	adiw	r24, 0x07	; 7
    4528:	0e 94 4f 14 	call	0x289e	;  0x289e
    452c:	f8 01       	movw	r30, r16
    452e:	e1 54       	subi	r30, 0x41	; 65
    4530:	fc 4f       	sbci	r31, 0xFC	; 252
    4532:	64 91       	lpm	r22, Z
    4534:	82 ea       	ldi	r24, 0xA2	; 162
    4536:	91 e0       	ldi	r25, 0x01	; 1
    4538:	0e 94 84 03 	call	0x708	;  0x708
    453c:	82 ea       	ldi	r24, 0xA2	; 162
    453e:	91 e0       	ldi	r25, 0x01	; 1
    4540:	0e 94 7a 03 	call	0x6f4	;  0x6f4
    4544:	b4 c1       	rjmp	.+872    	;  0x48ae
    4546:	21 30       	cpi	r18, 0x01	; 1
    4548:	31 05       	cpc	r19, r1
    454a:	09 f0       	breq	.+2      	;  0x454e
    454c:	b0 c1       	rjmp	.+864    	;  0x48ae
    454e:	c7 01       	movw	r24, r14
    4550:	99 27       	eor	r25, r25
    4552:	88 3d       	cpi	r24, 0xD8	; 216
    4554:	91 05       	cpc	r25, r1
    4556:	09 f4       	brne	.+2      	;  0x455a
    4558:	ca c0       	rjmp	.+404    	;  0x46ee
    455a:	4c f4       	brge	.+18     	;  0x456e
    455c:	80 32       	cpi	r24, 0x20	; 32
    455e:	91 05       	cpc	r25, r1
    4560:	09 f4       	brne	.+2      	;  0x4564
    4562:	83 c1       	rjmp	.+774    	;  0x486a
    4564:	87 3d       	cpi	r24, 0xD7	; 215
    4566:	91 05       	cpc	r25, r1
    4568:	09 f4       	brne	.+2      	;  0x456c
    456a:	19 c1       	rjmp	.+562    	;  0x479e
    456c:	a0 c1       	rjmp	.+832    	;  0x48ae
    456e:	89 3d       	cpi	r24, 0xD9	; 217
    4570:	91 05       	cpc	r25, r1
    4572:	09 f4       	brne	.+2      	;  0x4576
    4574:	5c c0       	rjmp	.+184    	;  0x462e
    4576:	8a 3d       	cpi	r24, 0xDA	; 218
    4578:	91 05       	cpc	r25, r1
    457a:	09 f0       	breq	.+2      	;  0x457e
    457c:	98 c1       	rjmp	.+816    	;  0x48ae
    457e:	20 91 b6 04 	lds	r18, 0x04B6
    4582:	30 91 b7 04 	lds	r19, 0x04B7
    4586:	2a 3a       	cpi	r18, 0xAA	; 170
    4588:	31 05       	cpc	r19, r1
    458a:	8c f4       	brge	.+34     	;  0x45ae
    458c:	40 91 b2 04 	lds	r20, 0x04B2
    4590:	50 91 b3 04 	lds	r21, 0x04B3
    4594:	69 e0       	ldi	r22, 0x09	; 9
    4596:	64 9f       	mul	r22, r20
    4598:	c0 01       	movw	r24, r0
    459a:	65 9f       	mul	r22, r21
    459c:	90 0d       	add	r25, r0
    459e:	11 24       	eor	r1, r1
    45a0:	82 0f       	add	r24, r18
    45a2:	93 1f       	adc	r25, r19
    45a4:	01 96       	adiw	r24, 0x01	; 1
    45a6:	90 93 b7 04 	sts	0x04B7, r25
    45aa:	80 93 b6 04 	sts	0x04B6, r24
    45ae:	67 e0       	ldi	r22, 0x07	; 7
    45b0:	70 e0       	ldi	r23, 0x00	; 0
    45b2:	8f ed       	ldi	r24, 0xDF	; 223
    45b4:	94 e0       	ldi	r25, 0x04	; 4
    45b6:	0e 94 90 17 	call	0x2f20	;  0x2f20
    45ba:	60 91 b6 04 	lds	r22, 0x04B6
    45be:	70 91 b7 04 	lds	r23, 0x04B7
    45c2:	8f ed       	ldi	r24, 0xDF	; 223
    45c4:	94 e0       	ldi	r25, 0x04	; 4
    45c6:	0e 94 d9 17 	call	0x2fb2	;  0x2fb2
    45ca:	20 91 b2 04 	lds	r18, 0x04B2
    45ce:	30 91 b3 04 	lds	r19, 0x04B3
    45d2:	80 91 2a 01 	lds	r24, 0x012A
    45d6:	90 91 2b 01 	lds	r25, 0x012B
    45da:	28 9f       	mul	r18, r24
    45dc:	b0 01       	movw	r22, r0
    45de:	29 9f       	mul	r18, r25
    45e0:	70 0d       	add	r23, r0
    45e2:	38 9f       	mul	r19, r24
    45e4:	70 0d       	add	r23, r0
    45e6:	11 24       	eor	r1, r1
    45e8:	80 91 2c 01 	lds	r24, 0x012C
    45ec:	90 91 2d 01 	lds	r25, 0x012D
    45f0:	68 0f       	add	r22, r24
    45f2:	79 1f       	adc	r23, r25
    45f4:	88 27       	eor	r24, r24
    45f6:	77 fd       	sbrc	r23, 7
    45f8:	80 95       	com	r24
    45fa:	98 2f       	mov	r25, r24
    45fc:	0e 94 c8 12 	call	0x2590	;  0x2590
    4600:	8f ed       	ldi	r24, 0xDF	; 223
    4602:	94 e0       	ldi	r25, 0x04	; 4
    4604:	0e 94 96 17 	call	0x2f2c	;  0x2f2c
    4608:	88 ee       	ldi	r24, 0xE8	; 232
    460a:	94 e0       	ldi	r25, 0x04	; 4
    460c:	0e 94 93 04 	call	0x926	;  0x926
    4610:	6a e9       	ldi	r22, 0x9A	; 154
    4612:	72 e0       	ldi	r23, 0x02	; 2
    4614:	88 ee       	ldi	r24, 0xE8	; 232
    4616:	94 e0       	ldi	r25, 0x04	; 4
    4618:	0e 94 8a 0b 	call	0x1714	;  0x1714
    461c:	41 e0       	ldi	r20, 0x01	; 1
    461e:	60 e0       	ldi	r22, 0x00	; 0
    4620:	88 ee       	ldi	r24, 0xE8	; 232
    4622:	94 e0       	ldi	r25, 0x04	; 4
    4624:	0e 94 9a 04 	call	0x934	;  0x934
    4628:	6b e8       	ldi	r22, 0x8B	; 139
    462a:	72 e0       	ldi	r23, 0x02	; 2
    462c:	57 c0       	rjmp	.+174    	;  0x46dc
    462e:	20 91 b6 04 	lds	r18, 0x04B6
    4632:	30 91 b7 04 	lds	r19, 0x04B7
    4636:	2b 30       	cpi	r18, 0x0B	; 11
    4638:	31 05       	cpc	r19, r1
    463a:	8c f0       	brlt	.+34     	;  0x465e
    463c:	40 91 b2 04 	lds	r20, 0x04B2
    4640:	50 91 b3 04 	lds	r21, 0x04B3
    4644:	67 ef       	ldi	r22, 0xF7	; 247
    4646:	64 03       	mulsu	r22, r20
    4648:	c0 01       	movw	r24, r0
    464a:	65 9f       	mul	r22, r21
    464c:	90 0d       	add	r25, r0
    464e:	11 24       	eor	r1, r1
    4650:	82 0f       	add	r24, r18
    4652:	93 1f       	adc	r25, r19
    4654:	01 97       	sbiw	r24, 0x01	; 1
    4656:	90 93 b7 04 	sts	0x04B7, r25
    465a:	80 93 b6 04 	sts	0x04B6, r24
    465e:	67 e0       	ldi	r22, 0x07	; 7
    4660:	70 e0       	ldi	r23, 0x00	; 0
    4662:	8f ed       	ldi	r24, 0xDF	; 223
    4664:	94 e0       	ldi	r25, 0x04	; 4
    4666:	0e 94 90 17 	call	0x2f20	;  0x2f20
    466a:	60 91 b6 04 	lds	r22, 0x04B6
    466e:	70 91 b7 04 	lds	r23, 0x04B7
    4672:	8f ed       	ldi	r24, 0xDF	; 223
    4674:	94 e0       	ldi	r25, 0x04	; 4
    4676:	0e 94 d9 17 	call	0x2fb2	;  0x2fb2
    467a:	20 91 b2 04 	lds	r18, 0x04B2
    467e:	30 91 b3 04 	lds	r19, 0x04B3
    4682:	80 91 2a 01 	lds	r24, 0x012A
    4686:	90 91 2b 01 	lds	r25, 0x012B
    468a:	28 9f       	mul	r18, r24
    468c:	b0 01       	movw	r22, r0
    468e:	29 9f       	mul	r18, r25
    4690:	70 0d       	add	r23, r0
    4692:	38 9f       	mul	r19, r24
    4694:	70 0d       	add	r23, r0
    4696:	11 24       	eor	r1, r1
    4698:	80 91 2c 01 	lds	r24, 0x012C
    469c:	90 91 2d 01 	lds	r25, 0x012D
    46a0:	68 0f       	add	r22, r24
    46a2:	79 1f       	adc	r23, r25
    46a4:	88 27       	eor	r24, r24
    46a6:	77 fd       	sbrc	r23, 7
    46a8:	80 95       	com	r24
    46aa:	98 2f       	mov	r25, r24
    46ac:	0e 94 c8 12 	call	0x2590	;  0x2590
    46b0:	8f ed       	ldi	r24, 0xDF	; 223
    46b2:	94 e0       	ldi	r25, 0x04	; 4
    46b4:	0e 94 96 17 	call	0x2f2c	;  0x2f2c
    46b8:	88 ee       	ldi	r24, 0xE8	; 232
    46ba:	94 e0       	ldi	r25, 0x04	; 4
    46bc:	0e 94 93 04 	call	0x926	;  0x926
    46c0:	6b e7       	ldi	r22, 0x7B	; 123
    46c2:	72 e0       	ldi	r23, 0x02	; 2
    46c4:	88 ee       	ldi	r24, 0xE8	; 232
    46c6:	94 e0       	ldi	r25, 0x04	; 4
    46c8:	0e 94 8a 0b 	call	0x1714	;  0x1714
    46cc:	41 e0       	ldi	r20, 0x01	; 1
    46ce:	60 e0       	ldi	r22, 0x00	; 0
    46d0:	88 ee       	ldi	r24, 0xE8	; 232
    46d2:	94 e0       	ldi	r25, 0x04	; 4
    46d4:	0e 94 9a 04 	call	0x934	;  0x934
    46d8:	6c e6       	ldi	r22, 0x6C	; 108
    46da:	72 e0       	ldi	r23, 0x02	; 2
    46dc:	88 ee       	ldi	r24, 0xE8	; 232
    46de:	94 e0       	ldi	r25, 0x04	; 4
    46e0:	0e 94 8a 0b 	call	0x1714	;  0x1714
    46e4:	60 91 b6 04 	lds	r22, 0x04B6
    46e8:	70 91 b7 04 	lds	r23, 0x04B7
    46ec:	b7 c0       	rjmp	.+366    	;  0x485c
    46ee:	20 91 b4 04 	lds	r18, 0x04B4
    46f2:	30 91 b5 04 	lds	r19, 0x04B5
    46f6:	2a 3a       	cpi	r18, 0xAA	; 170
    46f8:	31 05       	cpc	r19, r1
    46fa:	8c f4       	brge	.+34     	;  0x471e
    46fc:	40 91 b2 04 	lds	r20, 0x04B2
    4700:	50 91 b3 04 	lds	r21, 0x04B3
    4704:	69 e0       	ldi	r22, 0x09	; 9
    4706:	64 9f       	mul	r22, r20
    4708:	c0 01       	movw	r24, r0
    470a:	65 9f       	mul	r22, r21
    470c:	90 0d       	add	r25, r0
    470e:	11 24       	eor	r1, r1
    4710:	82 0f       	add	r24, r18
    4712:	93 1f       	adc	r25, r19
    4714:	01 96       	adiw	r24, 0x01	; 1
    4716:	90 93 b5 04 	sts	0x04B5, r25
    471a:	80 93 b4 04 	sts	0x04B4, r24
    471e:	6e e0       	ldi	r22, 0x0E	; 14
    4720:	70 e0       	ldi	r23, 0x00	; 0
    4722:	8c ed       	ldi	r24, 0xDC	; 220
    4724:	94 e0       	ldi	r25, 0x04	; 4
    4726:	0e 94 90 17 	call	0x2f20	;  0x2f20
    472a:	60 91 b4 04 	lds	r22, 0x04B4
    472e:	70 91 b5 04 	lds	r23, 0x04B5
    4732:	8c ed       	ldi	r24, 0xDC	; 220
    4734:	94 e0       	ldi	r25, 0x04	; 4
    4736:	0e 94 d9 17 	call	0x2fb2	;  0x2fb2
    473a:	20 91 b2 04 	lds	r18, 0x04B2
    473e:	30 91 b3 04 	lds	r19, 0x04B3
    4742:	80 91 2a 01 	lds	r24, 0x012A
    4746:	90 91 2b 01 	lds	r25, 0x012B
    474a:	28 9f       	mul	r18, r24
    474c:	b0 01       	movw	r22, r0
    474e:	29 9f       	mul	r18, r25
    4750:	70 0d       	add	r23, r0
    4752:	38 9f       	mul	r19, r24
    4754:	70 0d       	add	r23, r0
    4756:	11 24       	eor	r1, r1
    4758:	80 91 2c 01 	lds	r24, 0x012C
    475c:	90 91 2d 01 	lds	r25, 0x012D
    4760:	68 0f       	add	r22, r24
    4762:	79 1f       	adc	r23, r25
    4764:	88 27       	eor	r24, r24
    4766:	77 fd       	sbrc	r23, 7
    4768:	80 95       	com	r24
    476a:	98 2f       	mov	r25, r24
    476c:	0e 94 c8 12 	call	0x2590	;  0x2590
    4770:	8c ed       	ldi	r24, 0xDC	; 220
    4772:	94 e0       	ldi	r25, 0x04	; 4
    4774:	0e 94 96 17 	call	0x2f2c	;  0x2f2c
    4778:	88 ee       	ldi	r24, 0xE8	; 232
    477a:	94 e0       	ldi	r25, 0x04	; 4
    477c:	0e 94 93 04 	call	0x926	;  0x926
    4780:	6d e5       	ldi	r22, 0x5D	; 93
    4782:	72 e0       	ldi	r23, 0x02	; 2
    4784:	88 ee       	ldi	r24, 0xE8	; 232
    4786:	94 e0       	ldi	r25, 0x04	; 4
    4788:	0e 94 8a 0b 	call	0x1714	;  0x1714
    478c:	41 e0       	ldi	r20, 0x01	; 1
    478e:	60 e0       	ldi	r22, 0x00	; 0
    4790:	88 ee       	ldi	r24, 0xE8	; 232
    4792:	94 e0       	ldi	r25, 0x04	; 4
    4794:	0e 94 9a 04 	call	0x934	;  0x934
    4798:	6e e4       	ldi	r22, 0x4E	; 78
    479a:	72 e0       	ldi	r23, 0x02	; 2
    479c:	57 c0       	rjmp	.+174    	;  0x484c
    479e:	20 91 b4 04 	lds	r18, 0x04B4
    47a2:	30 91 b5 04 	lds	r19, 0x04B5
    47a6:	2b 30       	cpi	r18, 0x0B	; 11
    47a8:	31 05       	cpc	r19, r1
    47aa:	8c f0       	brlt	.+34     	;  0x47ce
    47ac:	40 91 b2 04 	lds	r20, 0x04B2
    47b0:	50 91 b3 04 	lds	r21, 0x04B3
    47b4:	67 ef       	ldi	r22, 0xF7	; 247
    47b6:	64 03       	mulsu	r22, r20
    47b8:	c0 01       	movw	r24, r0
    47ba:	65 9f       	mul	r22, r21
    47bc:	90 0d       	add	r25, r0
    47be:	11 24       	eor	r1, r1
    47c0:	82 0f       	add	r24, r18
    47c2:	93 1f       	adc	r25, r19
    47c4:	01 97       	sbiw	r24, 0x01	; 1
    47c6:	90 93 b5 04 	sts	0x04B5, r25
    47ca:	80 93 b4 04 	sts	0x04B4, r24
    47ce:	6e e0       	ldi	r22, 0x0E	; 14
    47d0:	70 e0       	ldi	r23, 0x00	; 0
    47d2:	8c ed       	ldi	r24, 0xDC	; 220
    47d4:	94 e0       	ldi	r25, 0x04	; 4
    47d6:	0e 94 90 17 	call	0x2f20	;  0x2f20
    47da:	60 91 b4 04 	lds	r22, 0x04B4
    47de:	70 91 b5 04 	lds	r23, 0x04B5
    47e2:	8c ed       	ldi	r24, 0xDC	; 220
    47e4:	94 e0       	ldi	r25, 0x04	; 4
    47e6:	0e 94 d9 17 	call	0x2fb2	;  0x2fb2
    47ea:	20 91 b2 04 	lds	r18, 0x04B2
    47ee:	30 91 b3 04 	lds	r19, 0x04B3
    47f2:	80 91 2a 01 	lds	r24, 0x012A
    47f6:	90 91 2b 01 	lds	r25, 0x012B
    47fa:	28 9f       	mul	r18, r24
    47fc:	b0 01       	movw	r22, r0
    47fe:	29 9f       	mul	r18, r25
    4800:	70 0d       	add	r23, r0
    4802:	38 9f       	mul	r19, r24
    4804:	70 0d       	add	r23, r0
    4806:	11 24       	eor	r1, r1
    4808:	80 91 2c 01 	lds	r24, 0x012C
    480c:	90 91 2d 01 	lds	r25, 0x012D
    4810:	68 0f       	add	r22, r24
    4812:	79 1f       	adc	r23, r25
    4814:	88 27       	eor	r24, r24
    4816:	77 fd       	sbrc	r23, 7
    4818:	80 95       	com	r24
    481a:	98 2f       	mov	r25, r24
    481c:	0e 94 c8 12 	call	0x2590	;  0x2590
    4820:	8c ed       	ldi	r24, 0xDC	; 220
    4822:	94 e0       	ldi	r25, 0x04	; 4
    4824:	0e 94 96 17 	call	0x2f2c	;  0x2f2c
    4828:	88 ee       	ldi	r24, 0xE8	; 232
    482a:	94 e0       	ldi	r25, 0x04	; 4
    482c:	0e 94 93 04 	call	0x926	;  0x926
    4830:	6e e3       	ldi	r22, 0x3E	; 62
    4832:	72 e0       	ldi	r23, 0x02	; 2
    4834:	88 ee       	ldi	r24, 0xE8	; 232
    4836:	94 e0       	ldi	r25, 0x04	; 4
    4838:	0e 94 8a 0b 	call	0x1714	;  0x1714
    483c:	41 e0       	ldi	r20, 0x01	; 1
    483e:	60 e0       	ldi	r22, 0x00	; 0
    4840:	88 ee       	ldi	r24, 0xE8	; 232
    4842:	94 e0       	ldi	r25, 0x04	; 4
    4844:	0e 94 9a 04 	call	0x934	;  0x934
    4848:	6f e2       	ldi	r22, 0x2F	; 47
    484a:	72 e0       	ldi	r23, 0x02	; 2
    484c:	88 ee       	ldi	r24, 0xE8	; 232
    484e:	94 e0       	ldi	r25, 0x04	; 4
    4850:	0e 94 8a 0b 	call	0x1714	;  0x1714
    4854:	60 91 b4 04 	lds	r22, 0x04B4
    4858:	70 91 b5 04 	lds	r23, 0x04B5
    485c:	4a e0       	ldi	r20, 0x0A	; 10
    485e:	50 e0       	ldi	r21, 0x00	; 0
    4860:	88 ee       	ldi	r24, 0xE8	; 232
    4862:	94 e0       	ldi	r25, 0x04	; 4
    4864:	0e 94 56 0c 	call	0x18ac	;  0x18ac
    4868:	22 c0       	rjmp	.+68     	;  0x48ae
    486a:	60 91 b6 04 	lds	r22, 0x04B6
    486e:	80 e0       	ldi	r24, 0x00	; 0
    4870:	90 e0       	ldi	r25, 0x00	; 0
    4872:	0e 94 99 1c 	call	0x3932	;  0x3932
    4876:	60 91 b4 04 	lds	r22, 0x04B4
    487a:	81 e0       	ldi	r24, 0x01	; 1
    487c:	90 e0       	ldi	r25, 0x00	; 0
    487e:	0e 94 99 1c 	call	0x3932	;  0x3932
    4882:	88 ee       	ldi	r24, 0xE8	; 232
    4884:	94 e0       	ldi	r25, 0x04	; 4
    4886:	0e 94 93 04 	call	0x926	;  0x926
    488a:	6f e1       	ldi	r22, 0x1F	; 31
    488c:	72 e0       	ldi	r23, 0x02	; 2
    488e:	88 ee       	ldi	r24, 0xE8	; 232
    4890:	94 e0       	ldi	r25, 0x04	; 4
    4892:	0e 94 8a 0b 	call	0x1714	;  0x1714
    4896:	41 e0       	ldi	r20, 0x01	; 1
    4898:	60 e0       	ldi	r22, 0x00	; 0
    489a:	88 ee       	ldi	r24, 0xE8	; 232
    489c:	94 e0       	ldi	r25, 0x04	; 4
    489e:	0e 94 9a 04 	call	0x934	;  0x934
    48a2:	65 e1       	ldi	r22, 0x15	; 21
    48a4:	72 e0       	ldi	r23, 0x02	; 2
    48a6:	88 ee       	ldi	r24, 0xE8	; 232
    48a8:	94 e0       	ldi	r25, 0x04	; 4
    48aa:	0e 94 8a 0b 	call	0x1714	;  0x1714
    48ae:	8e 2d       	mov	r24, r14
    48b0:	0e 94 b5 1c 	call	0x396a	;  0x396a
    48b4:	4d c0       	rjmp	.+154    	;  0x4950
    48b6:	89 2b       	or	r24, r25
    48b8:	09 f0       	breq	.+2      	;  0x48bc
    48ba:	47 c0       	rjmp	.+142    	;  0x494a
    48bc:	80 91 c0 04 	lds	r24, 0x04C0
    48c0:	90 91 c1 04 	lds	r25, 0x04C1
    48c4:	89 2b       	or	r24, r25
    48c6:	09 f0       	breq	.+2      	;  0x48ca
    48c8:	40 c0       	rjmp	.+128    	;  0x494a
    48ca:	0e 94 c8 20 	call	0x4190	;  0x4190
    48ce:	4a e0       	ldi	r20, 0x0A	; 10
    48d0:	62 ee       	ldi	r22, 0xE2	; 226
    48d2:	74 e0       	ldi	r23, 0x04	; 4
    48d4:	87 01       	movw	r16, r14
    48d6:	11 27       	eor	r17, r17
    48d8:	c8 01       	movw	r24, r16
    48da:	0e 94 6e 27 	call	0x4edc	;  0x4edc
    48de:	60 e2       	ldi	r22, 0x20	; 32
    48e0:	ce 01       	movw	r24, r28
    48e2:	07 96       	adiw	r24, 0x07	; 7
    48e4:	0e 94 09 15 	call	0x2a12	;  0x2a12
    48e8:	62 ee       	ldi	r22, 0xE2	; 226
    48ea:	74 e0       	ldi	r23, 0x04	; 4
    48ec:	ce 01       	movw	r24, r28
    48ee:	0d 96       	adiw	r24, 0x0d	; 13
    48f0:	0e 94 bd 14 	call	0x297a	;  0x297a
    48f4:	be 01       	movw	r22, r28
    48f6:	63 5f       	subi	r22, 0xF3	; 243
    48f8:	7f 4f       	sbci	r23, 0xFF	; 255
    48fa:	ce 01       	movw	r24, r28
    48fc:	01 96       	adiw	r24, 0x01	; 1
    48fe:	0e 94 e9 14 	call	0x29d2	;  0x29d2
    4902:	be 01       	movw	r22, r28
    4904:	69 5f       	subi	r22, 0xF9	; 249
    4906:	7f 4f       	sbci	r23, 0xFF	; 255
    4908:	ce 01       	movw	r24, r28
    490a:	01 96       	adiw	r24, 0x01	; 1
    490c:	0e 94 4f 15 	call	0x2a9e	;  0x2a9e
    4910:	bc 01       	movw	r22, r24
    4912:	88 ee       	ldi	r24, 0xE8	; 232
    4914:	94 e0       	ldi	r25, 0x04	; 4
    4916:	0e 94 ae 0b 	call	0x175c	;  0x175c
    491a:	ce 01       	movw	r24, r28
    491c:	01 96       	adiw	r24, 0x01	; 1
    491e:	0e 94 4f 14 	call	0x289e	;  0x289e
    4922:	ce 01       	movw	r24, r28
    4924:	0d 96       	adiw	r24, 0x0d	; 13
    4926:	0e 94 4f 14 	call	0x289e	;  0x289e
    492a:	ce 01       	movw	r24, r28
    492c:	07 96       	adiw	r24, 0x07	; 7
    492e:	0e 94 4f 14 	call	0x289e	;  0x289e
    4932:	f8 01       	movw	r30, r16
    4934:	e1 54       	subi	r30, 0x41	; 65
    4936:	fc 4f       	sbci	r31, 0xFC	; 252
    4938:	64 91       	lpm	r22, Z
    493a:	82 ea       	ldi	r24, 0xA2	; 162
    493c:	91 e0       	ldi	r25, 0x01	; 1
    493e:	0e 94 ac 03 	call	0x758	;  0x758
    4942:	82 ea       	ldi	r24, 0xA2	; 162
    4944:	91 e0       	ldi	r25, 0x01	; 1
    4946:	0e 94 7a 03 	call	0x6f4	;  0x6f4
    494a:	8e 2d       	mov	r24, r14
    494c:	0e 94 c5 1d 	call	0x3b8a	;  0x3b8a
    4950:	61 e0       	ldi	r22, 0x01	; 1
    4952:	85 e0       	ldi	r24, 0x05	; 5
    4954:	0e 94 de 13 	call	0x27bc	;  0x27bc
    4958:	68 e2       	ldi	r22, 0x28	; 40
    495a:	70 e0       	ldi	r23, 0x00	; 0
    495c:	80 e0       	ldi	r24, 0x00	; 0
    495e:	90 e0       	ldi	r25, 0x00	; 0
    4960:	0e 94 c8 12 	call	0x2590	;  0x2590
    4964:	60 e0       	ldi	r22, 0x00	; 0
    4966:	85 e0       	ldi	r24, 0x05	; 5
    4968:	0e 94 de 13 	call	0x27bc	;  0x27bc
    496c:	62 96       	adiw	r28, 0x12	; 18
    496e:	0f b6       	in	r0, 0x3f	; 63
    4970:	f8 94       	cli
    4972:	de bf       	out	0x3e, r29	; 62
    4974:	0f be       	out	0x3f, r0	; 63
    4976:	cd bf       	out	0x3d, r28	; 61
    4978:	df 91       	pop	r29
    497a:	cf 91       	pop	r28
    497c:	1f 91       	pop	r17
    497e:	0f 91       	pop	r16
    4980:	ff 90       	pop	r15
    4982:	ef 90       	pop	r14
    4984:	08 95       	ret
    4986:	0e 94 59 25 	call	0x4ab2	;  0x4ab2
    498a:	a5 9f       	mul	r26, r21
    498c:	90 0d       	add	r25, r0
    498e:	b4 9f       	mul	r27, r20
    4990:	90 0d       	add	r25, r0
    4992:	a4 9f       	mul	r26, r20
    4994:	80 0d       	add	r24, r0
    4996:	91 1d       	adc	r25, r1
    4998:	11 24       	eor	r1, r1
    499a:	08 95       	ret
    499c:	db 01       	movw	r26, r22
    499e:	8f 93       	push	r24
    49a0:	9f 93       	push	r25
    49a2:	0e 94 c3 24 	call	0x4986	;  0x4986
    49a6:	bf 91       	pop	r27
    49a8:	af 91       	pop	r26
    49aa:	a2 9f       	mul	r26, r18
    49ac:	80 0d       	add	r24, r0
    49ae:	91 1d       	adc	r25, r1
    49b0:	a3 9f       	mul	r26, r19
    49b2:	90 0d       	add	r25, r0
    49b4:	b2 9f       	mul	r27, r18
    49b6:	90 0d       	add	r25, r0
    49b8:	11 24       	eor	r1, r1
    49ba:	08 95       	ret
    49bc:	99 1b       	sub	r25, r25
    49be:	79 e0       	ldi	r23, 0x09	; 9
    49c0:	04 c0       	rjmp	.+8      	;  0x49ca
    49c2:	99 1f       	adc	r25, r25
    49c4:	96 17       	cp	r25, r22
    49c6:	08 f0       	brcs	.+2      	;  0x49ca
    49c8:	96 1b       	sub	r25, r22
    49ca:	88 1f       	adc	r24, r24
    49cc:	7a 95       	dec	r23
    49ce:	c9 f7       	brne	.-14     	;  0x49c2
    49d0:	80 95       	com	r24
    49d2:	08 95       	ret
    49d4:	aa 1b       	sub	r26, r26
    49d6:	bb 1b       	sub	r27, r27
    49d8:	51 e1       	ldi	r21, 0x11	; 17
    49da:	07 c0       	rjmp	.+14     	;  0x49ea
    49dc:	aa 1f       	adc	r26, r26
    49de:	bb 1f       	adc	r27, r27
    49e0:	a6 17       	cp	r26, r22
    49e2:	b7 07       	cpc	r27, r23
    49e4:	10 f0       	brcs	.+4      	;  0x49ea
    49e6:	a6 1b       	sub	r26, r22
    49e8:	b7 0b       	sbc	r27, r23
    49ea:	88 1f       	adc	r24, r24
    49ec:	99 1f       	adc	r25, r25
    49ee:	5a 95       	dec	r21
    49f0:	a9 f7       	brne	.-22     	;  0x49dc
    49f2:	80 95       	com	r24
    49f4:	90 95       	com	r25
    49f6:	bc 01       	movw	r22, r24
    49f8:	cd 01       	movw	r24, r26
    49fa:	08 95       	ret
    49fc:	97 fb       	bst	r25, 7
    49fe:	07 2e       	mov	r0, r23
    4a00:	16 f4       	brtc	.+4      	;  0x4a06
    4a02:	00 94       	com	r0
    4a04:	07 d0       	rcall	.+14     	;  0x4a14
    4a06:	77 fd       	sbrc	r23, 7
    4a08:	09 d0       	rcall	.+18     	;  0x4a1c
    4a0a:	0e 94 ea 24 	call	0x49d4	;  0x49d4
    4a0e:	07 fc       	sbrc	r0, 7
    4a10:	05 d0       	rcall	.+10     	;  0x4a1c
    4a12:	3e f4       	brtc	.+14     	;  0x4a22
    4a14:	90 95       	com	r25
    4a16:	81 95       	neg	r24
    4a18:	9f 4f       	sbci	r25, 0xFF	; 255
    4a1a:	08 95       	ret
    4a1c:	70 95       	com	r23
    4a1e:	61 95       	neg	r22
    4a20:	7f 4f       	sbci	r23, 0xFF	; 255
    4a22:	08 95       	ret
    4a24:	a1 e2       	ldi	r26, 0x21	; 33
    4a26:	1a 2e       	mov	r1, r26
    4a28:	aa 1b       	sub	r26, r26
    4a2a:	bb 1b       	sub	r27, r27
    4a2c:	fd 01       	movw	r30, r26
    4a2e:	0d c0       	rjmp	.+26     	;  0x4a4a
    4a30:	aa 1f       	adc	r26, r26
    4a32:	bb 1f       	adc	r27, r27
    4a34:	ee 1f       	adc	r30, r30
    4a36:	ff 1f       	adc	r31, r31
    4a38:	a2 17       	cp	r26, r18
    4a3a:	b3 07       	cpc	r27, r19
    4a3c:	e4 07       	cpc	r30, r20
    4a3e:	f5 07       	cpc	r31, r21
    4a40:	20 f0       	brcs	.+8      	;  0x4a4a
    4a42:	a2 1b       	sub	r26, r18
    4a44:	b3 0b       	sbc	r27, r19
    4a46:	e4 0b       	sbc	r30, r20
    4a48:	f5 0b       	sbc	r31, r21
    4a4a:	66 1f       	adc	r22, r22
    4a4c:	77 1f       	adc	r23, r23
    4a4e:	88 1f       	adc	r24, r24
    4a50:	99 1f       	adc	r25, r25
    4a52:	1a 94       	dec	r1
    4a54:	69 f7       	brne	.-38     	;  0x4a30
    4a56:	60 95       	com	r22
    4a58:	70 95       	com	r23
    4a5a:	80 95       	com	r24
    4a5c:	90 95       	com	r25
    4a5e:	9b 01       	movw	r18, r22
    4a60:	ac 01       	movw	r20, r24
    4a62:	bd 01       	movw	r22, r26
    4a64:	cf 01       	movw	r24, r30
    4a66:	08 95       	ret
    4a68:	05 2e       	mov	r0, r21
    4a6a:	97 fb       	bst	r25, 7
    4a6c:	1e f4       	brtc	.+6      	;  0x4a74
    4a6e:	00 94       	com	r0
    4a70:	0e 94 4b 25 	call	0x4a96	;  0x4a96
    4a74:	57 fd       	sbrc	r21, 7
    4a76:	07 d0       	rcall	.+14     	;  0x4a86
    4a78:	0e 94 12 25 	call	0x4a24	;  0x4a24
    4a7c:	07 fc       	sbrc	r0, 7
    4a7e:	03 d0       	rcall	.+6      	;  0x4a86
    4a80:	4e f4       	brtc	.+18     	;  0x4a94
    4a82:	0c 94 4b 25 	jmp	0x4a96	;  0x4a96
    4a86:	50 95       	com	r21
    4a88:	40 95       	com	r20
    4a8a:	30 95       	com	r19
    4a8c:	21 95       	neg	r18
    4a8e:	3f 4f       	sbci	r19, 0xFF	; 255
    4a90:	4f 4f       	sbci	r20, 0xFF	; 255
    4a92:	5f 4f       	sbci	r21, 0xFF	; 255
    4a94:	08 95       	ret
    4a96:	90 95       	com	r25
    4a98:	80 95       	com	r24
    4a9a:	70 95       	com	r23
    4a9c:	61 95       	neg	r22
    4a9e:	7f 4f       	sbci	r23, 0xFF	; 255
    4aa0:	8f 4f       	sbci	r24, 0xFF	; 255
    4aa2:	9f 4f       	sbci	r25, 0xFF	; 255
    4aa4:	08 95       	ret
    4aa6:	ee 0f       	add	r30, r30
    4aa8:	ff 1f       	adc	r31, r31
    4aaa:	05 90       	lpm	r0, Z+
    4aac:	f4 91       	lpm	r31, Z
    4aae:	e0 2d       	mov	r30, r0
    4ab0:	09 94       	ijmp
    4ab2:	a2 9f       	mul	r26, r18
    4ab4:	b0 01       	movw	r22, r0
    4ab6:	b3 9f       	mul	r27, r19
    4ab8:	c0 01       	movw	r24, r0
    4aba:	a3 9f       	mul	r26, r19
    4abc:	70 0d       	add	r23, r0
    4abe:	81 1d       	adc	r24, r1
    4ac0:	11 24       	eor	r1, r1
    4ac2:	91 1d       	adc	r25, r1
    4ac4:	b2 9f       	mul	r27, r18
    4ac6:	70 0d       	add	r23, r0
    4ac8:	81 1d       	adc	r24, r1
    4aca:	11 24       	eor	r1, r1
    4acc:	91 1d       	adc	r25, r1
    4ace:	08 95       	ret
    4ad0:	cf 93       	push	r28
    4ad2:	df 93       	push	r29
    4ad4:	82 30       	cpi	r24, 0x02	; 2
    4ad6:	91 05       	cpc	r25, r1
    4ad8:	10 f4       	brcc	.+4      	;  0x4ade
    4ada:	82 e0       	ldi	r24, 0x02	; 2
    4adc:	90 e0       	ldi	r25, 0x00	; 0
    4ade:	e0 91 22 05 	lds	r30, 0x0522
    4ae2:	f0 91 23 05 	lds	r31, 0x0523
    4ae6:	20 e0       	ldi	r18, 0x00	; 0
    4ae8:	30 e0       	ldi	r19, 0x00	; 0
    4aea:	c0 e0       	ldi	r28, 0x00	; 0
    4aec:	d0 e0       	ldi	r29, 0x00	; 0
    4aee:	30 97       	sbiw	r30, 0x00	; 0
    4af0:	11 f1       	breq	.+68     	;  0x4b36
    4af2:	40 81       	ld	r20, Z
    4af4:	51 81       	ldd	r21, Z+1	; 0x01
    4af6:	48 17       	cp	r20, r24
    4af8:	59 07       	cpc	r21, r25
    4afa:	c0 f0       	brcs	.+48     	;  0x4b2c
    4afc:	48 17       	cp	r20, r24
    4afe:	59 07       	cpc	r21, r25
    4b00:	61 f4       	brne	.+24     	;  0x4b1a
    4b02:	82 81       	ldd	r24, Z+2	; 0x02
    4b04:	93 81       	ldd	r25, Z+3	; 0x03
    4b06:	20 97       	sbiw	r28, 0x00	; 0
    4b08:	19 f0       	breq	.+6      	;  0x4b10
    4b0a:	9b 83       	std	Y+3, r25	; 0x03
    4b0c:	8a 83       	std	Y+2, r24	; 0x02
    4b0e:	2b c0       	rjmp	.+86     	;  0x4b66
    4b10:	90 93 23 05 	sts	0x0523, r25
    4b14:	80 93 22 05 	sts	0x0522, r24
    4b18:	26 c0       	rjmp	.+76     	;  0x4b66
    4b1a:	21 15       	cp	r18, r1
    4b1c:	31 05       	cpc	r19, r1
    4b1e:	19 f0       	breq	.+6      	;  0x4b26
    4b20:	42 17       	cp	r20, r18
    4b22:	53 07       	cpc	r21, r19
    4b24:	18 f4       	brcc	.+6      	;  0x4b2c
    4b26:	9a 01       	movw	r18, r20
    4b28:	be 01       	movw	r22, r28
    4b2a:	df 01       	movw	r26, r30
    4b2c:	ef 01       	movw	r28, r30
    4b2e:	02 80       	ldd	r0, Z+2	; 0x02
    4b30:	f3 81       	ldd	r31, Z+3	; 0x03
    4b32:	e0 2d       	mov	r30, r0
    4b34:	dc cf       	rjmp	.-72     	;  0x4aee
    4b36:	21 15       	cp	r18, r1
    4b38:	31 05       	cpc	r19, r1
    4b3a:	09 f1       	breq	.+66     	;  0x4b7e
    4b3c:	28 1b       	sub	r18, r24
    4b3e:	39 0b       	sbc	r19, r25
    4b40:	24 30       	cpi	r18, 0x04	; 4
    4b42:	31 05       	cpc	r19, r1
    4b44:	90 f4       	brcc	.+36     	;  0x4b6a
    4b46:	12 96       	adiw	r26, 0x02	; 2
    4b48:	8d 91       	ld	r24, X+
    4b4a:	9c 91       	ld	r25, X
    4b4c:	13 97       	sbiw	r26, 0x03	; 3
    4b4e:	61 15       	cp	r22, r1
    4b50:	71 05       	cpc	r23, r1
    4b52:	21 f0       	breq	.+8      	;  0x4b5c
    4b54:	fb 01       	movw	r30, r22
    4b56:	93 83       	std	Z+3, r25	; 0x03
    4b58:	82 83       	std	Z+2, r24	; 0x02
    4b5a:	04 c0       	rjmp	.+8      	;  0x4b64
    4b5c:	90 93 23 05 	sts	0x0523, r25
    4b60:	80 93 22 05 	sts	0x0522, r24
    4b64:	fd 01       	movw	r30, r26
    4b66:	32 96       	adiw	r30, 0x02	; 2
    4b68:	44 c0       	rjmp	.+136    	;  0x4bf2
    4b6a:	fd 01       	movw	r30, r26
    4b6c:	e2 0f       	add	r30, r18
    4b6e:	f3 1f       	adc	r31, r19
    4b70:	81 93       	st	Z+, r24
    4b72:	91 93       	st	Z+, r25
    4b74:	22 50       	subi	r18, 0x02	; 2
    4b76:	31 09       	sbc	r19, r1
    4b78:	2d 93       	st	X+, r18
    4b7a:	3c 93       	st	X, r19
    4b7c:	3a c0       	rjmp	.+116    	;  0x4bf2
    4b7e:	20 91 20 05 	lds	r18, 0x0520
    4b82:	30 91 21 05 	lds	r19, 0x0521
    4b86:	23 2b       	or	r18, r19
    4b88:	41 f4       	brne	.+16     	;  0x4b9a
    4b8a:	20 91 02 01 	lds	r18, 0x0102
    4b8e:	30 91 03 01 	lds	r19, 0x0103
    4b92:	30 93 21 05 	sts	0x0521, r19
    4b96:	20 93 20 05 	sts	0x0520, r18
    4b9a:	20 91 00 01 	lds	r18, 0x0100
    4b9e:	30 91 01 01 	lds	r19, 0x0101
    4ba2:	21 15       	cp	r18, r1
    4ba4:	31 05       	cpc	r19, r1
    4ba6:	41 f4       	brne	.+16     	;  0x4bb8
    4ba8:	2d b7       	in	r18, 0x3d	; 61
    4baa:	3e b7       	in	r19, 0x3e	; 62
    4bac:	40 91 04 01 	lds	r20, 0x0104
    4bb0:	50 91 05 01 	lds	r21, 0x0105
    4bb4:	24 1b       	sub	r18, r20
    4bb6:	35 0b       	sbc	r19, r21
    4bb8:	e0 91 20 05 	lds	r30, 0x0520
    4bbc:	f0 91 21 05 	lds	r31, 0x0521
    4bc0:	e2 17       	cp	r30, r18
    4bc2:	f3 07       	cpc	r31, r19
    4bc4:	a0 f4       	brcc	.+40     	;  0x4bee
    4bc6:	2e 1b       	sub	r18, r30
    4bc8:	3f 0b       	sbc	r19, r31
    4bca:	28 17       	cp	r18, r24
    4bcc:	39 07       	cpc	r19, r25
    4bce:	78 f0       	brcs	.+30     	;  0x4bee
    4bd0:	ac 01       	movw	r20, r24
    4bd2:	4e 5f       	subi	r20, 0xFE	; 254
    4bd4:	5f 4f       	sbci	r21, 0xFF	; 255
    4bd6:	24 17       	cp	r18, r20
    4bd8:	35 07       	cpc	r19, r21
    4bda:	48 f0       	brcs	.+18     	;  0x4bee
    4bdc:	4e 0f       	add	r20, r30
    4bde:	5f 1f       	adc	r21, r31
    4be0:	50 93 21 05 	sts	0x0521, r21
    4be4:	40 93 20 05 	sts	0x0520, r20
    4be8:	81 93       	st	Z+, r24
    4bea:	91 93       	st	Z+, r25
    4bec:	02 c0       	rjmp	.+4      	;  0x4bf2
    4bee:	e0 e0       	ldi	r30, 0x00	; 0
    4bf0:	f0 e0       	ldi	r31, 0x00	; 0
    4bf2:	cf 01       	movw	r24, r30
    4bf4:	df 91       	pop	r29
    4bf6:	cf 91       	pop	r28
    4bf8:	08 95       	ret
    4bfa:	0f 93       	push	r16
    4bfc:	1f 93       	push	r17
    4bfe:	cf 93       	push	r28
    4c00:	df 93       	push	r29
    4c02:	00 97       	sbiw	r24, 0x00	; 0
    4c04:	09 f4       	brne	.+2      	;  0x4c08
    4c06:	8c c0       	rjmp	.+280    	;  0x4d20
    4c08:	fc 01       	movw	r30, r24
    4c0a:	32 97       	sbiw	r30, 0x02	; 2
    4c0c:	13 82       	std	Z+3, r1	; 0x03
    4c0e:	12 82       	std	Z+2, r1	; 0x02
    4c10:	00 91 22 05 	lds	r16, 0x0522
    4c14:	10 91 23 05 	lds	r17, 0x0523
    4c18:	01 15       	cp	r16, r1
    4c1a:	11 05       	cpc	r17, r1
    4c1c:	81 f4       	brne	.+32     	;  0x4c3e
    4c1e:	20 81       	ld	r18, Z
    4c20:	31 81       	ldd	r19, Z+1	; 0x01
    4c22:	82 0f       	add	r24, r18
    4c24:	93 1f       	adc	r25, r19
    4c26:	20 91 20 05 	lds	r18, 0x0520
    4c2a:	30 91 21 05 	lds	r19, 0x0521
    4c2e:	28 17       	cp	r18, r24
    4c30:	39 07       	cpc	r19, r25
    4c32:	79 f5       	brne	.+94     	;  0x4c92
    4c34:	f0 93 21 05 	sts	0x0521, r31
    4c38:	e0 93 20 05 	sts	0x0520, r30
    4c3c:	71 c0       	rjmp	.+226    	;  0x4d20
    4c3e:	d8 01       	movw	r26, r16
    4c40:	40 e0       	ldi	r20, 0x00	; 0
    4c42:	50 e0       	ldi	r21, 0x00	; 0
    4c44:	ae 17       	cp	r26, r30
    4c46:	bf 07       	cpc	r27, r31
    4c48:	50 f4       	brcc	.+20     	;  0x4c5e
    4c4a:	12 96       	adiw	r26, 0x02	; 2
    4c4c:	2d 91       	ld	r18, X+
    4c4e:	3c 91       	ld	r19, X
    4c50:	13 97       	sbiw	r26, 0x03	; 3
    4c52:	ad 01       	movw	r20, r26
    4c54:	21 15       	cp	r18, r1
    4c56:	31 05       	cpc	r19, r1
    4c58:	09 f1       	breq	.+66     	;  0x4c9c
    4c5a:	d9 01       	movw	r26, r18
    4c5c:	f3 cf       	rjmp	.-26     	;  0x4c44
    4c5e:	9d 01       	movw	r18, r26
    4c60:	da 01       	movw	r26, r20
    4c62:	33 83       	std	Z+3, r19	; 0x03
    4c64:	22 83       	std	Z+2, r18	; 0x02
    4c66:	60 81       	ld	r22, Z
    4c68:	71 81       	ldd	r23, Z+1	; 0x01
    4c6a:	86 0f       	add	r24, r22
    4c6c:	97 1f       	adc	r25, r23
    4c6e:	82 17       	cp	r24, r18
    4c70:	93 07       	cpc	r25, r19
    4c72:	69 f4       	brne	.+26     	;  0x4c8e
    4c74:	ec 01       	movw	r28, r24
    4c76:	28 81       	ld	r18, Y
    4c78:	39 81       	ldd	r19, Y+1	; 0x01
    4c7a:	26 0f       	add	r18, r22
    4c7c:	37 1f       	adc	r19, r23
    4c7e:	2e 5f       	subi	r18, 0xFE	; 254
    4c80:	3f 4f       	sbci	r19, 0xFF	; 255
    4c82:	31 83       	std	Z+1, r19	; 0x01
    4c84:	20 83       	st	Z, r18
    4c86:	8a 81       	ldd	r24, Y+2	; 0x02
    4c88:	9b 81       	ldd	r25, Y+3	; 0x03
    4c8a:	93 83       	std	Z+3, r25	; 0x03
    4c8c:	82 83       	std	Z+2, r24	; 0x02
    4c8e:	45 2b       	or	r20, r21
    4c90:	29 f4       	brne	.+10     	;  0x4c9c
    4c92:	f0 93 23 05 	sts	0x0523, r31
    4c96:	e0 93 22 05 	sts	0x0522, r30
    4c9a:	42 c0       	rjmp	.+132    	;  0x4d20
    4c9c:	13 96       	adiw	r26, 0x03	; 3
    4c9e:	fc 93       	st	X, r31
    4ca0:	ee 93       	st	-X, r30
    4ca2:	12 97       	sbiw	r26, 0x02	; 2
    4ca4:	ed 01       	movw	r28, r26
    4ca6:	49 91       	ld	r20, Y+
    4ca8:	59 91       	ld	r21, Y+
    4caa:	9e 01       	movw	r18, r28
    4cac:	24 0f       	add	r18, r20
    4cae:	35 1f       	adc	r19, r21
    4cb0:	e2 17       	cp	r30, r18
    4cb2:	f3 07       	cpc	r31, r19
    4cb4:	71 f4       	brne	.+28     	;  0x4cd2
    4cb6:	80 81       	ld	r24, Z
    4cb8:	91 81       	ldd	r25, Z+1	; 0x01
    4cba:	84 0f       	add	r24, r20
    4cbc:	95 1f       	adc	r25, r21
    4cbe:	02 96       	adiw	r24, 0x02	; 2
    4cc0:	11 96       	adiw	r26, 0x01	; 1
    4cc2:	9c 93       	st	X, r25
    4cc4:	8e 93       	st	-X, r24
    4cc6:	82 81       	ldd	r24, Z+2	; 0x02
    4cc8:	93 81       	ldd	r25, Z+3	; 0x03
    4cca:	13 96       	adiw	r26, 0x03	; 3
    4ccc:	9c 93       	st	X, r25
    4cce:	8e 93       	st	-X, r24
    4cd0:	12 97       	sbiw	r26, 0x02	; 2
    4cd2:	e0 e0       	ldi	r30, 0x00	; 0
    4cd4:	f0 e0       	ldi	r31, 0x00	; 0
    4cd6:	d8 01       	movw	r26, r16
    4cd8:	12 96       	adiw	r26, 0x02	; 2
    4cda:	8d 91       	ld	r24, X+
    4cdc:	9c 91       	ld	r25, X
    4cde:	13 97       	sbiw	r26, 0x03	; 3
    4ce0:	00 97       	sbiw	r24, 0x00	; 0
    4ce2:	19 f0       	breq	.+6      	;  0x4cea
    4ce4:	f8 01       	movw	r30, r16
    4ce6:	8c 01       	movw	r16, r24
    4ce8:	f6 cf       	rjmp	.-20     	;  0x4cd6
    4cea:	8d 91       	ld	r24, X+
    4cec:	9c 91       	ld	r25, X
    4cee:	98 01       	movw	r18, r16
    4cf0:	2e 5f       	subi	r18, 0xFE	; 254
    4cf2:	3f 4f       	sbci	r19, 0xFF	; 255
    4cf4:	82 0f       	add	r24, r18
    4cf6:	93 1f       	adc	r25, r19
    4cf8:	20 91 20 05 	lds	r18, 0x0520
    4cfc:	30 91 21 05 	lds	r19, 0x0521
    4d00:	28 17       	cp	r18, r24
    4d02:	39 07       	cpc	r19, r25
    4d04:	69 f4       	brne	.+26     	;  0x4d20
    4d06:	30 97       	sbiw	r30, 0x00	; 0
    4d08:	29 f4       	brne	.+10     	;  0x4d14
    4d0a:	10 92 23 05 	sts	0x0523, r1
    4d0e:	10 92 22 05 	sts	0x0522, r1
    4d12:	02 c0       	rjmp	.+4      	;  0x4d18
    4d14:	13 82       	std	Z+3, r1	; 0x03
    4d16:	12 82       	std	Z+2, r1	; 0x02
    4d18:	10 93 21 05 	sts	0x0521, r17
    4d1c:	00 93 20 05 	sts	0x0520, r16
    4d20:	df 91       	pop	r29
    4d22:	cf 91       	pop	r28
    4d24:	1f 91       	pop	r17
    4d26:	0f 91       	pop	r16
    4d28:	08 95       	ret
    4d2a:	a0 e0       	ldi	r26, 0x00	; 0
    4d2c:	b0 e0       	ldi	r27, 0x00	; 0
    4d2e:	eb e9       	ldi	r30, 0x9B	; 155
    4d30:	f6 e2       	ldi	r31, 0x26	; 38
    4d32:	0c 94 bd 27 	jmp	0x4f7a	;  0x4f7a
    4d36:	ec 01       	movw	r28, r24
    4d38:	00 97       	sbiw	r24, 0x00	; 0
    4d3a:	21 f4       	brne	.+8      	;  0x4d44
    4d3c:	cb 01       	movw	r24, r22
    4d3e:	0e 94 68 25 	call	0x4ad0	;  0x4ad0
    4d42:	b2 c0       	rjmp	.+356    	;  0x4ea8
    4d44:	fc 01       	movw	r30, r24
    4d46:	e6 0f       	add	r30, r22
    4d48:	f7 1f       	adc	r31, r23
    4d4a:	9c 01       	movw	r18, r24
    4d4c:	22 50       	subi	r18, 0x02	; 2
    4d4e:	31 09       	sbc	r19, r1
    4d50:	e2 17       	cp	r30, r18
    4d52:	f3 07       	cpc	r31, r19
    4d54:	08 f4       	brcc	.+2      	;  0x4d58
    4d56:	a6 c0       	rjmp	.+332    	;  0x4ea4
    4d58:	d9 01       	movw	r26, r18
    4d5a:	0d 91       	ld	r16, X+
    4d5c:	1c 91       	ld	r17, X
    4d5e:	11 97       	sbiw	r26, 0x01	; 1
    4d60:	06 17       	cp	r16, r22
    4d62:	17 07       	cpc	r17, r23
    4d64:	b0 f0       	brcs	.+44     	;  0x4d92
    4d66:	05 30       	cpi	r16, 0x05	; 5
    4d68:	11 05       	cpc	r17, r1
    4d6a:	08 f4       	brcc	.+2      	;  0x4d6e
    4d6c:	99 c0       	rjmp	.+306    	;  0x4ea0
    4d6e:	c8 01       	movw	r24, r16
    4d70:	04 97       	sbiw	r24, 0x04	; 4
    4d72:	86 17       	cp	r24, r22
    4d74:	97 07       	cpc	r25, r23
    4d76:	08 f4       	brcc	.+2      	;  0x4d7a
    4d78:	93 c0       	rjmp	.+294    	;  0x4ea0
    4d7a:	02 50       	subi	r16, 0x02	; 2
    4d7c:	11 09       	sbc	r17, r1
    4d7e:	06 1b       	sub	r16, r22
    4d80:	17 0b       	sbc	r17, r23
    4d82:	01 93       	st	Z+, r16
    4d84:	11 93       	st	Z+, r17
    4d86:	6d 93       	st	X+, r22
    4d88:	7c 93       	st	X, r23
    4d8a:	cf 01       	movw	r24, r30
    4d8c:	0e 94 fd 25 	call	0x4bfa	;  0x4bfa
    4d90:	87 c0       	rjmp	.+270    	;  0x4ea0
    4d92:	7b 01       	movw	r14, r22
    4d94:	e0 1a       	sub	r14, r16
    4d96:	f1 0a       	sbc	r15, r17
    4d98:	3c 01       	movw	r6, r24
    4d9a:	60 0e       	add	r6, r16
    4d9c:	71 1e       	adc	r7, r17
    4d9e:	a0 91 22 05 	lds	r26, 0x0522
    4da2:	b0 91 23 05 	lds	r27, 0x0523
    4da6:	80 e0       	ldi	r24, 0x00	; 0
    4da8:	90 e0       	ldi	r25, 0x00	; 0
    4daa:	81 2c       	mov	r8, r1
    4dac:	91 2c       	mov	r9, r1
    4dae:	10 97       	sbiw	r26, 0x00	; 0
    4db0:	09 f4       	brne	.+2      	;  0x4db4
    4db2:	44 c0       	rjmp	.+136    	;  0x4e3c
    4db4:	ad 90       	ld	r10, X+
    4db6:	bc 90       	ld	r11, X
    4db8:	11 97       	sbiw	r26, 0x01	; 1
    4dba:	a6 15       	cp	r26, r6
    4dbc:	b7 05       	cpc	r27, r7
    4dbe:	a1 f5       	brne	.+104    	;  0x4e28
    4dc0:	65 01       	movw	r12, r10
    4dc2:	42 e0       	ldi	r20, 0x02	; 2
    4dc4:	c4 0e       	add	r12, r20
    4dc6:	d1 1c       	adc	r13, r1
    4dc8:	ce 14       	cp	r12, r14
    4dca:	df 04       	cpc	r13, r15
    4dcc:	68 f1       	brcs	.+90     	;  0x4e28
    4dce:	c5 01       	movw	r24, r10
    4dd0:	8e 19       	sub	r24, r14
    4dd2:	9f 09       	sbc	r25, r15
    4dd4:	ac 01       	movw	r20, r24
    4dd6:	4e 5f       	subi	r20, 0xFE	; 254
    4dd8:	5f 4f       	sbci	r21, 0xFF	; 255
    4dda:	12 96       	adiw	r26, 0x02	; 2
    4ddc:	fc 90       	ld	r15, X
    4dde:	12 97       	sbiw	r26, 0x02	; 2
    4de0:	13 96       	adiw	r26, 0x03	; 3
    4de2:	ac 91       	ld	r26, X
    4de4:	45 30       	cpi	r20, 0x05	; 5
    4de6:	51 05       	cpc	r21, r1
    4de8:	40 f0       	brcs	.+16     	;  0x4dfa
    4dea:	f2 82       	std	Z+2, r15	; 0x02
    4dec:	a3 83       	std	Z+3, r26	; 0x03
    4dee:	91 83       	std	Z+1, r25	; 0x01
    4df0:	80 83       	st	Z, r24
    4df2:	d9 01       	movw	r26, r18
    4df4:	6d 93       	st	X+, r22
    4df6:	7c 93       	st	X, r23
    4df8:	09 c0       	rjmp	.+18     	;  0x4e0c
    4dfa:	0e 5f       	subi	r16, 0xFE	; 254
    4dfc:	1f 4f       	sbci	r17, 0xFF	; 255
    4dfe:	a0 0e       	add	r10, r16
    4e00:	b1 1e       	adc	r11, r17
    4e02:	f9 01       	movw	r30, r18
    4e04:	b1 82       	std	Z+1, r11	; 0x01
    4e06:	a0 82       	st	Z, r10
    4e08:	ef 2d       	mov	r30, r15
    4e0a:	fa 2f       	mov	r31, r26
    4e0c:	81 14       	cp	r8, r1
    4e0e:	91 04       	cpc	r9, r1
    4e10:	31 f0       	breq	.+12     	;  0x4e1e
    4e12:	d4 01       	movw	r26, r8
    4e14:	13 96       	adiw	r26, 0x03	; 3
    4e16:	fc 93       	st	X, r31
    4e18:	ee 93       	st	-X, r30
    4e1a:	12 97       	sbiw	r26, 0x02	; 2
    4e1c:	41 c0       	rjmp	.+130    	;  0x4ea0
    4e1e:	f0 93 23 05 	sts	0x0523, r31
    4e22:	e0 93 22 05 	sts	0x0522, r30
    4e26:	3c c0       	rjmp	.+120    	;  0x4ea0
    4e28:	8a 15       	cp	r24, r10
    4e2a:	9b 05       	cpc	r25, r11
    4e2c:	08 f4       	brcc	.+2      	;  0x4e30
    4e2e:	c5 01       	movw	r24, r10
    4e30:	4d 01       	movw	r8, r26
    4e32:	12 96       	adiw	r26, 0x02	; 2
    4e34:	0d 90       	ld	r0, X+
    4e36:	bc 91       	ld	r27, X
    4e38:	a0 2d       	mov	r26, r0
    4e3a:	b9 cf       	rjmp	.-142    	;  0x4dae
    4e3c:	a0 91 20 05 	lds	r26, 0x0520
    4e40:	b0 91 21 05 	lds	r27, 0x0521
    4e44:	a6 15       	cp	r26, r6
    4e46:	b7 05       	cpc	r27, r7
    4e48:	e1 f4       	brne	.+56     	;  0x4e82
    4e4a:	86 17       	cp	r24, r22
    4e4c:	97 07       	cpc	r25, r23
    4e4e:	c8 f4       	brcc	.+50     	;  0x4e82
    4e50:	80 91 00 01 	lds	r24, 0x0100
    4e54:	90 91 01 01 	lds	r25, 0x0101
    4e58:	00 97       	sbiw	r24, 0x00	; 0
    4e5a:	41 f4       	brne	.+16     	;  0x4e6c
    4e5c:	8d b7       	in	r24, 0x3d	; 61
    4e5e:	9e b7       	in	r25, 0x3e	; 62
    4e60:	40 91 04 01 	lds	r20, 0x0104
    4e64:	50 91 05 01 	lds	r21, 0x0105
    4e68:	84 1b       	sub	r24, r20
    4e6a:	95 0b       	sbc	r25, r21
    4e6c:	e8 17       	cp	r30, r24
    4e6e:	f9 07       	cpc	r31, r25
    4e70:	c8 f4       	brcc	.+50     	;  0x4ea4
    4e72:	f0 93 21 05 	sts	0x0521, r31
    4e76:	e0 93 20 05 	sts	0x0520, r30
    4e7a:	f9 01       	movw	r30, r18
    4e7c:	71 83       	std	Z+1, r23	; 0x01
    4e7e:	60 83       	st	Z, r22
    4e80:	0f c0       	rjmp	.+30     	;  0x4ea0
    4e82:	cb 01       	movw	r24, r22
    4e84:	0e 94 68 25 	call	0x4ad0	;  0x4ad0
    4e88:	7c 01       	movw	r14, r24
    4e8a:	00 97       	sbiw	r24, 0x00	; 0
    4e8c:	59 f0       	breq	.+22     	;  0x4ea4
    4e8e:	a8 01       	movw	r20, r16
    4e90:	be 01       	movw	r22, r28
    4e92:	0e 94 5e 27 	call	0x4ebc	;  0x4ebc
    4e96:	ce 01       	movw	r24, r28
    4e98:	0e 94 fd 25 	call	0x4bfa	;  0x4bfa
    4e9c:	c7 01       	movw	r24, r14
    4e9e:	04 c0       	rjmp	.+8      	;  0x4ea8
    4ea0:	ce 01       	movw	r24, r28
    4ea2:	02 c0       	rjmp	.+4      	;  0x4ea8
    4ea4:	80 e0       	ldi	r24, 0x00	; 0
    4ea6:	90 e0       	ldi	r25, 0x00	; 0
    4ea8:	cd b7       	in	r28, 0x3d	; 61
    4eaa:	de b7       	in	r29, 0x3e	; 62
    4eac:	ee e0       	ldi	r30, 0x0E	; 14
    4eae:	0c 94 d9 27 	jmp	0x4fb2	;  0x4fb2
    4eb2:	81 e0       	ldi	r24, 0x01	; 1
    4eb4:	90 e0       	ldi	r25, 0x00	; 0
    4eb6:	f8 94       	cli
    4eb8:	0c 94 f0 27 	jmp	0x4fe0	;  0x4fe0
    4ebc:	fb 01       	movw	r30, r22
    4ebe:	dc 01       	movw	r26, r24
    4ec0:	02 c0       	rjmp	.+4      	;  0x4ec6
    4ec2:	01 90       	ld	r0, Z+
    4ec4:	0d 92       	st	X+, r0
    4ec6:	41 50       	subi	r20, 0x01	; 1
    4ec8:	50 40       	sbci	r21, 0x00	; 0
    4eca:	d8 f7       	brcc	.-10     	;  0x4ec2
    4ecc:	08 95       	ret
    4ece:	fb 01       	movw	r30, r22
    4ed0:	dc 01       	movw	r26, r24
    4ed2:	01 90       	ld	r0, Z+
    4ed4:	0d 92       	st	X+, r0
    4ed6:	00 20       	and	r0, r0
    4ed8:	e1 f7       	brne	.-8      	;  0x4ed2
    4eda:	08 95       	ret
    4edc:	bb 27       	eor	r27, r27
    4ede:	4a 30       	cpi	r20, 0x0A	; 10
    4ee0:	31 f4       	brne	.+12     	;  0x4eee
    4ee2:	99 23       	and	r25, r25
    4ee4:	22 f4       	brpl	.+8      	;  0x4eee
    4ee6:	bd e2       	ldi	r27, 0x2D	; 45
    4ee8:	90 95       	com	r25
    4eea:	81 95       	neg	r24
    4eec:	9f 4f       	sbci	r25, 0xFF	; 255
    4eee:	0c 94 7a 27 	jmp	0x4ef4	;  0x4ef4
    4ef2:	bb 27       	eor	r27, r27
    4ef4:	fb 01       	movw	r30, r22
    4ef6:	55 27       	eor	r21, r21
    4ef8:	aa 27       	eor	r26, r26
    4efa:	88 0f       	add	r24, r24
    4efc:	99 1f       	adc	r25, r25
    4efe:	aa 1f       	adc	r26, r26
    4f00:	a4 17       	cp	r26, r20
    4f02:	10 f0       	brcs	.+4      	;  0x4f08
    4f04:	a4 1b       	sub	r26, r20
    4f06:	83 95       	inc	r24
    4f08:	50 51       	subi	r21, 0x10	; 16
    4f0a:	b9 f7       	brne	.-18     	;  0x4efa
    4f0c:	a0 5d       	subi	r26, 0xD0	; 208
    4f0e:	aa 33       	cpi	r26, 0x3A	; 58
    4f10:	08 f0       	brcs	.+2      	;  0x4f14
    4f12:	a9 5d       	subi	r26, 0xD9	; 217
    4f14:	a1 93       	st	Z+, r26
    4f16:	00 97       	sbiw	r24, 0x00	; 0
    4f18:	79 f7       	brne	.-34     	;  0x4ef8
    4f1a:	b1 11       	cpse	r27, r1
    4f1c:	b1 93       	st	Z+, r27
    4f1e:	11 92       	st	Z+, r1
    4f20:	cb 01       	movw	r24, r22
    4f22:	0c 94 a9 27 	jmp	0x4f52	;  0x4f52
    4f26:	f9 99       	sbic	0x1f, 1	; 31
    4f28:	fe cf       	rjmp	.-4      	;  0x4f26
    4f2a:	92 bd       	out	0x22, r25	; 34
    4f2c:	81 bd       	out	0x21, r24	; 33
    4f2e:	f8 9a       	sbi	0x1f, 0	; 31
    4f30:	99 27       	eor	r25, r25
    4f32:	80 b5       	in	r24, 0x20	; 32
    4f34:	08 95       	ret
    4f36:	26 2f       	mov	r18, r22
    4f38:	f9 99       	sbic	0x1f, 1	; 31
    4f3a:	fe cf       	rjmp	.-4      	;  0x4f38
    4f3c:	1f ba       	out	0x1f, r1	; 31
    4f3e:	92 bd       	out	0x22, r25	; 34
    4f40:	81 bd       	out	0x21, r24	; 33
    4f42:	20 bd       	out	0x20, r18	; 32
    4f44:	0f b6       	in	r0, 0x3f	; 63
    4f46:	f8 94       	cli
    4f48:	fa 9a       	sbi	0x1f, 2	; 31
    4f4a:	f9 9a       	sbi	0x1f, 1	; 31
    4f4c:	0f be       	out	0x3f, r0	; 63
    4f4e:	01 96       	adiw	r24, 0x01	; 1
    4f50:	08 95       	ret
    4f52:	dc 01       	movw	r26, r24
    4f54:	fc 01       	movw	r30, r24
    4f56:	67 2f       	mov	r22, r23
    4f58:	71 91       	ld	r23, Z+
    4f5a:	77 23       	and	r23, r23
    4f5c:	e1 f7       	brne	.-8      	;  0x4f56
    4f5e:	32 97       	sbiw	r30, 0x02	; 2
    4f60:	04 c0       	rjmp	.+8      	;  0x4f6a
    4f62:	7c 91       	ld	r23, X
    4f64:	6d 93       	st	X+, r22
    4f66:	70 83       	st	Z, r23
    4f68:	62 91       	ld	r22, -Z
    4f6a:	ae 17       	cp	r26, r30
    4f6c:	bf 07       	cpc	r27, r31
    4f6e:	c8 f3       	brcs	.-14     	;  0x4f62
    4f70:	08 95       	ret
    4f72:	2f 92       	push	r2
    4f74:	3f 92       	push	r3
    4f76:	4f 92       	push	r4
    4f78:	5f 92       	push	r5
    4f7a:	6f 92       	push	r6
    4f7c:	7f 92       	push	r7
    4f7e:	8f 92       	push	r8
    4f80:	9f 92       	push	r9
    4f82:	af 92       	push	r10
    4f84:	bf 92       	push	r11
    4f86:	cf 92       	push	r12
    4f88:	df 92       	push	r13
    4f8a:	ef 92       	push	r14
    4f8c:	ff 92       	push	r15
    4f8e:	0f 93       	push	r16
    4f90:	1f 93       	push	r17
    4f92:	cf 93       	push	r28
    4f94:	df 93       	push	r29
    4f96:	cd b7       	in	r28, 0x3d	; 61
    4f98:	de b7       	in	r29, 0x3e	; 62
    4f9a:	ca 1b       	sub	r28, r26
    4f9c:	db 0b       	sbc	r29, r27
    4f9e:	0f b6       	in	r0, 0x3f	; 63
    4fa0:	f8 94       	cli
    4fa2:	de bf       	out	0x3e, r29	; 62
    4fa4:	0f be       	out	0x3f, r0	; 63
    4fa6:	cd bf       	out	0x3d, r28	; 61
    4fa8:	09 94       	ijmp
    4faa:	2a 88       	ldd	r2, Y+18	; 0x12
    4fac:	39 88       	ldd	r3, Y+17	; 0x11
    4fae:	48 88       	ldd	r4, Y+16	; 0x10
    4fb0:	5f 84       	ldd	r5, Y+15	; 0x0f
    4fb2:	6e 84       	ldd	r6, Y+14	; 0x0e
    4fb4:	7d 84       	ldd	r7, Y+13	; 0x0d
    4fb6:	8c 84       	ldd	r8, Y+12	; 0x0c
    4fb8:	9b 84       	ldd	r9, Y+11	; 0x0b
    4fba:	aa 84       	ldd	r10, Y+10	; 0x0a
    4fbc:	b9 84       	ldd	r11, Y+9	; 0x09
    4fbe:	c8 84       	ldd	r12, Y+8	; 0x08
    4fc0:	df 80       	ldd	r13, Y+7	; 0x07
    4fc2:	ee 80       	ldd	r14, Y+6	; 0x06
    4fc4:	fd 80       	ldd	r15, Y+5	; 0x05
    4fc6:	0c 81       	ldd	r16, Y+4	; 0x04
    4fc8:	1b 81       	ldd	r17, Y+3	; 0x03
    4fca:	aa 81       	ldd	r26, Y+2	; 0x02
    4fcc:	b9 81       	ldd	r27, Y+1	; 0x01
    4fce:	ce 0f       	add	r28, r30
    4fd0:	d1 1d       	adc	r29, r1
    4fd2:	0f b6       	in	r0, 0x3f	; 63
    4fd4:	f8 94       	cli
    4fd6:	de bf       	out	0x3e, r29	; 62
    4fd8:	0f be       	out	0x3f, r0	; 63
    4fda:	cd bf       	out	0x3d, r28	; 61
    4fdc:	ed 01       	movw	r28, r26
    4fde:	08 95       	ret
    4fe0:	12 e0       	ldi	r17, 0x02	; 2
    4fe2:	c6 e6       	ldi	r28, 0x66	; 102
    4fe4:	d2 e0       	ldi	r29, 0x02	; 2
    4fe6:	04 c0       	rjmp	.+8      	;  0x4ff0
    4fe8:	fe 01       	movw	r30, r28
    4fea:	0e 94 53 25 	call	0x4aa6	;  0x4aa6
    4fee:	21 96       	adiw	r28, 0x01	; 1
    4ff0:	c7 36       	cpi	r28, 0x67	; 103
    4ff2:	d1 07       	cpc	r29, r17
    4ff4:	c9 f7       	brne	.-14     	;  0x4fe8
    4ff6:	f8 94       	cli
    4ff8:	ff cf       	rjmp	.-2      	;  0x4ff8
